
build/coremark.elf:     file format elf32-littleriscv


Disassembly of section .startup:

00000000 <.startup>:
   0:	00000013          	nop
   4:	00000033          	add	zero,zero,zero
   8:	000000b3          	add	ra,zero,zero
   c:	00000133          	add	sp,zero,zero
  10:	000001b3          	add	gp,zero,zero
  14:	00000233          	add	tp,zero,zero
  18:	000002b3          	add	t0,zero,zero
  1c:	00000333          	add	t1,zero,zero
  20:	000003b3          	add	t2,zero,zero
  24:	00000433          	add	s0,zero,zero
  28:	000004b3          	add	s1,zero,zero
  2c:	00000533          	add	a0,zero,zero
  30:	000005b3          	add	a1,zero,zero
  34:	00000633          	add	a2,zero,zero
  38:	000006b3          	add	a3,zero,zero
  3c:	00000733          	add	a4,zero,zero
  40:	000007b3          	add	a5,zero,zero
  44:	00000833          	add	a6,zero,zero
  48:	000008b3          	add	a7,zero,zero
  4c:	00000933          	add	s2,zero,zero
  50:	000009b3          	add	s3,zero,zero
  54:	00000a33          	add	s4,zero,zero
  58:	00000ab3          	add	s5,zero,zero
  5c:	00000b33          	add	s6,zero,zero
  60:	00000bb3          	add	s7,zero,zero
  64:	00000c33          	add	s8,zero,zero
  68:	00000cb3          	add	s9,zero,zero
  6c:	00000d33          	add	s10,zero,zero
  70:	00000db3          	add	s11,zero,zero
  74:	00000e33          	add	t3,zero,zero
  78:	00000eb3          	add	t4,zero,zero
  7c:	00000f33          	add	t5,zero,zero
  80:	00000fb3          	add	t6,zero,zero
  84:	0001e137          	lui	sp,0x1e
  88:	1e10206f          	j	0x2a68
  8c:	00000013          	nop

Disassembly of section .text:

00000090 <.text>:
      90:	00060a63          	beqz	a2,0xa4
      94:	00251503          	lh	a0,2(a0)
      98:	00259583          	lh	a1,2(a1)
      9c:	40b50533          	sub	a0,a0,a1
      a0:	00008067          	ret
      a4:	00051783          	lh	a5,0(a0)
      a8:	01079693          	slli	a3,a5,0x10
      ac:	f007f713          	andi	a4,a5,-256
      b0:	0186d293          	srli	t0,a3,0x18
      b4:	00576333          	or	t1,a4,t0
      b8:	00651023          	sh	t1,0(a0)
      bc:	00059383          	lh	t2,0(a1)
      c0:	00251503          	lh	a0,2(a0)
      c4:	01039813          	slli	a6,t2,0x10
      c8:	f003f613          	andi	a2,t2,-256
      cc:	01885893          	srli	a7,a6,0x18
      d0:	01166e33          	or	t3,a2,a7
      d4:	01c59023          	sh	t3,0(a1)
      d8:	00259583          	lh	a1,2(a1)
      dc:	40b50533          	sub	a0,a0,a1
      e0:	00008067          	ret
      e4:	00051f03          	lh	t5,0(a0)
      e8:	407f5793          	srai	a5,t5,0x7
      ec:	0017f293          	andi	t0,a5,1
      f0:	00028663          	beqz	t0,0xfc
      f4:	07ff7513          	andi	a0,t5,127
      f8:	00008067          	ret
      fc:	403f5713          	srai	a4,t5,0x3
     100:	00f77313          	andi	t1,a4,15
     104:	fe010113          	addi	sp,sp,-32 # 0x1dfe0
     108:	00431393          	slli	t2,t1,0x4
     10c:	00812c23          	sw	s0,24(sp)
     110:	00730633          	add	a2,t1,t2
     114:	00112e23          	sw	ra,28(sp)
     118:	00912a23          	sw	s1,20(sp)
     11c:	007f7693          	andi	a3,t5,7
     120:	0385d783          	lhu	a5,56(a1)
     124:	00058893          	mv	a7,a1
     128:	00050413          	mv	s0,a0
     12c:	00060713          	mv	a4,a2
     130:	08068e63          	beqz	a3,0x1cc
     134:	00100513          	li	a0,1
     138:	08a69263          	bne	a3,a0,0x1bc
     13c:	02888513          	addi	a0,a7,40
     140:	00078613          	mv	a2,a5
     144:	00070593          	mv	a1,a4
     148:	01e12623          	sw	t5,12(sp)
     14c:	01112423          	sw	a7,8(sp)
     150:	058020ef          	jal	0x21a8
     154:	00812883          	lw	a7,8(sp)
     158:	01051e93          	slli	t4,a0,0x10
     15c:	00c12f03          	lw	t5,12(sp)
     160:	03c8de03          	lhu	t3,60(a7)
     164:	410ed493          	srai	s1,t4,0x10
     168:	0a0e1463          	bnez	t3,0x210
     16c:	0388d783          	lhu	a5,56(a7)
     170:	02a89e23          	sh	a0,60(a7)
     174:	00078593          	mv	a1,a5
     178:	01112623          	sw	a7,12(sp)
     17c:	01e12423          	sw	t5,8(sp)
     180:	5a1030ef          	jal	0x3f20
     184:	00812283          	lw	t0,8(sp)
     188:	00c12683          	lw	a3,12(sp)
     18c:	00050793          	mv	a5,a0
     190:	f002f713          	andi	a4,t0,-256
     194:	07f4f513          	andi	a0,s1,127
     198:	00e56333          	or	t1,a0,a4
     19c:	02f69c23          	sh	a5,56(a3)
     1a0:	08036393          	ori	t2,t1,128
     1a4:	01c12083          	lw	ra,28(sp)
     1a8:	00741023          	sh	t2,0(s0)
     1ac:	01812403          	lw	s0,24(sp)
     1b0:	01412483          	lw	s1,20(sp)
     1b4:	02010113          	addi	sp,sp,32
     1b8:	00008067          	ret
     1bc:	010f1f93          	slli	t6,t5,0x10
     1c0:	010fd513          	srli	a0,t6,0x10
     1c4:	000f0493          	mv	s1,t5
     1c8:	fadff06f          	j	0x174
     1cc:	02100493          	li	s1,33
     1d0:	00c4e463          	bltu	s1,a2,0x1d8
     1d4:	02200713          	li	a4,34
     1d8:	0148a583          	lw	a1,20(a7)
     1dc:	00289683          	lh	a3,2(a7)
     1e0:	00089603          	lh	a2,0(a7)
     1e4:	0188a503          	lw	a0,24(a7)
     1e8:	01e12623          	sw	t5,12(sp)
     1ec:	01112423          	sw	a7,8(sp)
     1f0:	444020ef          	jal	0x2634
     1f4:	00812883          	lw	a7,8(sp)
     1f8:	01051813          	slli	a6,a0,0x10
     1fc:	00c12f03          	lw	t5,12(sp)
     200:	03e8d583          	lhu	a1,62(a7)
     204:	41085493          	srai	s1,a6,0x10
     208:	00059463          	bnez	a1,0x210
     20c:	02a89f23          	sh	a0,62(a7)
     210:	0388d783          	lhu	a5,56(a7)
     214:	f61ff06f          	j	0x174
     218:	fe010113          	addi	sp,sp,-32
     21c:	00912a23          	sw	s1,20(sp)
     220:	00058493          	mv	s1,a1
     224:	00060593          	mv	a1,a2
     228:	00112e23          	sw	ra,28(sp)
     22c:	00812c23          	sw	s0,24(sp)
     230:	00c12623          	sw	a2,12(sp)
     234:	eb1ff0ef          	jal	0xe4
     238:	00c12583          	lw	a1,12(sp)
     23c:	00050413          	mv	s0,a0
     240:	00048513          	mv	a0,s1
     244:	ea1ff0ef          	jal	0xe4
     248:	01c12083          	lw	ra,28(sp)
     24c:	40a40533          	sub	a0,s0,a0
     250:	01812403          	lw	s0,24(sp)
     254:	01412483          	lw	s1,20(sp)
     258:	02010113          	addi	sp,sp,32
     25c:	00008067          	ret
     260:	00059703          	lh	a4,0(a1)
     264:	00259783          	lh	a5,2(a1)
     268:	00e51023          	sh	a4,0(a0)
     26c:	00f51123          	sh	a5,2(a0)
     270:	00008067          	ret
     274:	00062803          	lw	a6,0(a2)
     278:	00880893          	addi	a7,a6,8
     27c:	04e8f663          	bgeu	a7,a4,0x2c8
     280:	0006a703          	lw	a4,0(a3)
     284:	00470313          	addi	t1,a4,4
     288:	04f37063          	bgeu	t1,a5,0x2c8
     28c:	01162023          	sw	a7,0(a2)
     290:	00052783          	lw	a5,0(a0)
     294:	00059283          	lh	t0,0(a1)
     298:	00259603          	lh	a2,2(a1)
     29c:	00f82023          	sw	a5,0(a6)
     2a0:	01052023          	sw	a6,0(a0)
     2a4:	00e82223          	sw	a4,4(a6)
     2a8:	0006a383          	lw	t2,0(a3)
     2ac:	00438513          	addi	a0,t2,4
     2b0:	00a6a023          	sw	a0,0(a3)
     2b4:	00482583          	lw	a1,4(a6)
     2b8:	00080513          	mv	a0,a6
     2bc:	00559023          	sh	t0,0(a1)
     2c0:	00c59123          	sh	a2,2(a1)
     2c4:	00008067          	ret
     2c8:	00000813          	li	a6,0
     2cc:	00080513          	mv	a0,a6
     2d0:	00008067          	ret
     2d4:	00050793          	mv	a5,a0
     2d8:	00052503          	lw	a0,0(a0)
     2dc:	0047a683          	lw	a3,4(a5)
     2e0:	00452603          	lw	a2,4(a0)
     2e4:	00052703          	lw	a4,0(a0)
     2e8:	00c7a223          	sw	a2,4(a5)
     2ec:	00d52223          	sw	a3,4(a0)
     2f0:	00e7a023          	sw	a4,0(a5)
     2f4:	00052023          	sw	zero,0(a0)
     2f8:	00008067          	ret
     2fc:	0045a683          	lw	a3,4(a1)
     300:	00452703          	lw	a4,4(a0)
     304:	0005a783          	lw	a5,0(a1)
     308:	00d52223          	sw	a3,4(a0)
     30c:	00e5a223          	sw	a4,4(a1)
     310:	00f52023          	sw	a5,0(a0)
     314:	00a5a023          	sw	a0,0(a1)
     318:	00008067          	ret
     31c:	00259603          	lh	a2,2(a1)
     320:	02064263          	bltz	a2,0x344
     324:	00051863          	bnez	a0,0x334
     328:	00008067          	ret
     32c:	00052503          	lw	a0,0(a0)
     330:	02050a63          	beqz	a0,0x364
     334:	00452303          	lw	t1,4(a0)
     338:	00231383          	lh	t2,2(t1)
     33c:	fec398e3          	bne	t2,a2,0x32c
     340:	00008067          	ret
     344:	02050063          	beqz	a0,0x364
     348:	00059703          	lh	a4,0(a1)
     34c:	00c0006f          	j	0x358
     350:	00052503          	lw	a0,0(a0)
     354:	00050863          	beqz	a0,0x364
     358:	00452783          	lw	a5,4(a0)
     35c:	0007c283          	lbu	t0,0(a5)
     360:	fee298e3          	bne	t0,a4,0x350
     364:	00008067          	ret
     368:	02050063          	beqz	a0,0x388
     36c:	00000713          	li	a4,0
     370:	0080006f          	j	0x378
     374:	00078513          	mv	a0,a5
     378:	00052783          	lw	a5,0(a0)
     37c:	00e52023          	sw	a4,0(a0)
     380:	00050713          	mv	a4,a0
     384:	fe0798e3          	bnez	a5,0x374
     388:	00008067          	ret
     38c:	fb010113          	addi	sp,sp,-80
     390:	05212023          	sw	s2,64(sp)
     394:	03512a23          	sw	s5,52(sp)
     398:	03612823          	sw	s6,48(sp)
     39c:	03812423          	sw	s8,40(sp)
     3a0:	04112623          	sw	ra,76(sp)
     3a4:	04812423          	sw	s0,72(sp)
     3a8:	04912223          	sw	s1,68(sp)
     3ac:	03312e23          	sw	s3,60(sp)
     3b0:	03412c23          	sw	s4,56(sp)
     3b4:	03712623          	sw	s7,44(sp)
     3b8:	03912223          	sw	s9,36(sp)
     3bc:	03a12023          	sw	s10,32(sp)
     3c0:	01b12e23          	sw	s11,28(sp)
     3c4:	00050913          	mv	s2,a0
     3c8:	00100c13          	li	s8,1
     3cc:	00058b13          	mv	s6,a1
     3d0:	00060a93          	mv	s5,a2
     3d4:	1e090863          	beqz	s2,0x5c4
     3d8:	00012623          	sw	zero,12(sp)
     3dc:	00000493          	li	s1,0
     3e0:	00000b93          	li	s7,0
     3e4:	00c12783          	lw	a5,12(sp)
     3e8:	007c7713          	andi	a4,s8,7
     3ec:	00090813          	mv	a6,s2
     3f0:	00178293          	addi	t0,a5,1
     3f4:	00512623          	sw	t0,12(sp)
     3f8:	00000413          	li	s0,0
     3fc:	08070463          	beqz	a4,0x484
     400:	0f805663          	blez	s8,0x4ec
     404:	00092803          	lw	a6,0(s2)
     408:	00100413          	li	s0,1
     40c:	0e080063          	beqz	a6,0x4ec
     410:	06870a63          	beq	a4,s0,0x484
     414:	00200693          	li	a3,2
     418:	06d70063          	beq	a4,a3,0x478
     41c:	00300613          	li	a2,3
     420:	04c70663          	beq	a4,a2,0x46c
     424:	00400313          	li	t1,4
     428:	02670c63          	beq	a4,t1,0x460
     42c:	00500393          	li	t2,5
     430:	02770263          	beq	a4,t2,0x454
     434:	00600513          	li	a0,6
     438:	00a70863          	beq	a4,a0,0x448
     43c:	00082803          	lw	a6,0(a6)
     440:	00068413          	mv	s0,a3
     444:	0a080463          	beqz	a6,0x4ec
     448:	00082803          	lw	a6,0(a6)
     44c:	00140413          	addi	s0,s0,1
     450:	08080e63          	beqz	a6,0x4ec
     454:	00082803          	lw	a6,0(a6)
     458:	00140413          	addi	s0,s0,1
     45c:	08080863          	beqz	a6,0x4ec
     460:	00082803          	lw	a6,0(a6)
     464:	00140413          	addi	s0,s0,1
     468:	08080263          	beqz	a6,0x4ec
     46c:	00082803          	lw	a6,0(a6)
     470:	00140413          	addi	s0,s0,1
     474:	06080c63          	beqz	a6,0x4ec
     478:	00082803          	lw	a6,0(a6)
     47c:	00140413          	addi	s0,s0,1
     480:	06080663          	beqz	a6,0x4ec
     484:	07845463          	bge	s0,s8,0x4ec
     488:	00082803          	lw	a6,0(a6)
     48c:	00140413          	addi	s0,s0,1
     490:	00040593          	mv	a1,s0
     494:	04080c63          	beqz	a6,0x4ec
     498:	00082803          	lw	a6,0(a6)
     49c:	00140413          	addi	s0,s0,1
     4a0:	04080663          	beqz	a6,0x4ec
     4a4:	00082803          	lw	a6,0(a6)
     4a8:	00258413          	addi	s0,a1,2
     4ac:	04080063          	beqz	a6,0x4ec
     4b0:	00082803          	lw	a6,0(a6)
     4b4:	00358413          	addi	s0,a1,3
     4b8:	02080a63          	beqz	a6,0x4ec
     4bc:	00082803          	lw	a6,0(a6)
     4c0:	00458413          	addi	s0,a1,4
     4c4:	02080463          	beqz	a6,0x4ec
     4c8:	00082803          	lw	a6,0(a6)
     4cc:	00558413          	addi	s0,a1,5
     4d0:	00080e63          	beqz	a6,0x4ec
     4d4:	00082803          	lw	a6,0(a6)
     4d8:	00658413          	addi	s0,a1,6
     4dc:	00080863          	beqz	a6,0x4ec
     4e0:	00082803          	lw	a6,0(a6)
     4e4:	00758413          	addi	s0,a1,7
     4e8:	f8081ee3          	bnez	a6,0x484
     4ec:	00090993          	mv	s3,s2
     4f0:	000c0a13          	mv	s4,s8
     4f4:	00080913          	mv	s2,a6
     4f8:	02805463          	blez	s0,0x520
     4fc:	000a0463          	beqz	s4,0x504
     500:	02091863          	bnez	s2,0x530
     504:	00048693          	mv	a3,s1
     508:	fff40413          	addi	s0,s0,-1
     50c:	00098493          	mv	s1,s3
     510:	0009a983          	lw	s3,0(s3)
     514:	04068863          	beqz	a3,0x564
     518:	0096a023          	sw	s1,0(a3)
     51c:	fe8040e3          	bgtz	s0,0x4fc
     520:	012037b3          	snez	a5,s2
     524:	09405063          	blez	s4,0x5a4
     528:	08078063          	beqz	a5,0x5a8
     52c:	04040a63          	beqz	s0,0x580
     530:	fff40d93          	addi	s11,s0,-1
     534:	007dfc93          	andi	s9,s11,7
     538:	1e0c8e63          	beqz	s9,0x734
     53c:	00492583          	lw	a1,4(s2)
     540:	0049a503          	lw	a0,4(s3)
     544:	000a8613          	mv	a2,s5
     548:	000b00e7          	jalr	s6
     54c:	08a05063          	blez	a0,0x5cc
     550:	00048693          	mv	a3,s1
     554:	fffa0a13          	addi	s4,s4,-1
     558:	00090493          	mv	s1,s2
     55c:	00092903          	lw	s2,0(s2)
     560:	fa069ce3          	bnez	a3,0x518
     564:	00048b93          	mv	s7,s1
     568:	f91ff06f          	j	0x4f8
     56c:	01a4a023          	sw	s10,0(s1)
     570:	012037b3          	snez	a5,s2
     574:	000d0493          	mv	s1,s10
     578:	020a0463          	beqz	s4,0x5a0
     57c:	02078263          	beqz	a5,0x5a0
     580:	00090d13          	mv	s10,s2
     584:	fffa0a13          	addi	s4,s4,-1
     588:	00092903          	lw	s2,0(s2)
     58c:	fe0490e3          	bnez	s1,0x56c
     590:	000d0b93          	mv	s7,s10
     594:	012037b3          	snez	a5,s2
     598:	000d0493          	mv	s1,s10
     59c:	fe0a10e3          	bnez	s4,0x57c
     5a0:	000d0493          	mv	s1,s10
     5a4:	e40790e3          	bnez	a5,0x3e4
     5a8:	00c12903          	lw	s2,12(sp)
     5ac:	0004a023          	sw	zero,0(s1)
     5b0:	00100293          	li	t0,1
     5b4:	2e590463          	beq	s2,t0,0x89c
     5b8:	000b8913          	mv	s2,s7
     5bc:	001c1c13          	slli	s8,s8,0x1
     5c0:	e0091ce3          	bnez	s2,0x3d8
     5c4:	00002023          	sw	zero,0(zero) # 0x0
     5c8:	00100073          	ebreak
     5cc:	0009ad03          	lw	s10,0(s3)
     5d0:	000d8413          	mv	s0,s11
     5d4:	00048c63          	beqz	s1,0x5ec
     5d8:	00048693          	mv	a3,s1
     5dc:	00098493          	mv	s1,s3
     5e0:	0096a023          	sw	s1,0(a3)
     5e4:	000d0993          	mv	s3,s10
     5e8:	f35ff06f          	j	0x51c
     5ec:	00098b93          	mv	s7,s3
     5f0:	00098493          	mv	s1,s3
     5f4:	2bb05063          	blez	s11,0x894
     5f8:	00100893          	li	a7,1
     5fc:	000d0993          	mv	s3,s10
     600:	131c8a63          	beq	s9,a7,0x734
     604:	00200e13          	li	t3,2
     608:	11cc8063          	beq	s9,t3,0x708
     60c:	00300e93          	li	t4,3
     610:	0ddc8663          	beq	s9,t4,0x6dc
     614:	00400f13          	li	t5,4
     618:	09ec8c63          	beq	s9,t5,0x6b0
     61c:	00500f93          	li	t6,5
     620:	07fc8263          	beq	s9,t6,0x684
     624:	00600713          	li	a4,6
     628:	02ec8863          	beq	s9,a4,0x658
     62c:	00492583          	lw	a1,4(s2)
     630:	004d2503          	lw	a0,4(s10)
     634:	000a8613          	mv	a2,s5
     638:	000b00e7          	jalr	s6
     63c:	f0a04ae3          	bgtz	a0,0x550
     640:	000d2d03          	lw	s10,0(s10)
     644:	fffd8413          	addi	s0,s11,-1
     648:	f80b98e3          	bnez	s7,0x5d8
     64c:	00098b93          	mv	s7,s3
     650:	00098493          	mv	s1,s3
     654:	000d0993          	mv	s3,s10
     658:	00492583          	lw	a1,4(s2)
     65c:	004d2503          	lw	a0,4(s10)
     660:	000a8613          	mv	a2,s5
     664:	000b00e7          	jalr	s6
     668:	eea044e3          	bgtz	a0,0x550
     66c:	000d2d03          	lw	s10,0(s10)
     670:	fff40413          	addi	s0,s0,-1
     674:	f60492e3          	bnez	s1,0x5d8
     678:	00098b93          	mv	s7,s3
     67c:	00098493          	mv	s1,s3
     680:	000d0993          	mv	s3,s10
     684:	00492583          	lw	a1,4(s2)
     688:	004d2503          	lw	a0,4(s10)
     68c:	000a8613          	mv	a2,s5
     690:	000b00e7          	jalr	s6
     694:	eaa04ee3          	bgtz	a0,0x550
     698:	000d2d03          	lw	s10,0(s10)
     69c:	fff40413          	addi	s0,s0,-1
     6a0:	f2049ce3          	bnez	s1,0x5d8
     6a4:	00098b93          	mv	s7,s3
     6a8:	00098493          	mv	s1,s3
     6ac:	000d0993          	mv	s3,s10
     6b0:	00492583          	lw	a1,4(s2)
     6b4:	004d2503          	lw	a0,4(s10)
     6b8:	000a8613          	mv	a2,s5
     6bc:	000b00e7          	jalr	s6
     6c0:	e8a048e3          	bgtz	a0,0x550
     6c4:	000d2d03          	lw	s10,0(s10)
     6c8:	fff40413          	addi	s0,s0,-1
     6cc:	f00496e3          	bnez	s1,0x5d8
     6d0:	00098b93          	mv	s7,s3
     6d4:	00098493          	mv	s1,s3
     6d8:	000d0993          	mv	s3,s10
     6dc:	00492583          	lw	a1,4(s2)
     6e0:	004d2503          	lw	a0,4(s10)
     6e4:	000a8613          	mv	a2,s5
     6e8:	000b00e7          	jalr	s6
     6ec:	e6a042e3          	bgtz	a0,0x550
     6f0:	000d2d03          	lw	s10,0(s10)
     6f4:	fff40413          	addi	s0,s0,-1
     6f8:	ee0490e3          	bnez	s1,0x5d8
     6fc:	00098b93          	mv	s7,s3
     700:	00098493          	mv	s1,s3
     704:	000d0993          	mv	s3,s10
     708:	00492583          	lw	a1,4(s2)
     70c:	004d2503          	lw	a0,4(s10)
     710:	000a8613          	mv	a2,s5
     714:	000b00e7          	jalr	s6
     718:	e2a04ce3          	bgtz	a0,0x550
     71c:	000d2d03          	lw	s10,0(s10)
     720:	fff40413          	addi	s0,s0,-1
     724:	ea049ae3          	bnez	s1,0x5d8
     728:	00098b93          	mv	s7,s3
     72c:	00098493          	mv	s1,s3
     730:	000d0993          	mv	s3,s10
     734:	00492583          	lw	a1,4(s2)
     738:	0049a503          	lw	a0,4(s3)
     73c:	000a8613          	mv	a2,s5
     740:	000b00e7          	jalr	s6
     744:	e0a046e3          	bgtz	a0,0x550
     748:	fff40413          	addi	s0,s0,-1
     74c:	0009ad03          	lw	s10,0(s3)
     750:	00040d93          	mv	s11,s0
     754:	e80492e3          	bnez	s1,0x5d8
     758:	00098b93          	mv	s7,s3
     75c:	00098493          	mv	s1,s3
     760:	12805a63          	blez	s0,0x894
     764:	00492583          	lw	a1,4(s2)
     768:	004d2503          	lw	a0,4(s10)
     76c:	000a8613          	mv	a2,s5
     770:	000d0993          	mv	s3,s10
     774:	000b00e7          	jalr	s6
     778:	dca04ce3          	bgtz	a0,0x550
     77c:	000d2d03          	lw	s10,0(s10)
     780:	fff40413          	addi	s0,s0,-1
     784:	e40b9ae3          	bnez	s7,0x5d8
     788:	00492583          	lw	a1,4(s2)
     78c:	004d2503          	lw	a0,4(s10)
     790:	000a8613          	mv	a2,s5
     794:	00098b93          	mv	s7,s3
     798:	00098493          	mv	s1,s3
     79c:	000d0993          	mv	s3,s10
     7a0:	000b00e7          	jalr	s6
     7a4:	daa046e3          	bgtz	a0,0x550
     7a8:	000d2d03          	lw	s10,0(s10)
     7ac:	ffed8413          	addi	s0,s11,-2
     7b0:	e20b94e3          	bnez	s7,0x5d8
     7b4:	00492583          	lw	a1,4(s2)
     7b8:	004d2503          	lw	a0,4(s10)
     7bc:	000a8613          	mv	a2,s5
     7c0:	00098b93          	mv	s7,s3
     7c4:	00098493          	mv	s1,s3
     7c8:	000d0993          	mv	s3,s10
     7cc:	000b00e7          	jalr	s6
     7d0:	d8a040e3          	bgtz	a0,0x550
     7d4:	000d2d03          	lw	s10,0(s10)
     7d8:	ffdd8413          	addi	s0,s11,-3
     7dc:	de0b9ee3          	bnez	s7,0x5d8
     7e0:	00492583          	lw	a1,4(s2)
     7e4:	004d2503          	lw	a0,4(s10)
     7e8:	000a8613          	mv	a2,s5
     7ec:	00098b93          	mv	s7,s3
     7f0:	00098493          	mv	s1,s3
     7f4:	000d0993          	mv	s3,s10
     7f8:	000b00e7          	jalr	s6
     7fc:	d4a04ae3          	bgtz	a0,0x550
     800:	000d2d03          	lw	s10,0(s10)
     804:	ffcd8413          	addi	s0,s11,-4
     808:	dc0b98e3          	bnez	s7,0x5d8
     80c:	00492583          	lw	a1,4(s2)
     810:	004d2503          	lw	a0,4(s10)
     814:	000a8613          	mv	a2,s5
     818:	00098b93          	mv	s7,s3
     81c:	00098493          	mv	s1,s3
     820:	000d0993          	mv	s3,s10
     824:	000b00e7          	jalr	s6
     828:	d2a044e3          	bgtz	a0,0x550
     82c:	000d2d03          	lw	s10,0(s10)
     830:	ffbd8413          	addi	s0,s11,-5
     834:	da0b92e3          	bnez	s7,0x5d8
     838:	00492583          	lw	a1,4(s2)
     83c:	004d2503          	lw	a0,4(s10)
     840:	000a8613          	mv	a2,s5
     844:	00098b93          	mv	s7,s3
     848:	00098493          	mv	s1,s3
     84c:	000d0993          	mv	s3,s10
     850:	000b00e7          	jalr	s6
     854:	cea04ee3          	bgtz	a0,0x550
     858:	000d2d03          	lw	s10,0(s10)
     85c:	ffad8413          	addi	s0,s11,-6
     860:	d60b9ce3          	bnez	s7,0x5d8
     864:	00492583          	lw	a1,4(s2)
     868:	004d2503          	lw	a0,4(s10)
     86c:	000a8613          	mv	a2,s5
     870:	00098b93          	mv	s7,s3
     874:	00098493          	mv	s1,s3
     878:	000d0993          	mv	s3,s10
     87c:	000b00e7          	jalr	s6
     880:	cca048e3          	bgtz	a0,0x550
     884:	000d2d03          	lw	s10,0(s10)
     888:	ff9d8413          	addi	s0,s11,-7
     88c:	d40b96e3          	bnez	s7,0x5d8
     890:	e99ff06f          	j	0x728
     894:	000d0993          	mv	s3,s10
     898:	c89ff06f          	j	0x520
     89c:	04c12083          	lw	ra,76(sp)
     8a0:	04812403          	lw	s0,72(sp)
     8a4:	04412483          	lw	s1,68(sp)
     8a8:	04012903          	lw	s2,64(sp)
     8ac:	03c12983          	lw	s3,60(sp)
     8b0:	03812a03          	lw	s4,56(sp)
     8b4:	03412a83          	lw	s5,52(sp)
     8b8:	03012b03          	lw	s6,48(sp)
     8bc:	02812c03          	lw	s8,40(sp)
     8c0:	02412c83          	lw	s9,36(sp)
     8c4:	02012d03          	lw	s10,32(sp)
     8c8:	01c12d83          	lw	s11,28(sp)
     8cc:	000b8513          	mv	a0,s7
     8d0:	02c12b83          	lw	s7,44(sp)
     8d4:	05010113          	addi	sp,sp,80
     8d8:	00008067          	ret
     8dc:	00451f03          	lh	t5,4(a0)
     8e0:	fd010113          	addi	sp,sp,-48
     8e4:	02812423          	sw	s0,40(sp)
     8e8:	02112623          	sw	ra,44(sp)
     8ec:	02912223          	sw	s1,36(sp)
     8f0:	03212023          	sw	s2,32(sp)
     8f4:	01312e23          	sw	s3,28(sp)
     8f8:	02452403          	lw	s0,36(a0)
     8fc:	00000e13          	li	t3,0
     900:	29e05c63          	blez	t5,0xb98
     904:	2a05c063          	bltz	a1,0xba4
     908:	2c040063          	beqz	s0,0xbc8
     90c:	00058693          	mv	a3,a1
     910:	00000e93          	li	t4,0
     914:	00000f93          	li	t6,0
     918:	00000613          	li	a2,0
     91c:	00000313          	li	t1,0
     920:	00040793          	mv	a5,s0
     924:	00c0006f          	j	0x930
     928:	0007a783          	lw	a5,0(a5)
     92c:	0e078663          	beqz	a5,0xa18
     930:	0047a703          	lw	a4,4(a5)
     934:	00271803          	lh	a6,2(a4)
     938:	fed818e3          	bne	a6,a3,0x928
     93c:	00000293          	li	t0,0
     940:	0080006f          	j	0x948
     944:	00068413          	mv	s0,a3
     948:	00042683          	lw	a3,0(s0)
     94c:	00542023          	sw	t0,0(s0)
     950:	00028893          	mv	a7,t0
     954:	00040293          	mv	t0,s0
     958:	fe0696e3          	bnez	a3,0x944
     95c:	0c078263          	beqz	a5,0xa20
     960:	0047a383          	lw	t2,4(a5)
     964:	00160613          	addi	a2,a2,1
     968:	00039483          	lh	s1,0(t2)
     96c:	0014f913          	andi	s2,s1,1
     970:	00090863          	beqz	s2,0x980
     974:	4094d993          	srai	s3,s1,0x9
     978:	0019f713          	andi	a4,s3,1
     97c:	00e30333          	add	t1,t1,a4
     980:	0007a883          	lw	a7,0(a5)
     984:	00088c63          	beqz	a7,0x99c
     988:	0008a683          	lw	a3,0(a7)
     98c:	00d7a023          	sw	a3,0(a5)
     990:	00042783          	lw	a5,0(s0)
     994:	00f8a023          	sw	a5,0(a7)
     998:	01142023          	sw	a7,0(s0)
     99c:	04084063          	bltz	a6,0x9dc
     9a0:	001e8893          	addi	a7,t4,1
     9a4:	01089693          	slli	a3,a7,0x10
     9a8:	00180813          	addi	a6,a6,1
     9ac:	4106de93          	srai	t4,a3,0x10
     9b0:	01081793          	slli	a5,a6,0x10
     9b4:	01089293          	slli	t0,a7,0x10
     9b8:	4107d693          	srai	a3,a5,0x10
     9bc:	0102d393          	srli	t2,t0,0x10
     9c0:	09df0263          	beq	t5,t4,0xa44
     9c4:	0ff3fe13          	zext.b	t3,t2
     9c8:	f406dce3          	bgez	a3,0x920
     9cc:	000e0893          	mv	a7,t3
     9d0:	00040793          	mv	a5,s0
     9d4:	ffff8837          	lui	a6,0xffff8
     9d8:	0300006f          	j	0xa08
     9dc:	001e8913          	addi	s2,t4,1
     9e0:	01091e93          	slli	t4,s2,0x10
     9e4:	01091993          	slli	s3,s2,0x10
     9e8:	410ede93          	srai	t4,t4,0x10
     9ec:	0109d713          	srli	a4,s3,0x10
     9f0:	05df0863          	beq	t5,t4,0xa40
     9f4:	0ff77893          	zext.b	a7,a4
     9f8:	00040793          	mv	a5,s0
     9fc:	00c0006f          	j	0xa08
     a00:	0007a783          	lw	a5,0(a5)
     a04:	02078a63          	beqz	a5,0xa38
     a08:	0047a703          	lw	a4,4(a5)
     a0c:	00074e03          	lbu	t3,0(a4)
     a10:	ff1e18e3          	bne	t3,a7,0xa00
     a14:	f29ff06f          	j	0x93c
     a18:	00068813          	mv	a6,a3
     a1c:	f21ff06f          	j	0x93c
     a20:	0048a283          	lw	t0,4(a7)
     a24:	001f8f93          	addi	t6,t6,1
     a28:	00128383          	lb	t2,1(t0)
     a2c:	0013f493          	andi	s1,t2,1
     a30:	00930333          	add	t1,t1,s1
     a34:	f69ff06f          	j	0x99c
     a38:	00088e13          	mv	t3,a7
     a3c:	f01ff06f          	j	0x93c
     a40:	00080693          	mv	a3,a6
     a44:	00261f13          	slli	t5,a2,0x2
     a48:	41ff0fb3          	sub	t6,t5,t6
     a4c:	01f30633          	add	a2,t1,t6
     a50:	01061313          	slli	t1,a2,0x10
     a54:	01035493          	srli	s1,t1,0x10
     a58:	02b05463          	blez	a1,0xa80
     a5c:	00050613          	mv	a2,a0
     a60:	21800593          	li	a1,536
     a64:	00040513          	mv	a0,s0
     a68:	01c12623          	sw	t3,12(sp)
     a6c:	00d12423          	sw	a3,8(sp)
     a70:	91dff0ef          	jal	0x38c
     a74:	00c12e03          	lw	t3,12(sp)
     a78:	00812683          	lw	a3,8(sp)
     a7c:	00050413          	mv	s0,a0
     a80:	00042503          	lw	a0,0(s0)
     a84:	00040913          	mv	s2,s0
     a88:	00052983          	lw	s3,0(a0)
     a8c:	00452703          	lw	a4,4(a0)
     a90:	0049a883          	lw	a7,4(s3)
     a94:	0009ae83          	lw	t4,0(s3)
     a98:	01152223          	sw	a7,4(a0)
     a9c:	00e9a223          	sw	a4,4(s3)
     aa0:	01d52023          	sw	t4,0(a0)
     aa4:	0009a023          	sw	zero,0(s3)
     aa8:	0006d863          	bgez	a3,0xab8
     aac:	0b40006f          	j	0xb60
     ab0:	00092903          	lw	s2,0(s2)
     ab4:	0a090e63          	beqz	s2,0xb70
     ab8:	00492783          	lw	a5,4(s2)
     abc:	00279283          	lh	t0,2(a5)
     ac0:	fed298e3          	bne	t0,a3,0xab0
     ac4:	00442383          	lw	t2,4(s0)
     ac8:	00048593          	mv	a1,s1
     acc:	00039503          	lh	a0,0(t2)
     ad0:	299030ef          	jal	0x4568
     ad4:	00092903          	lw	s2,0(s2)
     ad8:	00050493          	mv	s1,a0
     adc:	fe0914e3          	bnez	s2,0xac4
     ae0:	00042903          	lw	s2,0(s0)
     ae4:	0049a703          	lw	a4,4(s3)
     ae8:	00492f03          	lw	t5,4(s2)
     aec:	00092f83          	lw	t6,0(s2)
     af0:	01e9a223          	sw	t5,4(s3)
     af4:	00e92223          	sw	a4,4(s2)
     af8:	01f9a023          	sw	t6,0(s3)
     afc:	00040513          	mv	a0,s0
     b00:	01392023          	sw	s3,0(s2)
     b04:	09000593          	li	a1,144
     b08:	00000613          	li	a2,0
     b0c:	881ff0ef          	jal	0x38c
     b10:	00052403          	lw	s0,0(a0)
     b14:	00050993          	mv	s3,a0
     b18:	02040063          	beqz	s0,0xb38
     b1c:	0049a303          	lw	t1,4(s3)
     b20:	00048593          	mv	a1,s1
     b24:	00031503          	lh	a0,0(t1)
     b28:	241030ef          	jal	0x4568
     b2c:	00042403          	lw	s0,0(s0)
     b30:	00050493          	mv	s1,a0
     b34:	fe0414e3          	bnez	s0,0xb1c
     b38:	02c12083          	lw	ra,44(sp)
     b3c:	02812403          	lw	s0,40(sp)
     b40:	02012903          	lw	s2,32(sp)
     b44:	01c12983          	lw	s3,28(sp)
     b48:	00048513          	mv	a0,s1
     b4c:	02412483          	lw	s1,36(sp)
     b50:	03010113          	addi	sp,sp,48
     b54:	00008067          	ret
     b58:	00092903          	lw	s2,0(s2)
     b5c:	00090a63          	beqz	s2,0xb70
     b60:	00492683          	lw	a3,4(s2)
     b64:	0006c803          	lbu	a6,0(a3)
     b68:	ff0e18e3          	bne	t3,a6,0xb58
     b6c:	f59ff06f          	j	0xac4
     b70:	00042903          	lw	s2,0(s0)
     b74:	f6090ae3          	beqz	s2,0xae8
     b78:	00442383          	lw	t2,4(s0)
     b7c:	00048593          	mv	a1,s1
     b80:	00039503          	lh	a0,0(t2)
     b84:	1e5030ef          	jal	0x4568
     b88:	00092903          	lw	s2,0(s2)
     b8c:	00050493          	mv	s1,a0
     b90:	f2091ae3          	bnez	s2,0xac4
     b94:	f4dff06f          	j	0xae0
     b98:	00058693          	mv	a3,a1
     b9c:	00000493          	li	s1,0
     ba0:	eb9ff06f          	j	0xa58
     ba4:	02040263          	beqz	s0,0xbc8
     ba8:	00058813          	mv	a6,a1
     bac:	00040793          	mv	a5,s0
     bb0:	00000313          	li	t1,0
     bb4:	00000893          	li	a7,0
     bb8:	00000f93          	li	t6,0
     bbc:	00000e93          	li	t4,0
     bc0:	00000613          	li	a2,0
     bc4:	e45ff06f          	j	0xa08
     bc8:	00002783          	lw	a5,0(zero) # 0x0
     bcc:	00100073          	ebreak
     bd0:	fe010113          	addi	sp,sp,-32
     bd4:	00812c23          	sw	s0,24(sp)
     bd8:	00058413          	mv	s0,a1
     bdc:	01400593          	li	a1,20
     be0:	00912a23          	sw	s1,20(sp)
     be4:	00112e23          	sw	ra,28(sp)
     be8:	00060493          	mv	s1,a2
     bec:	5d1010ef          	jal	0x29bc
     bf0:	ffe50513          	addi	a0,a0,-2
     bf4:	00351693          	slli	a3,a0,0x3
     bf8:	00d402b3          	add	t0,s0,a3
     bfc:	ffff87b7          	lui	a5,0xffff8
     c00:	00042023          	sw	zero,0(s0)
     c04:	00542223          	sw	t0,4(s0)
     c08:	08078313          	addi	t1,a5,128 # 0xffff8080
     c0c:	00251593          	slli	a1,a0,0x2
     c10:	00629023          	sh	t1,0(t0)
     c14:	00029123          	sh	zero,2(t0)
     c18:	01040793          	addi	a5,s0,16
     c1c:	00b283b3          	add	t2,t0,a1
     c20:	00428813          	addi	a6,t0,4
     c24:	3057f863          	bgeu	a5,t0,0xf34
     c28:	00828713          	addi	a4,t0,8
     c2c:	30777c63          	bgeu	a4,t2,0xf44
     c30:	ffff8637          	lui	a2,0xffff8
     c34:	00840893          	addi	a7,s0,8
     c38:	00042423          	sw	zero,8(s0)
     c3c:	01042623          	sw	a6,12(s0)
     c40:	01142023          	sw	a7,0(s0)
     c44:	fff64e13          	not	t3,a2
     c48:	fff00e93          	li	t4,-1
     c4c:	01c29323          	sh	t3,6(t0)
     c50:	01d29223          	sh	t4,4(t0)
     c54:	00000313          	li	t1,0
     c58:	24050863          	beqz	a0,0xea8
     c5c:	ffff8f37          	lui	t5,0xffff8
     c60:	00357f93          	andi	t6,a0,3
     c64:	ffff4693          	not	a3,t5
     c68:	0e0f8e63          	beqz	t6,0xd64
     c6c:	00100593          	li	a1,1
     c70:	0abf8063          	beq	t6,a1,0xd10
     c74:	00200813          	li	a6,2
     c78:	050f8463          	beq	t6,a6,0xcc0
     c7c:	00878313          	addi	t1,a5,8
     c80:	02537e63          	bgeu	t1,t0,0xcbc
     c84:	00470e13          	addi	t3,a4,4
     c88:	027e7a63          	bgeu	t3,t2,0xcbc
     c8c:	0117a023          	sw	a7,0(a5)
     c90:	00349893          	slli	a7,s1,0x3
     c94:	0788f613          	andi	a2,a7,120
     c98:	00f42023          	sw	a5,0(s0)
     c9c:	00861e93          	slli	t4,a2,0x8
     ca0:	00e7a223          	sw	a4,4(a5)
     ca4:	01d60f33          	add	t5,a2,t4
     ca8:	00078893          	mv	a7,a5
     cac:	00d71123          	sh	a3,2(a4)
     cb0:	01e71023          	sh	t5,0(a4)
     cb4:	00030793          	mv	a5,t1
     cb8:	000e0713          	mv	a4,t3
     cbc:	00100313          	li	t1,1
     cc0:	00878f93          	addi	t6,a5,8
     cc4:	045ff463          	bgeu	t6,t0,0xd0c
     cc8:	00470593          	addi	a1,a4,4
     ccc:	0475f063          	bgeu	a1,t2,0xd0c
     cd0:	00934833          	xor	a6,t1,s1
     cd4:	00381e13          	slli	t3,a6,0x3
     cd8:	0117a023          	sw	a7,0(a5)
     cdc:	078e7613          	andi	a2,t3,120
     ce0:	00737893          	andi	a7,t1,7
     ce4:	01166eb3          	or	t4,a2,a7
     ce8:	00f42023          	sw	a5,0(s0)
     cec:	008e9f13          	slli	t5,t4,0x8
     cf0:	00e7a223          	sw	a4,4(a5)
     cf4:	01ee8833          	add	a6,t4,t5
     cf8:	00078893          	mv	a7,a5
     cfc:	00d71123          	sh	a3,2(a4)
     d00:	01071023          	sh	a6,0(a4)
     d04:	000f8793          	mv	a5,t6
     d08:	00058713          	mv	a4,a1
     d0c:	00130313          	addi	t1,t1,1
     d10:	00878f93          	addi	t6,a5,8
     d14:	045ff463          	bgeu	t6,t0,0xd5c
     d18:	00470593          	addi	a1,a4,4
     d1c:	0475f063          	bgeu	a1,t2,0xd5c
     d20:	00934e33          	xor	t3,t1,s1
     d24:	003e1613          	slli	a2,t3,0x3
     d28:	0117a023          	sw	a7,0(a5)
     d2c:	07867e93          	andi	t4,a2,120
     d30:	00737893          	andi	a7,t1,7
     d34:	011eef33          	or	t5,t4,a7
     d38:	00f42023          	sw	a5,0(s0)
     d3c:	008f1813          	slli	a6,t5,0x8
     d40:	00e7a223          	sw	a4,4(a5)
     d44:	010f0e33          	add	t3,t5,a6
     d48:	00078893          	mv	a7,a5
     d4c:	00d71123          	sh	a3,2(a4)
     d50:	01c71023          	sh	t3,0(a4)
     d54:	000f8793          	mv	a5,t6
     d58:	00058713          	mv	a4,a1
     d5c:	00130313          	addi	t1,t1,1
     d60:	14650463          	beq	a0,t1,0xea8
     d64:	00878f93          	addi	t6,a5,8
     d68:	045ff463          	bgeu	t6,t0,0xdb0
     d6c:	00470593          	addi	a1,a4,4
     d70:	0475f063          	bgeu	a1,t2,0xdb0
     d74:	00934633          	xor	a2,t1,s1
     d78:	00361e93          	slli	t4,a2,0x3
     d7c:	0117a023          	sw	a7,0(a5)
     d80:	078eff13          	andi	t5,t4,120
     d84:	00737893          	andi	a7,t1,7
     d88:	011f6833          	or	a6,t5,a7
     d8c:	00f42023          	sw	a5,0(s0)
     d90:	00881e13          	slli	t3,a6,0x8
     d94:	00e7a223          	sw	a4,4(a5)
     d98:	01c80633          	add	a2,a6,t3
     d9c:	00078893          	mv	a7,a5
     da0:	00d71123          	sh	a3,2(a4)
     da4:	00c71023          	sh	a2,0(a4)
     da8:	000f8793          	mv	a5,t6
     dac:	00058713          	mv	a4,a1
     db0:	00878f93          	addi	t6,a5,8
     db4:	00130313          	addi	t1,t1,1
     db8:	045ff463          	bgeu	t6,t0,0xe00
     dbc:	00470593          	addi	a1,a4,4
     dc0:	0475f063          	bgeu	a1,t2,0xe00
     dc4:	00934eb3          	xor	t4,t1,s1
     dc8:	003e9f13          	slli	t5,t4,0x3
     dcc:	0117a023          	sw	a7,0(a5)
     dd0:	078f7813          	andi	a6,t5,120
     dd4:	00737893          	andi	a7,t1,7
     dd8:	01186e33          	or	t3,a6,a7
     ddc:	00f42023          	sw	a5,0(s0)
     de0:	008e1613          	slli	a2,t3,0x8
     de4:	00e7a223          	sw	a4,4(a5)
     de8:	00ce0eb3          	add	t4,t3,a2
     dec:	00078893          	mv	a7,a5
     df0:	00d71123          	sh	a3,2(a4)
     df4:	01d71023          	sh	t4,0(a4)
     df8:	000f8793          	mv	a5,t6
     dfc:	00058713          	mv	a4,a1
     e00:	00878f93          	addi	t6,a5,8
     e04:	045ff663          	bgeu	t6,t0,0xe50
     e08:	00470593          	addi	a1,a4,4
     e0c:	0475f263          	bgeu	a1,t2,0xe50
     e10:	00130f13          	addi	t5,t1,1
     e14:	009f4833          	xor	a6,t5,s1
     e18:	0117a023          	sw	a7,0(a5)
     e1c:	00381893          	slli	a7,a6,0x3
     e20:	0788fe13          	andi	t3,a7,120
     e24:	007f7613          	andi	a2,t5,7
     e28:	00ce6eb3          	or	t4,t3,a2
     e2c:	00f42023          	sw	a5,0(s0)
     e30:	008e9f13          	slli	t5,t4,0x8
     e34:	00e7a223          	sw	a4,4(a5)
     e38:	01ee8833          	add	a6,t4,t5
     e3c:	00078893          	mv	a7,a5
     e40:	00d71123          	sh	a3,2(a4)
     e44:	01071023          	sh	a6,0(a4)
     e48:	000f8793          	mv	a5,t6
     e4c:	00058713          	mv	a4,a1
     e50:	00878f93          	addi	t6,a5,8
     e54:	045ff663          	bgeu	t6,t0,0xea0
     e58:	00470593          	addi	a1,a4,4
     e5c:	0475f263          	bgeu	a1,t2,0xea0
     e60:	0117a023          	sw	a7,0(a5)
     e64:	00230893          	addi	a7,t1,2
     e68:	0098ce33          	xor	t3,a7,s1
     e6c:	003e1613          	slli	a2,t3,0x3
     e70:	0078ff13          	andi	t5,a7,7
     e74:	07867e93          	andi	t4,a2,120
     e78:	01eee833          	or	a6,t4,t5
     e7c:	00f42023          	sw	a5,0(s0)
     e80:	00881893          	slli	a7,a6,0x8
     e84:	00e7a223          	sw	a4,4(a5)
     e88:	01180e33          	add	t3,a6,a7
     e8c:	00d71123          	sh	a3,2(a4)
     e90:	00078893          	mv	a7,a5
     e94:	01c71023          	sh	t3,0(a4)
     e98:	000f8793          	mv	a5,t6
     e9c:	00058713          	mv	a4,a1
     ea0:	00330313          	addi	t1,t1,3
     ea4:	ec6510e3          	bne	a0,t1,0xd64
     ea8:	0008a283          	lw	t0,0(a7)
     eac:	06028463          	beqz	t0,0xf14
     eb0:	00500593          	li	a1,5
     eb4:	01112623          	sw	a7,12(sp)
     eb8:	00512423          	sw	t0,8(sp)
     ebc:	301010ef          	jal	0x29bc
     ec0:	000043b7          	lui	t2,0x4
     ec4:	00812683          	lw	a3,8(sp)
     ec8:	00c12703          	lw	a4,12(sp)
     ecc:	fff38613          	addi	a2,t2,-1 # 0x3fff
     ed0:	20000593          	li	a1,512
     ed4:	00100793          	li	a5,1
     ed8:	0080006f          	j	0xee0
     edc:	00080693          	mv	a3,a6
     ee0:	7005ff93          	andi	t6,a1,1792
     ee4:	00f4ceb3          	xor	t4,s1,a5
     ee8:	01dfef33          	or	t5,t6,t4
     eec:	00472e03          	lw	t3,4(a4)
     ef0:	00cf78b3          	and	a7,t5,a2
     ef4:	00a7f463          	bgeu	a5,a0,0xefc
     ef8:	00078893          	mv	a7,a5
     efc:	0006a803          	lw	a6,0(a3)
     f00:	011e1123          	sh	a7,2(t3)
     f04:	00178793          	addi	a5,a5,1
     f08:	10058593          	addi	a1,a1,256
     f0c:	00068713          	mv	a4,a3
     f10:	fc0816e3          	bnez	a6,0xedc
     f14:	00040513          	mv	a0,s0
     f18:	01812403          	lw	s0,24(sp)
     f1c:	01c12083          	lw	ra,28(sp)
     f20:	09000593          	li	a1,144
     f24:	01412483          	lw	s1,20(sp)
     f28:	00000613          	li	a2,0
     f2c:	02010113          	addi	sp,sp,32
     f30:	c5cff06f          	j	0x38c
     f34:	00042883          	lw	a7,0(s0)
     f38:	00080713          	mv	a4,a6
     f3c:	00840793          	addi	a5,s0,8
     f40:	d15ff06f          	j	0xc54
     f44:	00042883          	lw	a7,0(s0)
     f48:	00080713          	mv	a4,a6
     f4c:	00840793          	addi	a5,s0,8
     f50:	d05ff06f          	j	0xc54
     f54:	fe010113          	addi	sp,sp,-32
     f58:	01312623          	sw	s3,12(sp)
     f5c:	01c52983          	lw	s3,28(a0)
     f60:	00112e23          	sw	ra,28(sp)
     f64:	02052c23          	sw	zero,56(a0)
     f68:	02052e23          	sw	zero,60(a0)
     f6c:	1e098263          	beqz	s3,0x1150
     f70:	00812c23          	sw	s0,24(sp)
     f74:	00912a23          	sw	s1,20(sp)
     f78:	01212823          	sw	s2,16(sp)
     f7c:	0039f793          	andi	a5,s3,3
     f80:	00050413          	mv	s0,a0
     f84:	00000493          	li	s1,0
     f88:	0a078e63          	beqz	a5,0x1044
     f8c:	00100913          	li	s2,1
     f90:	07278c63          	beq	a5,s2,0x1008
     f94:	00200713          	li	a4,2
     f98:	02e78c63          	beq	a5,a4,0xfd0
     f9c:	00090593          	mv	a1,s2
     fa0:	93dff0ef          	jal	0x8dc
     fa4:	03845583          	lhu	a1,56(s0)
     fa8:	00090493          	mv	s1,s2
     fac:	775020ef          	jal	0x3f20
     fb0:	02a41c23          	sh	a0,56(s0)
     fb4:	fff00593          	li	a1,-1
     fb8:	00040513          	mv	a0,s0
     fbc:	921ff0ef          	jal	0x8dc
     fc0:	03845583          	lhu	a1,56(s0)
     fc4:	75d020ef          	jal	0x3f20
     fc8:	02a41c23          	sh	a0,56(s0)
     fcc:	02a41d23          	sh	a0,58(s0)
     fd0:	00100593          	li	a1,1
     fd4:	00040513          	mv	a0,s0
     fd8:	905ff0ef          	jal	0x8dc
     fdc:	03845583          	lhu	a1,56(s0)
     fe0:	741020ef          	jal	0x3f20
     fe4:	02a41c23          	sh	a0,56(s0)
     fe8:	fff00593          	li	a1,-1
     fec:	00040513          	mv	a0,s0
     ff0:	8edff0ef          	jal	0x8dc
     ff4:	03845583          	lhu	a1,56(s0)
     ff8:	729020ef          	jal	0x3f20
     ffc:	02a41c23          	sh	a0,56(s0)
    1000:	18048063          	beqz	s1,0x1180
    1004:	00148493          	addi	s1,s1,1
    1008:	00100593          	li	a1,1
    100c:	00040513          	mv	a0,s0
    1010:	8cdff0ef          	jal	0x8dc
    1014:	03845583          	lhu	a1,56(s0)
    1018:	709020ef          	jal	0x3f20
    101c:	02a41c23          	sh	a0,56(s0)
    1020:	fff00593          	li	a1,-1
    1024:	00040513          	mv	a0,s0
    1028:	8b5ff0ef          	jal	0x8dc
    102c:	03845583          	lhu	a1,56(s0)
    1030:	6f1020ef          	jal	0x3f20
    1034:	02a41c23          	sh	a0,56(s0)
    1038:	12048c63          	beqz	s1,0x1170
    103c:	00148493          	addi	s1,s1,1
    1040:	14998663          	beq	s3,s1,0x118c
    1044:	01412423          	sw	s4,8(sp)
    1048:	00100593          	li	a1,1
    104c:	00040513          	mv	a0,s0
    1050:	88dff0ef          	jal	0x8dc
    1054:	03845583          	lhu	a1,56(s0)
    1058:	6c9020ef          	jal	0x3f20
    105c:	02a41c23          	sh	a0,56(s0)
    1060:	fff00593          	li	a1,-1
    1064:	00040513          	mv	a0,s0
    1068:	875ff0ef          	jal	0x8dc
    106c:	03845583          	lhu	a1,56(s0)
    1070:	6b1020ef          	jal	0x3f20
    1074:	00050293          	mv	t0,a0
    1078:	00100593          	li	a1,1
    107c:	02541c23          	sh	t0,56(s0)
    1080:	00040513          	mv	a0,s0
    1084:	00b48933          	add	s2,s1,a1
    1088:	00049463          	bnez	s1,0x1090
    108c:	02541d23          	sh	t0,58(s0)
    1090:	84dff0ef          	jal	0x8dc
    1094:	03845583          	lhu	a1,56(s0)
    1098:	689020ef          	jal	0x3f20
    109c:	02a41c23          	sh	a0,56(s0)
    10a0:	fff00593          	li	a1,-1
    10a4:	00040513          	mv	a0,s0
    10a8:	835ff0ef          	jal	0x8dc
    10ac:	03845583          	lhu	a1,56(s0)
    10b0:	671020ef          	jal	0x3f20
    10b4:	02a41c23          	sh	a0,56(s0)
    10b8:	00091463          	bnez	s2,0x10c0
    10bc:	02a41d23          	sh	a0,58(s0)
    10c0:	00100593          	li	a1,1
    10c4:	00040513          	mv	a0,s0
    10c8:	00b904b3          	add	s1,s2,a1
    10cc:	811ff0ef          	jal	0x8dc
    10d0:	03845583          	lhu	a1,56(s0)
    10d4:	00290a13          	addi	s4,s2,2
    10d8:	649020ef          	jal	0x3f20
    10dc:	02a41c23          	sh	a0,56(s0)
    10e0:	fff00593          	li	a1,-1
    10e4:	00040513          	mv	a0,s0
    10e8:	ff4ff0ef          	jal	0x8dc
    10ec:	03845583          	lhu	a1,56(s0)
    10f0:	631020ef          	jal	0x3f20
    10f4:	00050313          	mv	t1,a0
    10f8:	02641c23          	sh	t1,56(s0)
    10fc:	00100593          	li	a1,1
    1100:	00040513          	mv	a0,s0
    1104:	00049463          	bnez	s1,0x110c
    1108:	02641d23          	sh	t1,58(s0)
    110c:	fd0ff0ef          	jal	0x8dc
    1110:	03845583          	lhu	a1,56(s0)
    1114:	00390493          	addi	s1,s2,3
    1118:	609020ef          	jal	0x3f20
    111c:	02a41c23          	sh	a0,56(s0)
    1120:	fff00593          	li	a1,-1
    1124:	00040513          	mv	a0,s0
    1128:	fb4ff0ef          	jal	0x8dc
    112c:	03845583          	lhu	a1,56(s0)
    1130:	5f1020ef          	jal	0x3f20
    1134:	02a41c23          	sh	a0,56(s0)
    1138:	020a0663          	beqz	s4,0x1164
    113c:	f09996e3          	bne	s3,s1,0x1048
    1140:	01812403          	lw	s0,24(sp)
    1144:	01412483          	lw	s1,20(sp)
    1148:	01012903          	lw	s2,16(sp)
    114c:	00812a03          	lw	s4,8(sp)
    1150:	01c12083          	lw	ra,28(sp)
    1154:	00c12983          	lw	s3,12(sp)
    1158:	00000513          	li	a0,0
    115c:	02010113          	addi	sp,sp,32
    1160:	00008067          	ret
    1164:	02a41d23          	sh	a0,58(s0)
    1168:	ee9990e3          	bne	s3,s1,0x1048
    116c:	fd5ff06f          	j	0x1140
    1170:	02a41d23          	sh	a0,58(s0)
    1174:	00148493          	addi	s1,s1,1
    1178:	ec9996e3          	bne	s3,s1,0x1044
    117c:	0100006f          	j	0x118c
    1180:	02a41d23          	sh	a0,58(s0)
    1184:	00148493          	addi	s1,s1,1
    1188:	e81ff06f          	j	0x1008
    118c:	01812403          	lw	s0,24(sp)
    1190:	01412483          	lw	s1,20(sp)
    1194:	01012903          	lw	s2,16(sp)
    1198:	fb9ff06f          	j	0x1150
    119c:	fb010113          	addi	sp,sp,-80
    11a0:	05212023          	sw	s2,64(sp)
    11a4:	03612823          	sw	s6,48(sp)
    11a8:	04112623          	sw	ra,76(sp)
    11ac:	04812423          	sw	s0,72(sp)
    11b0:	04912223          	sw	s1,68(sp)
    11b4:	03712623          	sw	s7,44(sp)
    11b8:	00d12023          	sw	a3,0(sp)
    11bc:	00050913          	mv	s2,a0
    11c0:	00060b13          	mv	s6,a2
    11c4:	00061463          	bnez	a2,0x11cc
    11c8:	00100b13          	li	s6,1
    11cc:	fff58b93          	addi	s7,a1,-1
    11d0:	ffcbf293          	andi	t0,s7,-4
    11d4:	00428793          	addi	a5,t0,4
    11d8:	00f12223          	sw	a5,4(sp)
    11dc:	00000413          	li	s0,0
    11e0:	2e090a63          	beqz	s2,0x14d4
    11e4:	00040493          	mv	s1,s0
    11e8:	00140413          	addi	s0,s0,1
    11ec:	00040593          	mv	a1,s0
    11f0:	00040513          	mv	a0,s0
    11f4:	79c010ef          	jal	0x2990
    11f8:	00351513          	slli	a0,a0,0x3
    11fc:	ff2564e3          	bltu	a0,s2,0x11e4
    1200:	00048593          	mv	a1,s1
    1204:	00048513          	mv	a0,s1
    1208:	788010ef          	jal	0x2990
    120c:	00151393          	slli	t2,a0,0x1
    1210:	00712423          	sw	t2,8(sp)
    1214:	00412583          	lw	a1,4(sp)
    1218:	00812703          	lw	a4,8(sp)
    121c:	00e58bb3          	add	s7,a1,a4
    1220:	2e048463          	beqz	s1,0x1508
    1224:	03312e23          	sw	s3,60(sp)
    1228:	03412c23          	sw	s4,56(sp)
    122c:	03512a23          	sw	s5,52(sp)
    1230:	03812423          	sw	s8,40(sp)
    1234:	03912223          	sw	s9,36(sp)
    1238:	03a12023          	sw	s10,32(sp)
    123c:	01b12e23          	sw	s11,28(sp)
    1240:	00912623          	sw	s1,12(sp)
    1244:	00412603          	lw	a2,4(sp)
    1248:	00148913          	addi	s2,s1,1
    124c:	00149c13          	slli	s8,s1,0x1
    1250:	000b8993          	mv	s3,s7
    1254:	00000a13          	li	s4,0
    1258:	00100d93          	li	s11,1
    125c:	41760433          	sub	s0,a2,s7
    1260:	41b906b3          	sub	a3,s2,s11
    1264:	0036f813          	andi	a6,a3,3
    1268:	000d8a93          	mv	s5,s11
    126c:	00098d13          	mv	s10,s3
    1270:	0e080263          	beqz	a6,0x1354
    1274:	00100893          	li	a7,1
    1278:	09180a63          	beq	a6,a7,0x130c
    127c:	00200c93          	li	s9,2
    1280:	05980463          	beq	a6,s9,0x12c8
    1284:	000b0513          	mv	a0,s6
    1288:	000d8593          	mv	a1,s11
    128c:	704010ef          	jal	0x2990
    1290:	41f55b13          	srai	s6,a0,0x1f
    1294:	010b5e13          	srli	t3,s6,0x10
    1298:	01c50d33          	add	s10,a0,t3
    129c:	010d1e93          	slli	t4,s10,0x10
    12a0:	010edf13          	srli	t5,t4,0x10
    12a4:	41cf0b33          	sub	s6,t5,t3
    12a8:	016d8fb3          	add	t6,s11,s6
    12ac:	01bf82b3          	add	t0,t6,s11
    12b0:	01f99023          	sh	t6,0(s3)
    12b4:	0ff2f793          	zext.b	a5,t0
    12b8:	01340333          	add	t1,s0,s3
    12bc:	00298d13          	addi	s10,s3,2
    12c0:	001d8d93          	addi	s11,s11,1
    12c4:	00f31023          	sh	a5,0(t1)
    12c8:	000d8593          	mv	a1,s11
    12cc:	000b0513          	mv	a0,s6
    12d0:	6c0010ef          	jal	0x2990
    12d4:	41f55393          	srai	t2,a0,0x1f
    12d8:	0103d593          	srli	a1,t2,0x10
    12dc:	00b50533          	add	a0,a0,a1
    12e0:	01051713          	slli	a4,a0,0x10
    12e4:	01075613          	srli	a2,a4,0x10
    12e8:	40b60b33          	sub	s6,a2,a1
    12ec:	016d88b3          	add	a7,s11,s6
    12f0:	01b886b3          	add	a3,a7,s11
    12f4:	01a40833          	add	a6,s0,s10
    12f8:	011d1023          	sh	a7,0(s10)
    12fc:	0ff6fc93          	zext.b	s9,a3
    1300:	001d8d93          	addi	s11,s11,1
    1304:	01981023          	sh	s9,0(a6) # 0xffff8000
    1308:	002d0d13          	addi	s10,s10,2
    130c:	000b0513          	mv	a0,s6
    1310:	000d8593          	mv	a1,s11
    1314:	67c010ef          	jal	0x2990
    1318:	41f55b13          	srai	s6,a0,0x1f
    131c:	010b5e13          	srli	t3,s6,0x10
    1320:	01c50eb3          	add	t4,a0,t3
    1324:	010e9f13          	slli	t5,t4,0x10
    1328:	010f5f93          	srli	t6,t5,0x10
    132c:	41cf8b33          	sub	s6,t6,t3
    1330:	016d87b3          	add	a5,s11,s6
    1334:	01b78333          	add	t1,a5,s11
    1338:	01a402b3          	add	t0,s0,s10
    133c:	00fd1023          	sh	a5,0(s10)
    1340:	0ff37393          	zext.b	t2,t1
    1344:	001d8d93          	addi	s11,s11,1
    1348:	00729023          	sh	t2,0(t0)
    134c:	002d0d13          	addi	s10,s10,2
    1350:	112d8063          	beq	s11,s2,0x1450
    1354:	000d8593          	mv	a1,s11
    1358:	000b0513          	mv	a0,s6
    135c:	634010ef          	jal	0x2990
    1360:	41f55593          	srai	a1,a0,0x1f
    1364:	0105d713          	srli	a4,a1,0x10
    1368:	00e50533          	add	a0,a0,a4
    136c:	01051613          	slli	a2,a0,0x10
    1370:	01065893          	srli	a7,a2,0x10
    1374:	40e88533          	sub	a0,a7,a4
    1378:	00ad8e33          	add	t3,s11,a0
    137c:	01be06b3          	add	a3,t3,s11
    1380:	01a40833          	add	a6,s0,s10
    1384:	001d8c93          	addi	s9,s11,1
    1388:	01cd1023          	sh	t3,0(s10)
    138c:	0ff6fe93          	zext.b	t4,a3
    1390:	01d81023          	sh	t4,0(a6)
    1394:	000c8593          	mv	a1,s9
    1398:	5f8010ef          	jal	0x2990
    139c:	41f55f13          	srai	t5,a0,0x1f
    13a0:	010f5f93          	srli	t6,t5,0x10
    13a4:	01f502b3          	add	t0,a0,t6
    13a8:	01029793          	slli	a5,t0,0x10
    13ac:	0107d313          	srli	t1,a5,0x10
    13b0:	41f30533          	sub	a0,t1,t6
    13b4:	00ac85b3          	add	a1,s9,a0
    13b8:	01958733          	add	a4,a1,s9
    13bc:	01a403b3          	add	t2,s0,s10
    13c0:	002d8b13          	addi	s6,s11,2
    13c4:	0ff77613          	zext.b	a2,a4
    13c8:	00bd1123          	sh	a1,2(s10)
    13cc:	00c39123          	sh	a2,2(t2)
    13d0:	000b0593          	mv	a1,s6
    13d4:	5bc010ef          	jal	0x2990
    13d8:	41f55893          	srai	a7,a0,0x1f
    13dc:	0108de13          	srli	t3,a7,0x10
    13e0:	01c50533          	add	a0,a0,t3
    13e4:	01051813          	slli	a6,a0,0x10
    13e8:	01085693          	srli	a3,a6,0x10
    13ec:	41c68533          	sub	a0,a3,t3
    13f0:	00ab0f33          	add	t5,s6,a0
    13f4:	016f0fb3          	add	t6,t5,s6
    13f8:	003d8c93          	addi	s9,s11,3
    13fc:	01a40eb3          	add	t4,s0,s10
    1400:	01ed1223          	sh	t5,4(s10)
    1404:	0ffff293          	zext.b	t0,t6
    1408:	000c8593          	mv	a1,s9
    140c:	005e9223          	sh	t0,4(t4)
    1410:	580010ef          	jal	0x2990
    1414:	41f55793          	srai	a5,a0,0x1f
    1418:	0107d313          	srli	t1,a5,0x10
    141c:	006503b3          	add	t2,a0,t1
    1420:	01039593          	slli	a1,t2,0x10
    1424:	0105d713          	srli	a4,a1,0x10
    1428:	40670b33          	sub	s6,a4,t1
    142c:	016c88b3          	add	a7,s9,s6
    1430:	01988e33          	add	t3,a7,s9
    1434:	01a40633          	add	a2,s0,s10
    1438:	011d1323          	sh	a7,6(s10)
    143c:	0ffe7513          	zext.b	a0,t3
    1440:	004d8d93          	addi	s11,s11,4
    1444:	00a61323          	sh	a0,6(a2) # 0xffff8006
    1448:	008d0d13          	addi	s10,s10,8
    144c:	f12d94e3          	bne	s11,s2,0x1354
    1450:	001a0a13          	addi	s4,s4,1
    1454:	01548db3          	add	s11,s1,s5
    1458:	00990933          	add	s2,s2,s1
    145c:	018989b3          	add	s3,s3,s8
    1460:	e09a10e3          	bne	s4,s1,0x1260
    1464:	03c12983          	lw	s3,60(sp)
    1468:	03812a03          	lw	s4,56(sp)
    146c:	03412a83          	lw	s5,52(sp)
    1470:	02812c03          	lw	s8,40(sp)
    1474:	02412c83          	lw	s9,36(sp)
    1478:	02012d03          	lw	s10,32(sp)
    147c:	01c12d83          	lw	s11,28(sp)
    1480:	00812403          	lw	s0,8(sp)
    1484:	00012783          	lw	a5,0(sp)
    1488:	00412f83          	lw	t6,4(sp)
    148c:	008b8833          	add	a6,s7,s0
    1490:	0177a423          	sw	s7,8(a5)
    1494:	fff80693          	addi	a3,a6,-1
    1498:	00c12b83          	lw	s7,12(sp)
    149c:	04c12083          	lw	ra,76(sp)
    14a0:	04812403          	lw	s0,72(sp)
    14a4:	ffc6fe93          	andi	t4,a3,-4
    14a8:	004e8f13          	addi	t5,t4,4
    14ac:	0177a023          	sw	s7,0(a5)
    14b0:	01e7a623          	sw	t5,12(a5)
    14b4:	01f7a223          	sw	t6,4(a5)
    14b8:	04012903          	lw	s2,64(sp)
    14bc:	03012b03          	lw	s6,48(sp)
    14c0:	02c12b83          	lw	s7,44(sp)
    14c4:	00048513          	mv	a0,s1
    14c8:	04412483          	lw	s1,68(sp)
    14cc:	05010113          	addi	sp,sp,80
    14d0:	00008067          	ret
    14d4:	fff00493          	li	s1,-1
    14d8:	00200313          	li	t1,2
    14dc:	03312e23          	sw	s3,60(sp)
    14e0:	03412c23          	sw	s4,56(sp)
    14e4:	03512a23          	sw	s5,52(sp)
    14e8:	03812423          	sw	s8,40(sp)
    14ec:	03912223          	sw	s9,36(sp)
    14f0:	03a12023          	sw	s10,32(sp)
    14f4:	01b12e23          	sw	s11,28(sp)
    14f8:	00912623          	sw	s1,12(sp)
    14fc:	00628b93          	addi	s7,t0,6
    1500:	00612423          	sw	t1,8(sp)
    1504:	d41ff06f          	j	0x1244
    1508:	00012423          	sw	zero,8(sp)
    150c:	00012623          	sw	zero,12(sp)
    1510:	f71ff06f          	j	0x1480
    1514:	fb010113          	addi	sp,sp,-80
    1518:	03412c23          	sw	s4,56(sp)
    151c:	03512a23          	sw	s5,52(sp)
    1520:	04112623          	sw	ra,76(sp)
    1524:	04812423          	sw	s0,72(sp)
    1528:	04912223          	sw	s1,68(sp)
    152c:	00d12623          	sw	a3,12(sp)
    1530:	00058a13          	mv	s4,a1
    1534:	00060a93          	mv	s5,a2
    1538:	3e050ae3          	beqz	a0,0x212c
    153c:	03812423          	sw	s8,40(sp)
    1540:	00151c13          	slli	s8,a0,0x1
    1544:	03912223          	sw	s9,36(sp)
    1548:	fffff2b7          	lui	t0,0xfffff
    154c:	01860cb3          	add	s9,a2,s8
    1550:	03312e23          	sw	s3,60(sp)
    1554:	05212023          	sw	s2,64(sp)
    1558:	03612823          	sw	s6,48(sp)
    155c:	03712623          	sw	s7,44(sp)
    1560:	03a12023          	sw	s10,32(sp)
    1564:	01b12e23          	sw	s11,28(sp)
    1568:	00070493          	mv	s1,a4
    156c:	000c8693          	mv	a3,s9
    1570:	00576433          	or	s0,a4,t0
    1574:	00000993          	li	s3,0
    1578:	ffec0713          	addi	a4,s8,-2
    157c:	00175313          	srli	t1,a4,0x1
    1580:	00130393          	addi	t2,t1,1
    1584:	0073f593          	andi	a1,t2,7
    1588:	418687b3          	sub	a5,a3,s8
    158c:	0a058463          	beqz	a1,0x1634
    1590:	00100613          	li	a2,1
    1594:	08c58663          	beq	a1,a2,0x1620
    1598:	00200813          	li	a6,2
    159c:	07058a63          	beq	a1,a6,0x1610
    15a0:	00300893          	li	a7,3
    15a4:	05158e63          	beq	a1,a7,0x1600
    15a8:	00400913          	li	s2,4
    15ac:	05258263          	beq	a1,s2,0x15f0
    15b0:	00500b13          	li	s6,5
    15b4:	03658663          	beq	a1,s6,0x15e0
    15b8:	00600b93          	li	s7,6
    15bc:	01758a63          	beq	a1,s7,0x15d0
    15c0:	0007dd03          	lhu	s10,0(a5)
    15c4:	00278793          	addi	a5,a5,2
    15c8:	01a48db3          	add	s11,s1,s10
    15cc:	ffb79f23          	sh	s11,-2(a5)
    15d0:	0007de03          	lhu	t3,0(a5)
    15d4:	00278793          	addi	a5,a5,2
    15d8:	01c48eb3          	add	t4,s1,t3
    15dc:	ffd79f23          	sh	t4,-2(a5)
    15e0:	0007df03          	lhu	t5,0(a5)
    15e4:	00278793          	addi	a5,a5,2
    15e8:	01e48fb3          	add	t6,s1,t5
    15ec:	fff79f23          	sh	t6,-2(a5)
    15f0:	0007d283          	lhu	t0,0(a5)
    15f4:	00278793          	addi	a5,a5,2
    15f8:	00548733          	add	a4,s1,t0
    15fc:	fee79f23          	sh	a4,-2(a5)
    1600:	0007d303          	lhu	t1,0(a5)
    1604:	00278793          	addi	a5,a5,2
    1608:	006483b3          	add	t2,s1,t1
    160c:	fe779f23          	sh	t2,-2(a5)
    1610:	0007d583          	lhu	a1,0(a5)
    1614:	00278793          	addi	a5,a5,2
    1618:	00b48633          	add	a2,s1,a1
    161c:	fec79f23          	sh	a2,-2(a5)
    1620:	0007d803          	lhu	a6,0(a5)
    1624:	00278793          	addi	a5,a5,2
    1628:	010488b3          	add	a7,s1,a6
    162c:	ff179f23          	sh	a7,-2(a5)
    1630:	06d78663          	beq	a5,a3,0x169c
    1634:	0007d903          	lhu	s2,0(a5)
    1638:	0027db03          	lhu	s6,2(a5)
    163c:	0047db83          	lhu	s7,4(a5)
    1640:	0067dd03          	lhu	s10,6(a5)
    1644:	0087dd83          	lhu	s11,8(a5)
    1648:	00a7df03          	lhu	t5,10(a5)
    164c:	00c7df83          	lhu	t6,12(a5)
    1650:	00e7d283          	lhu	t0,14(a5)
    1654:	01248eb3          	add	t4,s1,s2
    1658:	01648e33          	add	t3,s1,s6
    165c:	01748333          	add	t1,s1,s7
    1660:	01a483b3          	add	t2,s1,s10
    1664:	01b48833          	add	a6,s1,s11
    1668:	01e485b3          	add	a1,s1,t5
    166c:	01f48633          	add	a2,s1,t6
    1670:	00548733          	add	a4,s1,t0
    1674:	01d79023          	sh	t4,0(a5)
    1678:	01c79123          	sh	t3,2(a5)
    167c:	00679223          	sh	t1,4(a5)
    1680:	00779323          	sh	t2,6(a5)
    1684:	01079423          	sh	a6,8(a5)
    1688:	00b79523          	sh	a1,10(a5)
    168c:	00c79623          	sh	a2,12(a5)
    1690:	00e79723          	sh	a4,14(a5)
    1694:	01078793          	addi	a5,a5,16
    1698:	f8d79ee3          	bne	a5,a3,0x1634
    169c:	00198b13          	addi	s6,s3,1
    16a0:	018786b3          	add	a3,a5,s8
    16a4:	01650663          	beq	a0,s6,0x16b0
    16a8:	000b0993          	mv	s3,s6
    16ac:	ecdff06f          	j	0x1578
    16b0:	00000d13          	li	s10,0
    16b4:	00000d93          	li	s11,0
    16b8:	ffec0513          	addi	a0,s8,-2
    16bc:	00155893          	srli	a7,a0,0x1
    16c0:	00188793          	addi	a5,a7,1
    16c4:	002d1913          	slli	s2,s10,0x2
    16c8:	0077ff13          	andi	t5,a5,7
    16cc:	012a0bb3          	add	s7,s4,s2
    16d0:	418c8933          	sub	s2,s9,s8
    16d4:	0e0f0063          	beqz	t5,0x17b4
    16d8:	00100f93          	li	t6,1
    16dc:	0bff0e63          	beq	t5,t6,0x1798
    16e0:	00200293          	li	t0,2
    16e4:	085f0e63          	beq	t5,t0,0x1780
    16e8:	00300e93          	li	t4,3
    16ec:	07df0e63          	beq	t5,t4,0x1768
    16f0:	00400e13          	li	t3,4
    16f4:	05cf0e63          	beq	t5,t3,0x1750
    16f8:	00500313          	li	t1,5
    16fc:	026f0e63          	beq	t5,t1,0x1738
    1700:	00600393          	li	t2,6
    1704:	007f0e63          	beq	t5,t2,0x1720
    1708:	00091503          	lh	a0,0(s2)
    170c:	00048593          	mv	a1,s1
    1710:	00290913          	addi	s2,s2,2
    1714:	27c010ef          	jal	0x2990
    1718:	00aba023          	sw	a0,0(s7)
    171c:	004b8b93          	addi	s7,s7,4
    1720:	00091503          	lh	a0,0(s2)
    1724:	00048593          	mv	a1,s1
    1728:	00290913          	addi	s2,s2,2
    172c:	264010ef          	jal	0x2990
    1730:	00aba023          	sw	a0,0(s7)
    1734:	004b8b93          	addi	s7,s7,4
    1738:	00091503          	lh	a0,0(s2)
    173c:	00048593          	mv	a1,s1
    1740:	00290913          	addi	s2,s2,2
    1744:	24c010ef          	jal	0x2990
    1748:	00aba023          	sw	a0,0(s7)
    174c:	004b8b93          	addi	s7,s7,4
    1750:	00091503          	lh	a0,0(s2)
    1754:	00048593          	mv	a1,s1
    1758:	00290913          	addi	s2,s2,2
    175c:	234010ef          	jal	0x2990
    1760:	00aba023          	sw	a0,0(s7)
    1764:	004b8b93          	addi	s7,s7,4
    1768:	00091503          	lh	a0,0(s2)
    176c:	00048593          	mv	a1,s1
    1770:	00290913          	addi	s2,s2,2
    1774:	21c010ef          	jal	0x2990
    1778:	00aba023          	sw	a0,0(s7)
    177c:	004b8b93          	addi	s7,s7,4
    1780:	00091503          	lh	a0,0(s2)
    1784:	00048593          	mv	a1,s1
    1788:	00290913          	addi	s2,s2,2
    178c:	204010ef          	jal	0x2990
    1790:	00aba023          	sw	a0,0(s7)
    1794:	004b8b93          	addi	s7,s7,4
    1798:	00091503          	lh	a0,0(s2)
    179c:	00048593          	mv	a1,s1
    17a0:	00290913          	addi	s2,s2,2
    17a4:	1ec010ef          	jal	0x2990
    17a8:	00aba023          	sw	a0,0(s7)
    17ac:	004b8b93          	addi	s7,s7,4
    17b0:	092c8863          	beq	s9,s2,0x1840
    17b4:	00091503          	lh	a0,0(s2)
    17b8:	00048593          	mv	a1,s1
    17bc:	01090913          	addi	s2,s2,16
    17c0:	1d0010ef          	jal	0x2990
    17c4:	00aba023          	sw	a0,0(s7)
    17c8:	ff291503          	lh	a0,-14(s2)
    17cc:	00048593          	mv	a1,s1
    17d0:	020b8b93          	addi	s7,s7,32
    17d4:	1bc010ef          	jal	0x2990
    17d8:	feaba223          	sw	a0,-28(s7)
    17dc:	ff491503          	lh	a0,-12(s2)
    17e0:	00048593          	mv	a1,s1
    17e4:	1ac010ef          	jal	0x2990
    17e8:	feaba423          	sw	a0,-24(s7)
    17ec:	ff691503          	lh	a0,-10(s2)
    17f0:	00048593          	mv	a1,s1
    17f4:	19c010ef          	jal	0x2990
    17f8:	feaba623          	sw	a0,-20(s7)
    17fc:	ff891503          	lh	a0,-8(s2)
    1800:	00048593          	mv	a1,s1
    1804:	18c010ef          	jal	0x2990
    1808:	feaba823          	sw	a0,-16(s7)
    180c:	ffa91503          	lh	a0,-6(s2)
    1810:	00048593          	mv	a1,s1
    1814:	17c010ef          	jal	0x2990
    1818:	feabaa23          	sw	a0,-12(s7)
    181c:	ffc91503          	lh	a0,-4(s2)
    1820:	00048593          	mv	a1,s1
    1824:	16c010ef          	jal	0x2990
    1828:	feabac23          	sw	a0,-8(s7)
    182c:	ffe91503          	lh	a0,-2(s2)
    1830:	00048593          	mv	a1,s1
    1834:	15c010ef          	jal	0x2990
    1838:	feabae23          	sw	a0,-4(s7)
    183c:	f72c9ce3          	bne	s9,s2,0x17b4
    1840:	016d0d33          	add	s10,s10,s6
    1844:	018c8cb3          	add	s9,s9,s8
    1848:	013d8663          	beq	s11,s3,0x1854
    184c:	001d8d93          	addi	s11,s11,1
    1850:	e69ff06f          	j	0x16b8
    1854:	002b1b93          	slli	s7,s6,0x2
    1858:	017a0c33          	add	s8,s4,s7
    185c:	000c0593          	mv	a1,s8
    1860:	00000313          	li	t1,0
    1864:	00000793          	li	a5,0
    1868:	00000513          	li	a0,0
    186c:	00000893          	li	a7,0
    1870:	ffcb8d93          	addi	s11,s7,-4
    1874:	002dd813          	srli	a6,s11,0x2
    1878:	00180613          	addi	a2,a6,1
    187c:	00367693          	andi	a3,a2,3
    1880:	41758733          	sub	a4,a1,s7
    1884:	0e068063          	beqz	a3,0x1964
    1888:	00100f13          	li	t5,1
    188c:	05e68463          	beq	a3,t5,0x18d4
    1890:	00200f93          	li	t6,2
    1894:	03f68063          	beq	a3,t6,0x18b4
    1898:	00030293          	mv	t0,t1
    189c:	00072303          	lw	t1,0(a4)
    18a0:	006787b3          	add	a5,a5,t1
    18a4:	12f45863          	bge	s0,a5,0x19d4
    18a8:	00a50513          	addi	a0,a0,10
    18ac:	00000793          	li	a5,0
    18b0:	00470713          	addi	a4,a4,4
    18b4:	00030e13          	mv	t3,t1
    18b8:	00072303          	lw	t1,0(a4)
    18bc:	006787b3          	add	a5,a5,t1
    18c0:	10f45463          	bge	s0,a5,0x19c8
    18c4:	00a50913          	addi	s2,a0,10
    18c8:	00000793          	li	a5,0
    18cc:	00090513          	mv	a0,s2
    18d0:	00470713          	addi	a4,a4,4
    18d4:	00030d13          	mv	s10,t1
    18d8:	00072303          	lw	t1,0(a4)
    18dc:	006787b3          	add	a5,a5,t1
    18e0:	0cf45e63          	bge	s0,a5,0x19bc
    18e4:	00a50d93          	addi	s11,a0,10
    18e8:	00000793          	li	a5,0
    18ec:	010d9813          	slli	a6,s11,0x10
    18f0:	00470713          	addi	a4,a4,4
    18f4:	41085513          	srai	a0,a6,0x10
    18f8:	06e59663          	bne	a1,a4,0x1964
    18fc:	017585b3          	add	a1,a1,s7
    1900:	0f198063          	beq	s3,a7,0x19e0
    1904:	00188893          	addi	a7,a7,1
    1908:	f69ff06f          	j	0x1870
    190c:	00472f03          	lw	t5,4(a4)
    1910:	00c32333          	slt	t1,t1,a2
    1914:	006506b3          	add	a3,a0,t1
    1918:	01e78fb3          	add	t6,a5,t5
    191c:	00470713          	addi	a4,a4,4
    1920:	07f45463          	bge	s0,t6,0x1988
    1924:	00472e03          	lw	t3,4(a4)
    1928:	00000f93          	li	t6,0
    192c:	00a68e93          	addi	t4,a3,10
    1930:	01cf83b3          	add	t2,t6,t3
    1934:	06745463          	bge	s0,t2,0x199c
    1938:	00872303          	lw	t1,8(a4)
    193c:	00000393          	li	t2,0
    1940:	00ae8913          	addi	s2,t4,10
    1944:	006387b3          	add	a5,t2,t1
    1948:	06f45463          	bge	s0,a5,0x19b0
    194c:	00a90c93          	addi	s9,s2,10
    1950:	00000793          	li	a5,0
    1954:	010c9d93          	slli	s11,s9,0x10
    1958:	00c70713          	addi	a4,a4,12
    195c:	410dd513          	srai	a0,s11,0x10
    1960:	f8e58ee3          	beq	a1,a4,0x18fc
    1964:	00072603          	lw	a2,0(a4)
    1968:	00c787b3          	add	a5,a5,a2
    196c:	faf450e3          	bge	s0,a5,0x190c
    1970:	00472f03          	lw	t5,4(a4)
    1974:	00000793          	li	a5,0
    1978:	00a50693          	addi	a3,a0,10
    197c:	01e78fb3          	add	t6,a5,t5
    1980:	00470713          	addi	a4,a4,4
    1984:	fbf440e3          	blt	s0,t6,0x1924
    1988:	00472e03          	lw	t3,4(a4)
    198c:	01e622b3          	slt	t0,a2,t5
    1990:	00568eb3          	add	t4,a3,t0
    1994:	01cf83b3          	add	t2,t6,t3
    1998:	fa7440e3          	blt	s0,t2,0x1938
    199c:	00872303          	lw	t1,8(a4)
    19a0:	01cf2533          	slt	a0,t5,t3
    19a4:	00ae8933          	add	s2,t4,a0
    19a8:	006387b3          	add	a5,t2,t1
    19ac:	faf440e3          	blt	s0,a5,0x194c
    19b0:	006e2d33          	slt	s10,t3,t1
    19b4:	01a90cb3          	add	s9,s2,s10
    19b8:	f9dff06f          	j	0x1954
    19bc:	006d2cb3          	slt	s9,s10,t1
    19c0:	01950db3          	add	s11,a0,s9
    19c4:	f29ff06f          	j	0x18ec
    19c8:	006e23b3          	slt	t2,t3,t1
    19cc:	00750933          	add	s2,a0,t2
    19d0:	efdff06f          	j	0x18cc
    19d4:	0062aeb3          	slt	t4,t0,t1
    19d8:	01d50533          	add	a0,a0,t4
    19dc:	ed5ff06f          	j	0x18b0
    19e0:	00000593          	li	a1,0
    19e4:	385020ef          	jal	0x4568
    19e8:	00c12683          	lw	a3,12(sp)
    19ec:	000a0593          	mv	a1,s4
    19f0:	00050913          	mv	s2,a0
    19f4:	000a8613          	mv	a2,s5
    19f8:	000b0513          	mv	a0,s6
    19fc:	4f1010ef          	jal	0x36ec
    1a00:	00000893          	li	a7,0
    1a04:	00000793          	li	a5,0
    1a08:	00000513          	li	a0,0
    1a0c:	00000593          	li	a1,0
    1a10:	ffcb8813          	addi	a6,s7,-4
    1a14:	00285613          	srli	a2,a6,0x2
    1a18:	00160693          	addi	a3,a2,1
    1a1c:	0036ff13          	andi	t5,a3,3
    1a20:	417c0733          	sub	a4,s8,s7
    1a24:	0e0f0063          	beqz	t5,0x1b04
    1a28:	00100f93          	li	t6,1
    1a2c:	05ff0463          	beq	t5,t6,0x1a74
    1a30:	00200293          	li	t0,2
    1a34:	025f0263          	beq	t5,t0,0x1a58
    1a38:	00088e93          	mv	t4,a7
    1a3c:	00072883          	lw	a7,0(a4)
    1a40:	011787b3          	add	a5,a5,a7
    1a44:	12f45863          	bge	s0,a5,0x1b74
    1a48:	00a50393          	addi	t2,a0,10
    1a4c:	00000793          	li	a5,0
    1a50:	00038513          	mv	a0,t2
    1a54:	00470713          	addi	a4,a4,4
    1a58:	00088313          	mv	t1,a7
    1a5c:	00072883          	lw	a7,0(a4)
    1a60:	011787b3          	add	a5,a5,a7
    1a64:	10f45263          	bge	s0,a5,0x1b68
    1a68:	00a50513          	addi	a0,a0,10
    1a6c:	00000793          	li	a5,0
    1a70:	00470713          	addi	a4,a4,4
    1a74:	00088c93          	mv	s9,a7
    1a78:	00072883          	lw	a7,0(a4)
    1a7c:	011787b3          	add	a5,a5,a7
    1a80:	0cf45e63          	bge	s0,a5,0x1b5c
    1a84:	00a50813          	addi	a6,a0,10
    1a88:	00000793          	li	a5,0
    1a8c:	01081613          	slli	a2,a6,0x10
    1a90:	00470713          	addi	a4,a4,4
    1a94:	41065513          	srai	a0,a2,0x10
    1a98:	07871663          	bne	a4,s8,0x1b04
    1a9c:	01770c33          	add	s8,a4,s7
    1aa0:	0f358063          	beq	a1,s3,0x1b80
    1aa4:	00158593          	addi	a1,a1,1
    1aa8:	f69ff06f          	j	0x1a10
    1aac:	00472f83          	lw	t6,4(a4)
    1ab0:	01e8a8b3          	slt	a7,a7,t5
    1ab4:	011506b3          	add	a3,a0,a7
    1ab8:	01f782b3          	add	t0,a5,t6
    1abc:	00470713          	addi	a4,a4,4
    1ac0:	06545463          	bge	s0,t0,0x1b28
    1ac4:	00472383          	lw	t2,4(a4)
    1ac8:	00000293          	li	t0,0
    1acc:	00a68e13          	addi	t3,a3,10
    1ad0:	00728333          	add	t1,t0,t2
    1ad4:	06645463          	bge	s0,t1,0x1b3c
    1ad8:	00872883          	lw	a7,8(a4)
    1adc:	00000313          	li	t1,0
    1ae0:	00ae0513          	addi	a0,t3,10
    1ae4:	011307b3          	add	a5,t1,a7
    1ae8:	06f45463          	bge	s0,a5,0x1b50
    1aec:	00a50d93          	addi	s11,a0,10
    1af0:	00000793          	li	a5,0
    1af4:	010d9813          	slli	a6,s11,0x10
    1af8:	00c70713          	addi	a4,a4,12
    1afc:	41085513          	srai	a0,a6,0x10
    1b00:	f9870ee3          	beq	a4,s8,0x1a9c
    1b04:	00072f03          	lw	t5,0(a4)
    1b08:	01e787b3          	add	a5,a5,t5
    1b0c:	faf450e3          	bge	s0,a5,0x1aac
    1b10:	00472f83          	lw	t6,4(a4)
    1b14:	00000793          	li	a5,0
    1b18:	00a50693          	addi	a3,a0,10
    1b1c:	01f782b3          	add	t0,a5,t6
    1b20:	00470713          	addi	a4,a4,4
    1b24:	fa5440e3          	blt	s0,t0,0x1ac4
    1b28:	00472383          	lw	t2,4(a4)
    1b2c:	01ff2eb3          	slt	t4,t5,t6
    1b30:	01d68e33          	add	t3,a3,t4
    1b34:	00728333          	add	t1,t0,t2
    1b38:	fa6440e3          	blt	s0,t1,0x1ad8
    1b3c:	00872883          	lw	a7,8(a4)
    1b40:	007fad33          	slt	s10,t6,t2
    1b44:	01ae0533          	add	a0,t3,s10
    1b48:	011307b3          	add	a5,t1,a7
    1b4c:	faf440e3          	blt	s0,a5,0x1aec
    1b50:	0113acb3          	slt	s9,t2,a7
    1b54:	01950db3          	add	s11,a0,s9
    1b58:	f9dff06f          	j	0x1af4
    1b5c:	011cadb3          	slt	s11,s9,a7
    1b60:	01b50833          	add	a6,a0,s11
    1b64:	f29ff06f          	j	0x1a8c
    1b68:	01132d33          	slt	s10,t1,a7
    1b6c:	01a50533          	add	a0,a0,s10
    1b70:	f01ff06f          	j	0x1a70
    1b74:	011eae33          	slt	t3,t4,a7
    1b78:	01c503b3          	add	t2,a0,t3
    1b7c:	ed5ff06f          	j	0x1a50
    1b80:	00090593          	mv	a1,s2
    1b84:	1e5020ef          	jal	0x4568
    1b88:	00c12683          	lw	a3,12(sp)
    1b8c:	000a0593          	mv	a1,s4
    1b90:	00050913          	mv	s2,a0
    1b94:	000a8613          	mv	a2,s5
    1b98:	000b0513          	mv	a0,s6
    1b9c:	581010ef          	jal	0x391c
    1ba0:	00000313          	li	t1,0
    1ba4:	00000593          	li	a1,0
    1ba8:	00000793          	li	a5,0
    1bac:	00000513          	li	a0,0
    1bb0:	00000893          	li	a7,0
    1bb4:	00231613          	slli	a2,t1,0x2
    1bb8:	00ca0f33          	add	t5,s4,a2
    1bbc:	00058693          	mv	a3,a1
    1bc0:	000f2583          	lw	a1,0(t5) # 0xffff8000
    1bc4:	fffb0f93          	addi	t6,s6,-1
    1bc8:	003ff293          	andi	t0,t6,3
    1bcc:	00b787b3          	add	a5,a5,a1
    1bd0:	50f45463          	bge	s0,a5,0x20d8
    1bd4:	00a50e13          	addi	t3,a0,10
    1bd8:	00000793          	li	a5,0
    1bdc:	010e1393          	slli	t2,t3,0x10
    1be0:	00100693          	li	a3,1
    1be4:	4103d513          	srai	a0,t2,0x10
    1be8:	004f0613          	addi	a2,t5,4
    1bec:	1566fa63          	bgeu	a3,s6,0x1d40
    1bf0:	0e028263          	beqz	t0,0x1cd4
    1bf4:	04d28863          	beq	t0,a3,0x1c44
    1bf8:	00200d13          	li	s10,2
    1bfc:	03a28263          	beq	t0,s10,0x1c20
    1c00:	00058c93          	mv	s9,a1
    1c04:	004f2583          	lw	a1,4(t5)
    1c08:	00b787b3          	add	a5,a5,a1
    1c0c:	50f45a63          	bge	s0,a5,0x2120
    1c10:	00a50513          	addi	a0,a0,10
    1c14:	00000793          	li	a5,0
    1c18:	00168693          	addi	a3,a3,1
    1c1c:	00460613          	addi	a2,a2,4
    1c20:	00058713          	mv	a4,a1
    1c24:	00062583          	lw	a1,0(a2)
    1c28:	00b787b3          	add	a5,a5,a1
    1c2c:	4cf45e63          	bge	s0,a5,0x2108
    1c30:	00a50993          	addi	s3,a0,10
    1c34:	00000793          	li	a5,0
    1c38:	00098513          	mv	a0,s3
    1c3c:	00168693          	addi	a3,a3,1
    1c40:	00460613          	addi	a2,a2,4
    1c44:	00058b93          	mv	s7,a1
    1c48:	00062583          	lw	a1,0(a2)
    1c4c:	00b787b3          	add	a5,a5,a1
    1c50:	4af45063          	bge	s0,a5,0x20f0
    1c54:	00a50f13          	addi	t5,a0,10
    1c58:	00000793          	li	a5,0
    1c5c:	010f1f93          	slli	t6,t5,0x10
    1c60:	00168693          	addi	a3,a3,1
    1c64:	410fd513          	srai	a0,t6,0x10
    1c68:	00460613          	addi	a2,a2,4
    1c6c:	0766e463          	bltu	a3,s6,0x1cd4
    1c70:	0d00006f          	j	0x1d40
    1c74:	00462383          	lw	t2,4(a2)
    1c78:	0055a5b3          	slt	a1,a1,t0
    1c7c:	00b50eb3          	add	t4,a0,a1
    1c80:	00778d33          	add	s10,a5,t2
    1c84:	00168693          	addi	a3,a3,1
    1c88:	00460613          	addi	a2,a2,4
    1c8c:	07a45863          	bge	s0,s10,0x1cfc
    1c90:	00462d83          	lw	s11,4(a2)
    1c94:	00000d13          	li	s10,0
    1c98:	00ae8c93          	addi	s9,t4,10
    1c9c:	01bd0533          	add	a0,s10,s11
    1ca0:	06a45863          	bge	s0,a0,0x1d10
    1ca4:	00862583          	lw	a1,8(a2)
    1ca8:	00000513          	li	a0,0
    1cac:	00ac8813          	addi	a6,s9,10
    1cb0:	00b507b3          	add	a5,a0,a1
    1cb4:	06f45863          	bge	s0,a5,0x1d24
    1cb8:	00a80b93          	addi	s7,a6,10
    1cbc:	010b9c13          	slli	s8,s7,0x10
    1cc0:	00368693          	addi	a3,a3,3
    1cc4:	00000793          	li	a5,0
    1cc8:	410c5513          	srai	a0,s8,0x10
    1ccc:	00c60613          	addi	a2,a2,12
    1cd0:	0766f863          	bgeu	a3,s6,0x1d40
    1cd4:	00062283          	lw	t0,0(a2)
    1cd8:	005787b3          	add	a5,a5,t0
    1cdc:	f8f45ce3          	bge	s0,a5,0x1c74
    1ce0:	00462383          	lw	t2,4(a2)
    1ce4:	00000793          	li	a5,0
    1ce8:	00a50e93          	addi	t4,a0,10
    1cec:	00778d33          	add	s10,a5,t2
    1cf0:	00168693          	addi	a3,a3,1
    1cf4:	00460613          	addi	a2,a2,4
    1cf8:	f9a44ce3          	blt	s0,s10,0x1c90
    1cfc:	00462d83          	lw	s11,4(a2)
    1d00:	0072ae33          	slt	t3,t0,t2
    1d04:	01ce8cb3          	add	s9,t4,t3
    1d08:	01bd0533          	add	a0,s10,s11
    1d0c:	f8a44ce3          	blt	s0,a0,0x1ca4
    1d10:	00862583          	lw	a1,8(a2)
    1d14:	01b3a733          	slt	a4,t2,s11
    1d18:	00ec8833          	add	a6,s9,a4
    1d1c:	00b507b3          	add	a5,a0,a1
    1d20:	f8f44ce3          	blt	s0,a5,0x1cb8
    1d24:	00bda9b3          	slt	s3,s11,a1
    1d28:	01380bb3          	add	s7,a6,s3
    1d2c:	010b9c13          	slli	s8,s7,0x10
    1d30:	00368693          	addi	a3,a3,3
    1d34:	410c5513          	srai	a0,s8,0x10
    1d38:	00c60613          	addi	a2,a2,12
    1d3c:	f966ece3          	bltu	a3,s6,0x1cd4
    1d40:	00188893          	addi	a7,a7,1
    1d44:	01630333          	add	t1,t1,s6
    1d48:	e768e6e3          	bltu	a7,s6,0x1bb4
    1d4c:	00090593          	mv	a1,s2
    1d50:	019020ef          	jal	0x4568
    1d54:	00c12683          	lw	a3,12(sp)
    1d58:	000a0593          	mv	a1,s4
    1d5c:	00050913          	mv	s2,a0
    1d60:	000a8613          	mv	a2,s5
    1d64:	000b0513          	mv	a0,s6
    1d68:	641010ef          	jal	0x3ba8
    1d6c:	00000e13          	li	t3,0
    1d70:	00000593          	li	a1,0
    1d74:	00000793          	li	a5,0
    1d78:	00000513          	li	a0,0
    1d7c:	00000313          	li	t1,0
    1d80:	002e1f13          	slli	t5,t3,0x2
    1d84:	01ea0fb3          	add	t6,s4,t5
    1d88:	00058293          	mv	t0,a1
    1d8c:	000fa583          	lw	a1,0(t6)
    1d90:	fffb0e93          	addi	t4,s6,-1
    1d94:	003ef393          	andi	t2,t4,3
    1d98:	00b787b3          	add	a5,a5,a1
    1d9c:	32f45863          	bge	s0,a5,0x20cc
    1da0:	00a50c93          	addi	s9,a0,10
    1da4:	00000793          	li	a5,0
    1da8:	010c9d93          	slli	s11,s9,0x10
    1dac:	00100613          	li	a2,1
    1db0:	410dd513          	srai	a0,s11,0x10
    1db4:	004f8713          	addi	a4,t6,4
    1db8:	15667a63          	bgeu	a2,s6,0x1f0c
    1dbc:	0e038263          	beqz	t2,0x1ea0
    1dc0:	04c38863          	beq	t2,a2,0x1e10
    1dc4:	00200813          	li	a6,2
    1dc8:	03038263          	beq	t2,a6,0x1dec
    1dcc:	00058993          	mv	s3,a1
    1dd0:	004fa583          	lw	a1,4(t6)
    1dd4:	00b787b3          	add	a5,a5,a1
    1dd8:	32f45e63          	bge	s0,a5,0x2114
    1ddc:	00a50513          	addi	a0,a0,10
    1de0:	00000793          	li	a5,0
    1de4:	00160613          	addi	a2,a2,1
    1de8:	00470713          	addi	a4,a4,4
    1dec:	00058693          	mv	a3,a1
    1df0:	00072583          	lw	a1,0(a4)
    1df4:	00b787b3          	add	a5,a5,a1
    1df8:	30f45263          	bge	s0,a5,0x20fc
    1dfc:	00a50893          	addi	a7,a0,10
    1e00:	00000793          	li	a5,0
    1e04:	00088513          	mv	a0,a7
    1e08:	00160613          	addi	a2,a2,1
    1e0c:	00470713          	addi	a4,a4,4
    1e10:	00058f13          	mv	t5,a1
    1e14:	00072583          	lw	a1,0(a4)
    1e18:	00b787b3          	add	a5,a5,a1
    1e1c:	2cf45463          	bge	s0,a5,0x20e4
    1e20:	00a50293          	addi	t0,a0,10
    1e24:	00000793          	li	a5,0
    1e28:	01029e93          	slli	t4,t0,0x10
    1e2c:	00160613          	addi	a2,a2,1
    1e30:	410ed513          	srai	a0,t4,0x10
    1e34:	00470713          	addi	a4,a4,4
    1e38:	07666463          	bltu	a2,s6,0x1ea0
    1e3c:	0d00006f          	j	0x1f0c
    1e40:	00472c83          	lw	s9,4(a4)
    1e44:	0075a5b3          	slt	a1,a1,t2
    1e48:	00b50d33          	add	s10,a0,a1
    1e4c:	01978db3          	add	s11,a5,s9
    1e50:	00160613          	addi	a2,a2,1
    1e54:	00470713          	addi	a4,a4,4
    1e58:	07b45863          	bge	s0,s11,0x1ec8
    1e5c:	00472b83          	lw	s7,4(a4)
    1e60:	00000d93          	li	s11,0
    1e64:	00ad0993          	addi	s3,s10,10
    1e68:	017d8533          	add	a0,s11,s7
    1e6c:	06a45863          	bge	s0,a0,0x1edc
    1e70:	00872583          	lw	a1,8(a4)
    1e74:	00000513          	li	a0,0
    1e78:	00a98c13          	addi	s8,s3,10
    1e7c:	00b507b3          	add	a5,a0,a1
    1e80:	06f45863          	bge	s0,a5,0x1ef0
    1e84:	00ac0f13          	addi	t5,s8,10
    1e88:	010f1f93          	slli	t6,t5,0x10
    1e8c:	00360613          	addi	a2,a2,3
    1e90:	00000793          	li	a5,0
    1e94:	410fd513          	srai	a0,t6,0x10
    1e98:	00c70713          	addi	a4,a4,12
    1e9c:	07667863          	bgeu	a2,s6,0x1f0c
    1ea0:	00072383          	lw	t2,0(a4)
    1ea4:	007787b3          	add	a5,a5,t2
    1ea8:	f8f45ce3          	bge	s0,a5,0x1e40
    1eac:	00472c83          	lw	s9,4(a4)
    1eb0:	00000793          	li	a5,0
    1eb4:	00a50d13          	addi	s10,a0,10
    1eb8:	01978db3          	add	s11,a5,s9
    1ebc:	00160613          	addi	a2,a2,1
    1ec0:	00470713          	addi	a4,a4,4
    1ec4:	f9b44ce3          	blt	s0,s11,0x1e5c
    1ec8:	00472b83          	lw	s7,4(a4)
    1ecc:	0193a833          	slt	a6,t2,s9
    1ed0:	010d09b3          	add	s3,s10,a6
    1ed4:	017d8533          	add	a0,s11,s7
    1ed8:	f8a44ce3          	blt	s0,a0,0x1e70
    1edc:	00872583          	lw	a1,8(a4)
    1ee0:	017ca6b3          	slt	a3,s9,s7
    1ee4:	00d98c33          	add	s8,s3,a3
    1ee8:	00b507b3          	add	a5,a0,a1
    1eec:	f8f44ce3          	blt	s0,a5,0x1e84
    1ef0:	00bba8b3          	slt	a7,s7,a1
    1ef4:	011c0f33          	add	t5,s8,a7
    1ef8:	010f1f93          	slli	t6,t5,0x10
    1efc:	00360613          	addi	a2,a2,3
    1f00:	410fd513          	srai	a0,t6,0x10
    1f04:	00c70713          	addi	a4,a4,12
    1f08:	f9666ce3          	bltu	a2,s6,0x1ea0
    1f0c:	00130313          	addi	t1,t1,1
    1f10:	016e0e33          	add	t3,t3,s6
    1f14:	e76366e3          	bltu	t1,s6,0x1d80
    1f18:	00090593          	mv	a1,s2
    1f1c:	64c020ef          	jal	0x4568
    1f20:	00000893          	li	a7,0
    1f24:	00000593          	li	a1,0
    1f28:	00189293          	slli	t0,a7,0x1
    1f2c:	005a8eb3          	add	t4,s5,t0
    1f30:	000ed383          	lhu	t2,0(t4)
    1f34:	fffb0d13          	addi	s10,s6,-1
    1f38:	00100613          	li	a2,1
    1f3c:	40938cb3          	sub	s9,t2,s1
    1f40:	019e9023          	sh	s9,0(t4)
    1f44:	002e8793          	addi	a5,t4,2
    1f48:	007d7d93          	andi	s11,s10,7
    1f4c:	13667863          	bgeu	a2,s6,0x207c
    1f50:	0c0d8063          	beqz	s11,0x2010
    1f54:	0acd8263          	beq	s11,a2,0x1ff8
    1f58:	00200813          	li	a6,2
    1f5c:	090d8463          	beq	s11,a6,0x1fe4
    1f60:	00300993          	li	s3,3
    1f64:	073d8663          	beq	s11,s3,0x1fd0
    1f68:	00400b93          	li	s7,4
    1f6c:	057d8863          	beq	s11,s7,0x1fbc
    1f70:	00500693          	li	a3,5
    1f74:	02dd8a63          	beq	s11,a3,0x1fa8
    1f78:	00600c13          	li	s8,6
    1f7c:	018d8c63          	beq	s11,s8,0x1f94
    1f80:	002edf03          	lhu	t5,2(t4)
    1f84:	00080613          	mv	a2,a6
    1f88:	004e8793          	addi	a5,t4,4
    1f8c:	409f0fb3          	sub	t6,t5,s1
    1f90:	01fe9123          	sh	t6,2(t4)
    1f94:	0007d703          	lhu	a4,0(a5)
    1f98:	00160613          	addi	a2,a2,1
    1f9c:	00278793          	addi	a5,a5,2
    1fa0:	40970433          	sub	s0,a4,s1
    1fa4:	fe879f23          	sh	s0,-2(a5)
    1fa8:	0007d903          	lhu	s2,0(a5)
    1fac:	00160613          	addi	a2,a2,1
    1fb0:	00278793          	addi	a5,a5,2
    1fb4:	40990a33          	sub	s4,s2,s1
    1fb8:	ff479f23          	sh	s4,-2(a5)
    1fbc:	0007d303          	lhu	t1,0(a5)
    1fc0:	00160613          	addi	a2,a2,1
    1fc4:	00278793          	addi	a5,a5,2
    1fc8:	40930e33          	sub	t3,t1,s1
    1fcc:	ffc79f23          	sh	t3,-2(a5)
    1fd0:	0007d283          	lhu	t0,0(a5)
    1fd4:	00160613          	addi	a2,a2,1
    1fd8:	00278793          	addi	a5,a5,2
    1fdc:	40928eb3          	sub	t4,t0,s1
    1fe0:	ffd79f23          	sh	t4,-2(a5)
    1fe4:	0007d383          	lhu	t2,0(a5)
    1fe8:	00160613          	addi	a2,a2,1
    1fec:	00278793          	addi	a5,a5,2
    1ff0:	40938d33          	sub	s10,t2,s1
    1ff4:	ffa79f23          	sh	s10,-2(a5)
    1ff8:	0007dc83          	lhu	s9,0(a5)
    1ffc:	00160613          	addi	a2,a2,1
    2000:	00278793          	addi	a5,a5,2
    2004:	409c8db3          	sub	s11,s9,s1
    2008:	ffb79f23          	sh	s11,-2(a5)
    200c:	07667863          	bgeu	a2,s6,0x207c
    2010:	0007d803          	lhu	a6,0(a5)
    2014:	0027d983          	lhu	s3,2(a5)
    2018:	0047db83          	lhu	s7,4(a5)
    201c:	0067dc03          	lhu	s8,6(a5)
    2020:	0087d403          	lhu	s0,8(a5)
    2024:	00a7d903          	lhu	s2,10(a5)
    2028:	00c7d683          	lhu	a3,12(a5)
    202c:	00e7d703          	lhu	a4,14(a5)
    2030:	40980a33          	sub	s4,a6,s1
    2034:	40998fb3          	sub	t6,s3,s1
    2038:	409b8f33          	sub	t5,s7,s1
    203c:	409c02b3          	sub	t0,s8,s1
    2040:	40940e33          	sub	t3,s0,s1
    2044:	40990333          	sub	t1,s2,s1
    2048:	40968eb3          	sub	t4,a3,s1
    204c:	409703b3          	sub	t2,a4,s1
    2050:	01479023          	sh	s4,0(a5)
    2054:	01f79123          	sh	t6,2(a5)
    2058:	01e79223          	sh	t5,4(a5)
    205c:	00579323          	sh	t0,6(a5)
    2060:	01c79423          	sh	t3,8(a5)
    2064:	00679523          	sh	t1,10(a5)
    2068:	01d79623          	sh	t4,12(a5)
    206c:	00779723          	sh	t2,14(a5)
    2070:	00860613          	addi	a2,a2,8
    2074:	01078793          	addi	a5,a5,16
    2078:	f9666ce3          	bltu	a2,s6,0x2010
    207c:	00158593          	addi	a1,a1,1
    2080:	016888b3          	add	a7,a7,s6
    2084:	eb65e2e3          	bltu	a1,s6,0x1f28
    2088:	04012903          	lw	s2,64(sp)
    208c:	03c12983          	lw	s3,60(sp)
    2090:	03012b03          	lw	s6,48(sp)
    2094:	02c12b83          	lw	s7,44(sp)
    2098:	02812c03          	lw	s8,40(sp)
    209c:	02412c83          	lw	s9,36(sp)
    20a0:	02012d03          	lw	s10,32(sp)
    20a4:	01c12d83          	lw	s11,28(sp)
    20a8:	04c12083          	lw	ra,76(sp)
    20ac:	04812403          	lw	s0,72(sp)
    20b0:	01051513          	slli	a0,a0,0x10
    20b4:	04412483          	lw	s1,68(sp)
    20b8:	03812a03          	lw	s4,56(sp)
    20bc:	03412a83          	lw	s5,52(sp)
    20c0:	41055513          	srai	a0,a0,0x10
    20c4:	05010113          	addi	sp,sp,80
    20c8:	00008067          	ret
    20cc:	00b2ad33          	slt	s10,t0,a1
    20d0:	01a50cb3          	add	s9,a0,s10
    20d4:	cd5ff06f          	j	0x1da8
    20d8:	00b6aeb3          	slt	t4,a3,a1
    20dc:	01d50e33          	add	t3,a0,t4
    20e0:	afdff06f          	j	0x1bdc
    20e4:	00bf2fb3          	slt	t6,t5,a1
    20e8:	01f502b3          	add	t0,a0,t6
    20ec:	d3dff06f          	j	0x1e28
    20f0:	00bbac33          	slt	s8,s7,a1
    20f4:	01850f33          	add	t5,a0,s8
    20f8:	b65ff06f          	j	0x1c5c
    20fc:	00b6ac33          	slt	s8,a3,a1
    2100:	018508b3          	add	a7,a0,s8
    2104:	d01ff06f          	j	0x1e04
    2108:	00b72833          	slt	a6,a4,a1
    210c:	010509b3          	add	s3,a0,a6
    2110:	b29ff06f          	j	0x1c38
    2114:	00b9abb3          	slt	s7,s3,a1
    2118:	01750533          	add	a0,a0,s7
    211c:	cc9ff06f          	j	0x1de4
    2120:	00bcadb3          	slt	s11,s9,a1
    2124:	01b50533          	add	a0,a0,s11
    2128:	af1ff06f          	j	0x1c18
    212c:	00000593          	li	a1,0
    2130:	438020ef          	jal	0x4568
    2134:	00c12483          	lw	s1,12(sp)
    2138:	000a8613          	mv	a2,s5
    213c:	00050413          	mv	s0,a0
    2140:	00048693          	mv	a3,s1
    2144:	000a0593          	mv	a1,s4
    2148:	00000513          	li	a0,0
    214c:	5a0010ef          	jal	0x36ec
    2150:	00040593          	mv	a1,s0
    2154:	00000513          	li	a0,0
    2158:	410020ef          	jal	0x4568
    215c:	00048693          	mv	a3,s1
    2160:	000a8613          	mv	a2,s5
    2164:	00050413          	mv	s0,a0
    2168:	000a0593          	mv	a1,s4
    216c:	00000513          	li	a0,0
    2170:	7ac010ef          	jal	0x391c
    2174:	00040593          	mv	a1,s0
    2178:	00000513          	li	a0,0
    217c:	3ec020ef          	jal	0x4568
    2180:	00050413          	mv	s0,a0
    2184:	000a0593          	mv	a1,s4
    2188:	00048693          	mv	a3,s1
    218c:	000a8613          	mv	a2,s5
    2190:	00000513          	li	a0,0
    2194:	215010ef          	jal	0x3ba8
    2198:	00040593          	mv	a1,s0
    219c:	00000513          	li	a0,0
    21a0:	3c8020ef          	jal	0x4568
    21a4:	f05ff06f          	j	0x20a8
    21a8:	ff010113          	addi	sp,sp,-16
    21ac:	00812423          	sw	s0,8(sp)
    21b0:	00852683          	lw	a3,8(a0)
    21b4:	00060413          	mv	s0,a2
    21b8:	00058713          	mv	a4,a1
    21bc:	00452603          	lw	a2,4(a0)
    21c0:	00c52583          	lw	a1,12(a0)
    21c4:	00052503          	lw	a0,0(a0)
    21c8:	00112623          	sw	ra,12(sp)
    21cc:	b48ff0ef          	jal	0x1514
    21d0:	00040593          	mv	a1,s0
    21d4:	00812403          	lw	s0,8(sp)
    21d8:	00c12083          	lw	ra,12(sp)
    21dc:	01010113          	addi	sp,sp,16
    21e0:	3880206f          	j	0x4568
    21e4:	fff50e13          	addi	t3,a0,-1
    21e8:	00100e93          	li	t4,1
    21ec:	00060813          	mv	a6,a2
    21f0:	15cef263          	bgeu	t4,t3,0x2334
    21f4:	01d586b3          	add	a3,a1,t4
    21f8:	01069293          	slli	t0,a3,0x10
    21fc:	0102d693          	srli	a3,t0,0x10
    2200:	00019337          	lui	t1,0x19
    2204:	01b69393          	slli	t2,a3,0x1b
    2208:	00700f13          	li	t5,7
    220c:	0076f613          	andi	a2,a3,7
    2210:	81830313          	addi	t1,t1,-2024 # 0x18818
    2214:	00000713          	li	a4,0
    2218:	00400893          	li	a7,4
    221c:	02c00f93          	li	t6,44
    2220:	01e3d793          	srli	a5,t2,0x1e
    2224:	0be60463          	beq	a2,t5,0x22cc
    2228:	0ec8e263          	bltu	a7,a2,0x230c
    222c:	ffd60293          	addi	t0,a2,-3
    2230:	01029613          	slli	a2,t0,0x10
    2234:	00279793          	slli	a5,a5,0x2
    2238:	01065393          	srli	t2,a2,0x10
    223c:	00f305b3          	add	a1,t1,a5
    2240:	0c7ee063          	bltu	t4,t2,0x2300
    2244:	0105a783          	lw	a5,16(a1)
    2248:	00800613          	li	a2,8
    224c:	00170593          	addi	a1,a4,1
    2250:	00b602b3          	add	t0,a2,a1
    2254:	09c2fa63          	bgeu	t0,t3,0x22e8
    2258:	0007c383          	lbu	t2,0(a5)
    225c:	00e80733          	add	a4,a6,a4
    2260:	00b805b3          	add	a1,a6,a1
    2264:	00770023          	sb	t2,0(a4)
    2268:	0017c383          	lbu	t2,1(a5)
    226c:	00168693          	addi	a3,a3,1
    2270:	01069693          	slli	a3,a3,0x10
    2274:	00758023          	sb	t2,0(a1)
    2278:	0027c583          	lbu	a1,2(a5)
    227c:	0106d693          	srli	a3,a3,0x10
    2280:	00b70123          	sb	a1,2(a4)
    2284:	0037c383          	lbu	t2,3(a5)
    2288:	007701a3          	sb	t2,3(a4)
    228c:	03160263          	beq	a2,a7,0x22b0
    2290:	0047c583          	lbu	a1,4(a5)
    2294:	00b70223          	sb	a1,4(a4)
    2298:	0057c383          	lbu	t2,5(a5)
    229c:	007702a3          	sb	t2,5(a4)
    22a0:	0067c583          	lbu	a1,6(a5)
    22a4:	00b70323          	sb	a1,6(a4)
    22a8:	0077c783          	lbu	a5,7(a5)
    22ac:	00f703a3          	sb	a5,7(a4)
    22b0:	00c70633          	add	a2,a4,a2
    22b4:	01f60023          	sb	t6,0(a2)
    22b8:	01b69393          	slli	t2,a3,0x1b
    22bc:	0076f613          	andi	a2,a3,7
    22c0:	00028713          	mv	a4,t0
    22c4:	01e3d793          	srli	a5,t2,0x1e
    22c8:	f7e610e3          	bne	a2,t5,0x2228
    22cc:	00279593          	slli	a1,a5,0x2
    22d0:	00b302b3          	add	t0,t1,a1
    22d4:	00800613          	li	a2,8
    22d8:	00170593          	addi	a1,a4,1
    22dc:	0302a783          	lw	a5,48(t0) # 0xfffff030
    22e0:	00b602b3          	add	t0,a2,a1
    22e4:	f7c2eae3          	bltu	t0,t3,0x2258
    22e8:	04a77463          	bgeu	a4,a0,0x2330
    22ec:	00100613          	li	a2,1
    22f0:	02b57863          	bgeu	a0,a1,0x2320
    22f4:	00e80533          	add	a0,a6,a4
    22f8:	00000593          	li	a1,0
    22fc:	5b80006f          	j	0x28b4
    2300:	0005a783          	lw	a5,0(a1)
    2304:	00400613          	li	a2,4
    2308:	f45ff06f          	j	0x224c
    230c:	00279393          	slli	t2,a5,0x2
    2310:	007305b3          	add	a1,t1,t2
    2314:	0205a783          	lw	a5,32(a1)
    2318:	00800613          	li	a2,8
    231c:	f31ff06f          	j	0x224c
    2320:	40e50633          	sub	a2,a0,a4
    2324:	00000593          	li	a1,0
    2328:	00e80533          	add	a0,a6,a4
    232c:	5880006f          	j	0x28b4
    2330:	00008067          	ret
    2334:	000e8593          	mv	a1,t4
    2338:	00000713          	li	a4,0
    233c:	fb1ff06f          	j	0x22ec
    2340:	00052683          	lw	a3,0(a0)
    2344:	0006ce03          	lbu	t3,0(a3)
    2348:	040e0263          	beqz	t3,0x238c
    234c:	02c00713          	li	a4,44
    2350:	20ee0263          	beq	t3,a4,0x2554
    2354:	02e00813          	li	a6,46
    2358:	1d0e0c63          	beq	t3,a6,0x2530
    235c:	03c86e63          	bltu	a6,t3,0x2398
    2360:	fd5e0e93          	addi	t4,t3,-43
    2364:	0fdeff13          	andi	t5,t4,253
    2368:	1e0f0c63          	beqz	t5,0x2560
    236c:	0045af83          	lw	t6,4(a1)
    2370:	0005a283          	lw	t0,0(a1)
    2374:	00168693          	addi	a3,a3,1
    2378:	001f8613          	addi	a2,t6,1
    237c:	00128313          	addi	t1,t0,1
    2380:	00c5a223          	sw	a2,4(a1)
    2384:	0065a023          	sw	t1,0(a1)
    2388:	00100e13          	li	t3,1
    238c:	00d52023          	sw	a3,0(a0)
    2390:	000e0513          	mv	a0,t3
    2394:	00008067          	ret
    2398:	fd0e0793          	addi	a5,t3,-48
    239c:	0ff7f313          	zext.b	t1,a5
    23a0:	00900393          	li	t2,9
    23a4:	fc63e4e3          	bltu	t2,t1,0x236c
    23a8:	0005a883          	lw	a7,0(a1)
    23ac:	00168793          	addi	a5,a3,1
    23b0:	00188e13          	addi	t3,a7,1
    23b4:	01c5a023          	sw	t3,0(a1)
    23b8:	0016c683          	lbu	a3,1(a3)
    23bc:	1e068a63          	beqz	a3,0x25b0
    23c0:	20e68663          	beq	a3,a4,0x25cc
    23c4:	02e00813          	li	a6,46
    23c8:	05068663          	beq	a3,a6,0x2414
    23cc:	fd068e93          	addi	t4,a3,-48
    23d0:	0ffeff13          	zext.b	t5,t4
    23d4:	00900f93          	li	t6,9
    23d8:	03eff463          	bgeu	t6,t5,0x2400
    23dc:	0105a603          	lw	a2,16(a1)
    23e0:	00100e13          	li	t3,1
    23e4:	00178693          	addi	a3,a5,1
    23e8:	01c602b3          	add	t0,a2,t3
    23ec:	0055a823          	sw	t0,16(a1)
    23f0:	00d52023          	sw	a3,0(a0)
    23f4:	000e0513          	mv	a0,t3
    23f8:	00008067          	ret
    23fc:	01c5a423          	sw	t3,8(a1)
    2400:	0017c683          	lbu	a3,1(a5)
    2404:	00178793          	addi	a5,a5,1
    2408:	1a068463          	beqz	a3,0x25b0
    240c:	02c00713          	li	a4,44
    2410:	fb1ff06f          	j	0x23c0
    2414:	0105a303          	lw	t1,16(a1)
    2418:	00130713          	addi	a4,t1,1
    241c:	00e5a823          	sw	a4,16(a1)
    2420:	0017c383          	lbu	t2,1(a5)
    2424:	00178793          	addi	a5,a5,1
    2428:	12038063          	beqz	t2,0x2548
    242c:	02c00713          	li	a4,44
    2430:	18e38663          	beq	t2,a4,0x25bc
    2434:	0df3f893          	andi	a7,t2,223
    2438:	04500e13          	li	t3,69
    243c:	0dc89663          	bne	a7,t3,0x2508
    2440:	0145a283          	lw	t0,20(a1)
    2444:	00178693          	addi	a3,a5,1
    2448:	00128313          	addi	t1,t0,1
    244c:	0065aa23          	sw	t1,20(a1)
    2450:	0017c383          	lbu	t2,1(a5)
    2454:	18038863          	beqz	t2,0x25e4
    2458:	02c00893          	li	a7,44
    245c:	19138863          	beq	t2,a7,0x25ec
    2460:	00c5a683          	lw	a3,12(a1)
    2464:	fd538713          	addi	a4,t2,-43
    2468:	0fd77e13          	andi	t3,a4,253
    246c:	00168813          	addi	a6,a3,1
    2470:	0105a623          	sw	a6,12(a1)
    2474:	080e1463          	bnez	t3,0x24fc
    2478:	0027ce83          	lbu	t4,2(a5)
    247c:	00278693          	addi	a3,a5,2
    2480:	140e8e63          	beqz	t4,0x25dc
    2484:	191e8463          	beq	t4,a7,0x260c
    2488:	0185af03          	lw	t5,24(a1)
    248c:	fd0e8f93          	addi	t6,t4,-48
    2490:	0ffff293          	zext.b	t0,t6
    2494:	001f0613          	addi	a2,t5,1
    2498:	00900813          	li	a6,9
    249c:	00c5ac23          	sw	a2,24(a1)
    24a0:	00587c63          	bgeu	a6,t0,0x24b8
    24a4:	00378693          	addi	a3,a5,3
    24a8:	00100e13          	li	t3,1
    24ac:	00d52023          	sw	a3,0(a0)
    24b0:	000e0513          	mv	a0,t3
    24b4:	00008067          	ret
    24b8:	00068313          	mv	t1,a3
    24bc:	0016c383          	lbu	t2,1(a3)
    24c0:	00168693          	addi	a3,a3,1
    24c4:	02c00893          	li	a7,44
    24c8:	fd038793          	addi	a5,t2,-48
    24cc:	0ff7f713          	zext.b	a4,a5
    24d0:	12038463          	beqz	t2,0x25f8
    24d4:	13138663          	beq	t2,a7,0x2600
    24d8:	fee870e3          	bgeu	a6,a4,0x24b8
    24dc:	0045ae83          	lw	t4,4(a1)
    24e0:	00100e13          	li	t3,1
    24e4:	00230693          	addi	a3,t1,2
    24e8:	01ce8f33          	add	t5,t4,t3
    24ec:	01e5a223          	sw	t5,4(a1)
    24f0:	00d52023          	sw	a3,0(a0)
    24f4:	000e0513          	mv	a0,t3
    24f8:	00008067          	ret
    24fc:	00278693          	addi	a3,a5,2
    2500:	00100e13          	li	t3,1
    2504:	e89ff06f          	j	0x238c
    2508:	fd038813          	addi	a6,t2,-48
    250c:	0ff87e93          	zext.b	t4,a6
    2510:	00900f13          	li	t5,9
    2514:	f1df76e3          	bgeu	t5,t4,0x2420
    2518:	0145af83          	lw	t6,20(a1)
    251c:	00100e13          	li	t3,1
    2520:	00178693          	addi	a3,a5,1
    2524:	01cf8633          	add	a2,t6,t3
    2528:	00c5aa23          	sw	a2,20(a1)
    252c:	e61ff06f          	j	0x238c
    2530:	0005a603          	lw	a2,0(a1)
    2534:	00168793          	addi	a5,a3,1
    2538:	00160293          	addi	t0,a2,1
    253c:	0055a023          	sw	t0,0(a1)
    2540:	0016c383          	lbu	t2,1(a3)
    2544:	ee0396e3          	bnez	t2,0x2430
    2548:	00078693          	mv	a3,a5
    254c:	00500e13          	li	t3,5
    2550:	e3dff06f          	j	0x238c
    2554:	00000e13          	li	t3,0
    2558:	00168693          	addi	a3,a3,1
    255c:	e31ff06f          	j	0x238c
    2560:	0005af83          	lw	t6,0(a1)
    2564:	00168793          	addi	a5,a3,1
    2568:	001f8613          	addi	a2,t6,1
    256c:	00c5a023          	sw	a2,0(a1)
    2570:	0016c283          	lbu	t0,1(a3)
    2574:	0a028a63          	beqz	t0,0x2628
    2578:	0ae28063          	beq	t0,a4,0x2618
    257c:	0085a303          	lw	t1,8(a1)
    2580:	fd028713          	addi	a4,t0,-48
    2584:	0ff77393          	zext.b	t2,a4
    2588:	00900893          	li	a7,9
    258c:	00130e13          	addi	t3,t1,1
    2590:	e678f6e3          	bgeu	a7,t2,0x23fc
    2594:	01028a63          	beq	t0,a6,0x25a8
    2598:	01c5a423          	sw	t3,8(a1)
    259c:	00268693          	addi	a3,a3,2
    25a0:	00100e13          	li	t3,1
    25a4:	de9ff06f          	j	0x238c
    25a8:	01c5a423          	sw	t3,8(a1)
    25ac:	e75ff06f          	j	0x2420
    25b0:	00078693          	mv	a3,a5
    25b4:	00400e13          	li	t3,4
    25b8:	dd5ff06f          	j	0x238c
    25bc:	00078693          	mv	a3,a5
    25c0:	00500e13          	li	t3,5
    25c4:	00168693          	addi	a3,a3,1
    25c8:	dc5ff06f          	j	0x238c
    25cc:	00078693          	mv	a3,a5
    25d0:	00400e13          	li	t3,4
    25d4:	00168693          	addi	a3,a3,1
    25d8:	db5ff06f          	j	0x238c
    25dc:	00600e13          	li	t3,6
    25e0:	dadff06f          	j	0x238c
    25e4:	00300e13          	li	t3,3
    25e8:	da5ff06f          	j	0x238c
    25ec:	00300e13          	li	t3,3
    25f0:	00168693          	addi	a3,a3,1
    25f4:	d99ff06f          	j	0x238c
    25f8:	00700e13          	li	t3,7
    25fc:	d91ff06f          	j	0x238c
    2600:	00700e13          	li	t3,7
    2604:	00168693          	addi	a3,a3,1
    2608:	d85ff06f          	j	0x238c
    260c:	00600e13          	li	t3,6
    2610:	00168693          	addi	a3,a3,1
    2614:	d79ff06f          	j	0x238c
    2618:	00078693          	mv	a3,a5
    261c:	00200e13          	li	t3,2
    2620:	00168693          	addi	a3,a3,1
    2624:	d69ff06f          	j	0x238c
    2628:	00078693          	mv	a3,a5
    262c:	00200e13          	li	t3,2
    2630:	d5dff06f          	j	0x238c
    2634:	f8010113          	addi	sp,sp,-128
    2638:	06812c23          	sw	s0,120(sp)
    263c:	06912a23          	sw	s1,116(sp)
    2640:	07212823          	sw	s2,112(sp)
    2644:	07312623          	sw	s3,108(sp)
    2648:	07412423          	sw	s4,104(sp)
    264c:	07512223          	sw	s5,100(sp)
    2650:	07612023          	sw	s6,96(sp)
    2654:	05712e23          	sw	s7,92(sp)
    2658:	05812c23          	sw	s8,88(sp)
    265c:	06112e23          	sw	ra,124(sp)
    2660:	00058493          	mv	s1,a1
    2664:	0005c583          	lbu	a1,0(a1)
    2668:	03010993          	addi	s3,sp,48
    266c:	01010413          	addi	s0,sp,16
    2670:	02012823          	sw	zero,48(sp)
    2674:	00012823          	sw	zero,16(sp)
    2678:	00912623          	sw	s1,12(sp)
    267c:	0009a223          	sw	zero,4(s3)
    2680:	0009a423          	sw	zero,8(s3)
    2684:	0009a623          	sw	zero,12(s3)
    2688:	0009a823          	sw	zero,16(s3)
    268c:	0009aa23          	sw	zero,20(s3)
    2690:	0009ac23          	sw	zero,24(s3)
    2694:	0009ae23          	sw	zero,28(s3)
    2698:	00042223          	sw	zero,4(s0)
    269c:	00042423          	sw	zero,8(s0)
    26a0:	00042623          	sw	zero,12(s0)
    26a4:	00042823          	sw	zero,16(s0)
    26a8:	00042a23          	sw	zero,20(s0)
    26ac:	00042c23          	sw	zero,24(s0)
    26b0:	00042e23          	sw	zero,28(s0)
    26b4:	00078913          	mv	s2,a5
    26b8:	00050c13          	mv	s8,a0
    26bc:	00060b93          	mv	s7,a2
    26c0:	00068b13          	mv	s6,a3
    26c4:	00070a93          	mv	s5,a4
    26c8:	00c10a13          	addi	s4,sp,12
    26cc:	10058863          	beqz	a1,0x27dc
    26d0:	00098593          	mv	a1,s3
    26d4:	000a0513          	mv	a0,s4
    26d8:	c69ff0ef          	jal	0x2340
    26dc:	00251713          	slli	a4,a0,0x2
    26e0:	008702b3          	add	t0,a4,s0
    26e4:	00c12683          	lw	a3,12(sp)
    26e8:	0002a783          	lw	a5,0(t0)
    26ec:	0006c303          	lbu	t1,0(a3)
    26f0:	00178393          	addi	t2,a5,1
    26f4:	0072a023          	sw	t2,0(t0)
    26f8:	fc031ce3          	bnez	t1,0x26d0
    26fc:	00912623          	sw	s1,12(sp)
    2700:	01848c33          	add	s8,s1,s8
    2704:	0384f863          	bgeu	s1,s8,0x2734
    2708:	00048893          	mv	a7,s1
    270c:	02c00613          	li	a2,44
    2710:	0008c503          	lbu	a0,0(a7)
    2714:	01754833          	xor	a6,a0,s7
    2718:	00c50463          	beq	a0,a2,0x2720
    271c:	01088023          	sb	a6,0(a7)
    2720:	015888b3          	add	a7,a7,s5
    2724:	ff88e6e3          	bltu	a7,s8,0x2710
    2728:	0004ce03          	lbu	t3,0(s1)
    272c:	00c10a13          	addi	s4,sp,12
    2730:	020e0863          	beqz	t3,0x2760
    2734:	00098593          	mv	a1,s3
    2738:	000a0513          	mv	a0,s4
    273c:	c05ff0ef          	jal	0x2340
    2740:	00251e93          	slli	t4,a0,0x2
    2744:	008e8f33          	add	t5,t4,s0
    2748:	00c12f83          	lw	t6,12(sp)
    274c:	000f2583          	lw	a1,0(t5)
    2750:	000fc703          	lbu	a4,0(t6)
    2754:	00158293          	addi	t0,a1,1
    2758:	005f2023          	sw	t0,0(t5)
    275c:	fc071ce3          	bnez	a4,0x2734
    2760:	02c00693          	li	a3,44
    2764:	0184fe63          	bgeu	s1,s8,0x2780
    2768:	0004c783          	lbu	a5,0(s1)
    276c:	0167c333          	xor	t1,a5,s6
    2770:	00d78463          	beq	a5,a3,0x2778
    2774:	00648023          	sb	t1,0(s1)
    2778:	015484b3          	add	s1,s1,s5
    277c:	ff84e6e3          	bltu	s1,s8,0x2768
    2780:	00098a93          	mv	s5,s3
    2784:	00042503          	lw	a0,0(s0)
    2788:	00090593          	mv	a1,s2
    278c:	00440413          	addi	s0,s0,4
    2790:	1b9010ef          	jal	0x4148
    2794:	00050593          	mv	a1,a0
    2798:	000aa503          	lw	a0,0(s5)
    279c:	004a8a93          	addi	s5,s5,4
    27a0:	1a9010ef          	jal	0x4148
    27a4:	00050913          	mv	s2,a0
    27a8:	fc899ee3          	bne	s3,s0,0x2784
    27ac:	07c12083          	lw	ra,124(sp)
    27b0:	07812403          	lw	s0,120(sp)
    27b4:	07412483          	lw	s1,116(sp)
    27b8:	07012903          	lw	s2,112(sp)
    27bc:	06c12983          	lw	s3,108(sp)
    27c0:	06812a03          	lw	s4,104(sp)
    27c4:	06412a83          	lw	s5,100(sp)
    27c8:	06012b03          	lw	s6,96(sp)
    27cc:	05c12b83          	lw	s7,92(sp)
    27d0:	05812c03          	lw	s8,88(sp)
    27d4:	08010113          	addi	sp,sp,128
    27d8:	00008067          	ret
    27dc:	00a48c33          	add	s8,s1,a0
    27e0:	f384e4e3          	bltu	s1,s8,0x2708
    27e4:	f9dff06f          	j	0x2780
    27e8:	00500793          	li	a5,5
    27ec:	04a7ec63          	bltu	a5,a0,0x2844
    27f0:	000192b7          	lui	t0,0x19
    27f4:	00251513          	slli	a0,a0,0x2
    27f8:	85828313          	addi	t1,t0,-1960 # 0x18858
    27fc:	006503b3          	add	t2,a0,t1
    2800:	0003a583          	lw	a1,0(t2)
    2804:	00058067          	jr	a1
    2808:	00010637          	lui	a2,0x10
    280c:	7e862503          	lw	a0,2024(a2) # 0x107e8
    2810:	00008067          	ret
    2814:	000108b7          	lui	a7,0x10
    2818:	7f08a503          	lw	a0,2032(a7) # 0x107f0
    281c:	00008067          	ret
    2820:	00010837          	lui	a6,0x10
    2824:	7ec82503          	lw	a0,2028(a6) # 0x107ec
    2828:	00008067          	ret
    282c:	00010737          	lui	a4,0x10
    2830:	01472503          	lw	a0,20(a4) # 0x10014
    2834:	00008067          	ret
    2838:	000106b7          	lui	a3,0x10
    283c:	0106a503          	lw	a0,16(a3) # 0x10010
    2840:	00008067          	ret
    2844:	00000513          	li	a0,0
    2848:	00008067          	ret
    284c:	00000513          	li	a0,0
    2850:	00008067          	ret
    2854:	200007b7          	lui	a5,0x20000
    2858:	04c7a503          	lw	a0,76(a5) # 0x2000004c
    285c:	00008067          	ret
    2860:	00008067          	ret
    2864:	00008067          	ret
    2868:	00008067          	ret
    286c:	00008067          	ret
    2870:	00008067          	ret
    2874:	00008067          	ret
    2878:	00008067          	ret
    287c:	00008067          	ret
    2880:	00008067          	ret
    2884:	00008067          	ret
    2888:	00008067          	ret
    288c:	fe010113          	addi	sp,sp,-32
    2890:	00b12223          	sw	a1,4(sp)
    2894:	00c12423          	sw	a2,8(sp)
    2898:	00d12623          	sw	a3,12(sp)
    289c:	00e12823          	sw	a4,16(sp)
    28a0:	00f12a23          	sw	a5,20(sp)
    28a4:	01012c23          	sw	a6,24(sp)
    28a8:	01112e23          	sw	a7,28(sp)
    28ac:	02010113          	addi	sp,sp,32
    28b0:	00008067          	ret
    28b4:	00f00313          	li	t1,15
    28b8:	00050713          	mv	a4,a0
    28bc:	02c37e63          	bgeu	t1,a2,0x28f8
    28c0:	00f77793          	andi	a5,a4,15
    28c4:	0a079063          	bnez	a5,0x2964
    28c8:	08059263          	bnez	a1,0x294c
    28cc:	ff067693          	andi	a3,a2,-16
    28d0:	00f67613          	andi	a2,a2,15
    28d4:	00e686b3          	add	a3,a3,a4
    28d8:	00b72023          	sw	a1,0(a4)
    28dc:	00b72223          	sw	a1,4(a4)
    28e0:	00b72423          	sw	a1,8(a4)
    28e4:	00b72623          	sw	a1,12(a4)
    28e8:	01070713          	addi	a4,a4,16
    28ec:	fed766e3          	bltu	a4,a3,0x28d8
    28f0:	00061463          	bnez	a2,0x28f8
    28f4:	00008067          	ret
    28f8:	40c306b3          	sub	a3,t1,a2
    28fc:	00269693          	slli	a3,a3,0x2
    2900:	00000297          	auipc	t0,0x0
    2904:	005686b3          	add	a3,a3,t0
    2908:	00c68067          	jr	12(a3)
    290c:	00b70723          	sb	a1,14(a4)
    2910:	00b706a3          	sb	a1,13(a4)
    2914:	00b70623          	sb	a1,12(a4)
    2918:	00b705a3          	sb	a1,11(a4)
    291c:	00b70523          	sb	a1,10(a4)
    2920:	00b704a3          	sb	a1,9(a4)
    2924:	00b70423          	sb	a1,8(a4)
    2928:	00b703a3          	sb	a1,7(a4)
    292c:	00b70323          	sb	a1,6(a4)
    2930:	00b702a3          	sb	a1,5(a4)
    2934:	00b70223          	sb	a1,4(a4)
    2938:	00b701a3          	sb	a1,3(a4)
    293c:	00b70123          	sb	a1,2(a4)
    2940:	00b700a3          	sb	a1,1(a4)
    2944:	00b70023          	sb	a1,0(a4)
    2948:	00008067          	ret
    294c:	0ff5f593          	zext.b	a1,a1
    2950:	00859693          	slli	a3,a1,0x8
    2954:	00d5e5b3          	or	a1,a1,a3
    2958:	01059693          	slli	a3,a1,0x10
    295c:	00d5e5b3          	or	a1,a1,a3
    2960:	f6dff06f          	j	0x28cc
    2964:	00279693          	slli	a3,a5,0x2
    2968:	00000297          	auipc	t0,0x0
    296c:	005686b3          	add	a3,a3,t0
    2970:	00008293          	mv	t0,ra
    2974:	fa0680e7          	jalr	-96(a3)
    2978:	00028093          	mv	ra,t0
    297c:	ff078793          	addi	a5,a5,-16
    2980:	40f70733          	sub	a4,a4,a5
    2984:	00f60633          	add	a2,a2,a5
    2988:	f6c378e3          	bgeu	t1,a2,0x28f8
    298c:	f3dff06f          	j	0x28c8
    2990:	00050613          	mv	a2,a0
    2994:	00000513          	li	a0,0
    2998:	0015f693          	andi	a3,a1,1
    299c:	00068463          	beqz	a3,0x29a4
    29a0:	00c50533          	add	a0,a0,a2
    29a4:	0015d593          	srli	a1,a1,0x1
    29a8:	00161613          	slli	a2,a2,0x1
    29ac:	fe0596e3          	bnez	a1,0x2998
    29b0:	00008067          	ret
    29b4:	06054063          	bltz	a0,0x2a14
    29b8:	0605c663          	bltz	a1,0x2a24
    29bc:	00058613          	mv	a2,a1
    29c0:	00050593          	mv	a1,a0
    29c4:	fff00513          	li	a0,-1
    29c8:	02060c63          	beqz	a2,0x2a00
    29cc:	00100693          	li	a3,1
    29d0:	00b67a63          	bgeu	a2,a1,0x29e4
    29d4:	00c05863          	blez	a2,0x29e4
    29d8:	00161613          	slli	a2,a2,0x1
    29dc:	00169693          	slli	a3,a3,0x1
    29e0:	feb66ae3          	bltu	a2,a1,0x29d4
    29e4:	00000513          	li	a0,0
    29e8:	00c5e663          	bltu	a1,a2,0x29f4
    29ec:	40c585b3          	sub	a1,a1,a2
    29f0:	00d56533          	or	a0,a0,a3
    29f4:	0016d693          	srli	a3,a3,0x1
    29f8:	00165613          	srli	a2,a2,0x1
    29fc:	fe0696e3          	bnez	a3,0x29e8
    2a00:	00008067          	ret
    2a04:	00008293          	mv	t0,ra
    2a08:	fb5ff0ef          	jal	0x29bc
    2a0c:	00058513          	mv	a0,a1
    2a10:	00028067          	jr	t0 # 0x2968
    2a14:	40a00533          	neg	a0,a0
    2a18:	00b04863          	bgtz	a1,0x2a28
    2a1c:	40b005b3          	neg	a1,a1
    2a20:	f9dff06f          	j	0x29bc
    2a24:	40b005b3          	neg	a1,a1
    2a28:	00008293          	mv	t0,ra
    2a2c:	f91ff0ef          	jal	0x29bc
    2a30:	40a00533          	neg	a0,a0
    2a34:	00028067          	jr	t0
    2a38:	00008293          	mv	t0,ra
    2a3c:	0005ca63          	bltz	a1,0x2a50
    2a40:	00054c63          	bltz	a0,0x2a58
    2a44:	f79ff0ef          	jal	0x29bc
    2a48:	00058513          	mv	a0,a1
    2a4c:	00028067          	jr	t0
    2a50:	40b005b3          	neg	a1,a1
    2a54:	fe0558e3          	bgez	a0,0x2a44
    2a58:	40a00533          	neg	a0,a0
    2a5c:	f61ff0ef          	jal	0x29bc
    2a60:	40b00533          	neg	a0,a1
    2a64:	00028067          	jr	t0

Disassembly of section .text.startup:

00002a68 <.text.startup>:
    2a68:	f8010113          	addi	sp,sp,-128
    2a6c:	00810613          	addi	a2,sp,8
    2a70:	00410593          	addi	a1,sp,4
    2a74:	04e10513          	addi	a0,sp,78
    2a78:	06112e23          	sw	ra,124(sp)
    2a7c:	06812c23          	sw	s0,120(sp)
    2a80:	06912a23          	sw	s1,116(sp)
    2a84:	07212823          	sw	s2,112(sp)
    2a88:	07312623          	sw	s3,108(sp)
    2a8c:	07412423          	sw	s4,104(sp)
    2a90:	05812c23          	sw	s8,88(sp)
    2a94:	00012223          	sw	zero,4(sp)
    2a98:	dedff0ef          	jal	0x2884
    2a9c:	00100513          	li	a0,1
    2aa0:	d49ff0ef          	jal	0x27e8
    2aa4:	00a11623          	sh	a0,12(sp)
    2aa8:	00200513          	li	a0,2
    2aac:	d3dff0ef          	jal	0x27e8
    2ab0:	00a11723          	sh	a0,14(sp)
    2ab4:	00300513          	li	a0,3
    2ab8:	d31ff0ef          	jal	0x27e8
    2abc:	00a11823          	sh	a0,16(sp)
    2ac0:	00400513          	li	a0,4
    2ac4:	d25ff0ef          	jal	0x27e8
    2ac8:	02a12423          	sw	a0,40(sp)
    2acc:	00500513          	li	a0,5
    2ad0:	d19ff0ef          	jal	0x27e8
    2ad4:	00051463          	bnez	a0,0x2adc
    2ad8:	00700513          	li	a0,7
    2adc:	00c12783          	lw	a5,12(sp)
    2ae0:	02a12623          	sw	a0,44(sp)
    2ae4:	3a078a63          	beqz	a5,0x2e98
    2ae8:	00100713          	li	a4,1
    2aec:	6ce78e63          	beq	a5,a4,0x31c8
    2af0:	00010937          	lui	s2,0x10
    2af4:	01890c13          	addi	s8,s2,24 # 0x10018
    2af8:	00157993          	andi	s3,a0,1
    2afc:	04011623          	sh	zero,76(sp)
    2b00:	01812a23          	sw	s8,20(sp)
    2b04:	00257613          	andi	a2,a0,2
    2b08:	00098a13          	mv	s4,s3
    2b0c:	16061063          	bnez	a2,0x2c6c
    2b10:	00457513          	andi	a0,a0,4
    2b14:	1a050c63          	beqz	a0,0x2ccc
    2b18:	00198593          	addi	a1,s3,1
    2b1c:	7d000513          	li	a0,2000
    2b20:	e9dff0ef          	jal	0x29bc
    2b24:	02a12223          	sw	a0,36(sp)
    2b28:	00050493          	mv	s1,a0
    2b2c:	5c099463          	bnez	s3,0x30f4
    2b30:	00050593          	mv	a1,a0
    2b34:	00098513          	mv	a0,s3
    2b38:	e59ff0ef          	jal	0x2990
    2b3c:	00ac0e33          	add	t3,s8,a0
    2b40:	03c12023          	sw	t3,32(sp)
    2b44:	02c12283          	lw	t0,44(sp)
    2b48:	0012fe93          	andi	t4,t0,1
    2b4c:	000e8e63          	beqz	t4,0x2b68
    2b50:	00c11603          	lh	a2,12(sp)
    2b54:	01812583          	lw	a1,24(sp)
    2b58:	00048513          	mv	a0,s1
    2b5c:	874fe0ef          	jal	0xbd0
    2b60:	02c12283          	lw	t0,44(sp)
    2b64:	02a12823          	sw	a0,48(sp)
    2b68:	0022ff13          	andi	t5,t0,2
    2b6c:	160f1a63          	bnez	t5,0x2ce0
    2b70:	0042f313          	andi	t1,t0,4
    2b74:	00030a63          	beqz	t1,0x2b88
    2b78:	02012603          	lw	a2,32(sp)
    2b7c:	00c11583          	lh	a1,12(sp)
    2b80:	02412503          	lw	a0,36(sp)
    2b84:	e60ff0ef          	jal	0x21e4
    2b88:	02812383          	lw	t2,40(sp)
    2b8c:	04039c63          	bnez	t2,0x2be4
    2b90:	00100713          	li	a4,1
    2b94:	0080006f          	j	0x2b9c
    2b98:	02812703          	lw	a4,40(sp)
    2b9c:	00271593          	slli	a1,a4,0x2
    2ba0:	00e58933          	add	s2,a1,a4
    2ba4:	00191c13          	slli	s8,s2,0x1
    2ba8:	03812423          	sw	s8,40(sp)
    2bac:	cbdff0ef          	jal	0x2868
    2bb0:	00c10513          	addi	a0,sp,12
    2bb4:	ba0fe0ef          	jal	0xf54
    2bb8:	cb5ff0ef          	jal	0x286c
    2bbc:	cb9ff0ef          	jal	0x2874
    2bc0:	cb9ff0ef          	jal	0x2878
    2bc4:	fc050ae3          	beqz	a0,0x2b98
    2bc8:	00050593          	mv	a1,a0
    2bcc:	00a00513          	li	a0,10
    2bd0:	dedff0ef          	jal	0x29bc
    2bd4:	00150593          	addi	a1,a0,1
    2bd8:	02812503          	lw	a0,40(sp)
    2bdc:	db5ff0ef          	jal	0x2990
    2be0:	02a12423          	sw	a0,40(sp)
    2be4:	c85ff0ef          	jal	0x2868
    2be8:	00c10513          	addi	a0,sp,12
    2bec:	b68fe0ef          	jal	0xf54
    2bf0:	c7dff0ef          	jal	0x286c
    2bf4:	c81ff0ef          	jal	0x2874
    2bf8:	00050913          	mv	s2,a0
    2bfc:	00c11503          	lh	a0,12(sp)
    2c00:	00000593          	li	a1,0
    2c04:	165010ef          	jal	0x4568
    2c08:	00050593          	mv	a1,a0
    2c0c:	00e11503          	lh	a0,14(sp)
    2c10:	159010ef          	jal	0x4568
    2c14:	00050593          	mv	a1,a0
    2c18:	01011503          	lh	a0,16(sp)
    2c1c:	14d010ef          	jal	0x4568
    2c20:	00050593          	mv	a1,a0
    2c24:	02411503          	lh	a0,36(sp)
    2c28:	141010ef          	jal	0x4568
    2c2c:	00008637          	lui	a2,0x8
    2c30:	b0560a13          	addi	s4,a2,-1275 # 0x7b05
    2c34:	00050993          	mv	s3,a0
    2c38:	57450e63          	beq	a0,s4,0x31b4
    2c3c:	0caa6663          	bltu	s4,a0,0x2d08
    2c40:	00002eb7          	lui	t4,0x2
    2c44:	8f2e8f13          	addi	t5,t4,-1806 # 0x18f2
    2c48:	55e50c63          	beq	a0,t5,0x31a0
    2c4c:	00005737          	lui	a4,0x5
    2c50:	eaf70293          	addi	t0,a4,-337 # 0x4eaf
    2c54:	24551c63          	bne	a0,t0,0x2eac
    2c58:	00019337          	lui	t1,0x19
    2c5c:	acc30513          	addi	a0,t1,-1332 # 0x18acc
    2c60:	c2dff0ef          	jal	0x288c
    2c64:	00200793          	li	a5,2
    2c68:	0c80006f          	j	0x2d30
    2c6c:	00457413          	andi	s0,a0,4
    2c70:	00198993          	addi	s3,s3,1
    2c74:	02040c63          	beqz	s0,0x2cac
    2c78:	002a0593          	addi	a1,s4,2
    2c7c:	7d000513          	li	a0,2000
    2c80:	d3dff0ef          	jal	0x29bc
    2c84:	02a12223          	sw	a0,36(sp)
    2c88:	00050493          	mv	s1,a0
    2c8c:	440a1e63          	bnez	s4,0x30e8
    2c90:	00400413          	li	s0,4
    2c94:	414006b3          	neg	a3,s4
    2c98:	00a6f833          	and	a6,a3,a0
    2c9c:	010c08b3          	add	a7,s8,a6
    2ca0:	01112e23          	sw	a7,28(sp)
    2ca4:	ea0400e3          	beqz	s0,0x2b44
    2ca8:	e89ff06f          	j	0x2b30
    2cac:	00098593          	mv	a1,s3
    2cb0:	7d000513          	li	a0,2000
    2cb4:	d09ff0ef          	jal	0x29bc
    2cb8:	02a12223          	sw	a0,36(sp)
    2cbc:	00050493          	mv	s1,a0
    2cc0:	fc0a0ae3          	beqz	s4,0x2c94
    2cc4:	01812c23          	sw	s8,24(sp)
    2cc8:	fcdff06f          	j	0x2c94
    2ccc:	7d000493          	li	s1,2000
    2cd0:	02912223          	sw	s1,36(sp)
    2cd4:	e60988e3          	beqz	s3,0x2b44
    2cd8:	01812c23          	sw	s8,24(sp)
    2cdc:	e69ff06f          	j	0x2b44
    2ce0:	00e11f83          	lh	t6,14(sp)
    2ce4:	00c11703          	lh	a4,12(sp)
    2ce8:	01c12583          	lw	a1,28(sp)
    2cec:	02412503          	lw	a0,36(sp)
    2cf0:	010f9793          	slli	a5,t6,0x10
    2cf4:	00e7e633          	or	a2,a5,a4
    2cf8:	03410693          	addi	a3,sp,52
    2cfc:	ca0fe0ef          	jal	0x119c
    2d00:	02c12283          	lw	t0,44(sp)
    2d04:	e6dff06f          	j	0x2b70
    2d08:	000094b7          	lui	s1,0x9
    2d0c:	a0248413          	addi	s0,s1,-1534 # 0x8a02
    2d10:	46850e63          	beq	a0,s0,0x318c
    2d14:	0000f837          	lui	a6,0xf
    2d18:	9f580893          	addi	a7,a6,-1547 # 0xe9f5
    2d1c:	19151863          	bne	a0,a7,0x2eac
    2d20:	00019e37          	lui	t3,0x19
    2d24:	b00e0513          	addi	a0,t3,-1280 # 0x18b00
    2d28:	b65ff0ef          	jal	0x288c
    2d2c:	00300793          	li	a5,3
    2d30:	00010c37          	lui	s8,0x10
    2d34:	00cc2383          	lw	t2,12(s8) # 0x1000c
    2d38:	4a038863          	beqz	t2,0x31e8
    2d3c:	05a12823          	sw	s10,80(sp)
    2d40:	00018d37          	lui	s10,0x18
    2d44:	07512223          	sw	s5,100(sp)
    2d48:	07612023          	sw	s6,96(sp)
    2d4c:	00179a93          	slli	s5,a5,0x1
    2d50:	7f4d0b13          	addi	s6,s10,2036 # 0x187f4
    2d54:	05712e23          	sw	s7,92(sp)
    2d58:	05912a23          	sw	s9,84(sp)
    2d5c:	00019bb7          	lui	s7,0x19
    2d60:	00019cb7          	lui	s9,0x19
    2d64:	000195b7          	lui	a1,0x19
    2d68:	015b0d33          	add	s10,s6,s5
    2d6c:	bc058a13          	addi	s4,a1,-1088 # 0x18bc0
    2d70:	b5cb8b13          	addi	s6,s7,-1188 # 0x18b5c
    2d74:	b8cc8a93          	addi	s5,s9,-1140 # 0x18b8c
    2d78:	00000b93          	li	s7,0
    2d7c:	00000c93          	li	s9,0
    2d80:	0300006f          	j	0x2db0
    2d84:	017405b3          	add	a1,s0,s7
    2d88:	00259413          	slli	s0,a1,0x2
    2d8c:	00240533          	add	a0,s0,sp
    2d90:	04c55f83          	lhu	t6,76(a0)
    2d94:	001b8b93          	addi	s7,s7,1
    2d98:	00cc2703          	lw	a4,12(s8)
    2d9c:	019f84b3          	add	s1,t6,s9
    2da0:	010b9c93          	slli	s9,s7,0x10
    2da4:	010cdb93          	srli	s7,s9,0x10
    2da8:	00048c93          	mv	s9,s1
    2dac:	0cebfa63          	bgeu	s7,a4,0x2e80
    2db0:	004b9413          	slli	s0,s7,0x4
    2db4:	01740633          	add	a2,s0,s7
    2db8:	00261513          	slli	a0,a2,0x2
    2dbc:	05050693          	addi	a3,a0,80
    2dc0:	002684b3          	add	s1,a3,sp
    2dc4:	fdc4a783          	lw	a5,-36(s1)
    2dc8:	fe049e23          	sh	zero,-4(s1)
    2dcc:	0017f813          	andi	a6,a5,1
    2dd0:	02080663          	beqz	a6,0x2dfc
    2dd4:	ff64d603          	lhu	a2,-10(s1)
    2dd8:	000d5683          	lhu	a3,0(s10)
    2ddc:	02d60063          	beq	a2,a3,0x2dfc
    2de0:	000b8593          	mv	a1,s7
    2de4:	000b0513          	mv	a0,s6
    2de8:	aa5ff0ef          	jal	0x288c
    2dec:	ffc4d883          	lhu	a7,-4(s1)
    2df0:	fdc4a783          	lw	a5,-36(s1)
    2df4:	00188e13          	addi	t3,a7,1
    2df8:	ffc49e23          	sh	t3,-4(s1)
    2dfc:	0027fe93          	andi	t4,a5,2
    2e00:	020e8e63          	beqz	t4,0x2e3c
    2e04:	01740f33          	add	t5,s0,s7
    2e08:	002f1f93          	slli	t6,t5,0x2
    2e0c:	050f8713          	addi	a4,t6,80
    2e10:	002704b3          	add	s1,a4,sp
    2e14:	ff84d603          	lhu	a2,-8(s1)
    2e18:	00cd5683          	lhu	a3,12(s10)
    2e1c:	02d60063          	beq	a2,a3,0x2e3c
    2e20:	000b8593          	mv	a1,s7
    2e24:	000a8513          	mv	a0,s5
    2e28:	a65ff0ef          	jal	0x288c
    2e2c:	ffc4d283          	lhu	t0,-4(s1)
    2e30:	fdc4a783          	lw	a5,-36(s1)
    2e34:	00128313          	addi	t1,t0,1
    2e38:	fe649e23          	sh	t1,-4(s1)
    2e3c:	0047f393          	andi	t2,a5,4
    2e40:	f40382e3          	beqz	t2,0x2d84
    2e44:	017406b3          	add	a3,s0,s7
    2e48:	00269813          	slli	a6,a3,0x2
    2e4c:	05080893          	addi	a7,a6,80
    2e50:	002884b3          	add	s1,a7,sp
    2e54:	ffa4d603          	lhu	a2,-6(s1)
    2e58:	018d5683          	lhu	a3,24(s10)
    2e5c:	2ad61063          	bne	a2,a3,0x30fc
    2e60:	ffc4df83          	lhu	t6,-4(s1)
    2e64:	001b8b93          	addi	s7,s7,1
    2e68:	00cc2703          	lw	a4,12(s8)
    2e6c:	019f84b3          	add	s1,t6,s9
    2e70:	010b9c93          	slli	s9,s7,0x10
    2e74:	010cdb93          	srli	s7,s9,0x10
    2e78:	00048c93          	mv	s9,s1
    2e7c:	f2ebeae3          	bltu	s7,a4,0x2db0
    2e80:	06412a83          	lw	s5,100(sp)
    2e84:	06012b03          	lw	s6,96(sp)
    2e88:	05c12b83          	lw	s7,92(sp)
    2e8c:	05412c83          	lw	s9,84(sp)
    2e90:	05012d03          	lw	s10,80(sp)
    2e94:	0240006f          	j	0x2eb8
    2e98:	01011483          	lh	s1,16(sp)
    2e9c:	c4049ae3          	bnez	s1,0x2af0
    2ea0:	06600593          	li	a1,102
    2ea4:	00b11823          	sh	a1,16(sp)
    2ea8:	c49ff06f          	j	0x2af0
    2eac:	00010c37          	lui	s8,0x10
    2eb0:	fffc0493          	addi	s1,s8,-1 # 0xffff
    2eb4:	00010c37          	lui	s8,0x10
    2eb8:	995ff0ef          	jal	0x284c
    2ebc:	02412583          	lw	a1,36(sp)
    2ec0:	00019d37          	lui	s10,0x19
    2ec4:	00950433          	add	s0,a0,s1
    2ec8:	bf0d0513          	addi	a0,s10,-1040 # 0x18bf0
    2ecc:	9c1ff0ef          	jal	0x288c
    2ed0:	00019b37          	lui	s6,0x19
    2ed4:	00090593          	mv	a1,s2
    2ed8:	c08b0513          	addi	a0,s6,-1016 # 0x18c08
    2edc:	9b1ff0ef          	jal	0x288c
    2ee0:	00090513          	mv	a0,s2
    2ee4:	995ff0ef          	jal	0x2878
    2ee8:	00019ab7          	lui	s5,0x19
    2eec:	00050593          	mv	a1,a0
    2ef0:	c20a8513          	addi	a0,s5,-992 # 0x18c20
    2ef4:	999ff0ef          	jal	0x288c
    2ef8:	00090513          	mv	a0,s2
    2efc:	97dff0ef          	jal	0x2878
    2f00:	22051063          	bnez	a0,0x3120
    2f04:	00090513          	mv	a0,s2
    2f08:	971ff0ef          	jal	0x2878
    2f0c:	00900913          	li	s2,9
    2f10:	24a97c63          	bgeu	s2,a0,0x3168
    2f14:	00cc2583          	lw	a1,12(s8) # 0x1000c
    2f18:	02812503          	lw	a0,40(sp)
    2f1c:	01041313          	slli	t1,s0,0x10
    2f20:	41035493          	srai	s1,t1,0x10
    2f24:	a6dff0ef          	jal	0x2990
    2f28:	000193b7          	lui	t2,0x19
    2f2c:	00050593          	mv	a1,a0
    2f30:	c9038513          	addi	a0,t2,-880 # 0x18c90
    2f34:	959ff0ef          	jal	0x288c
    2f38:	00019637          	lui	a2,0x19
    2f3c:	000195b7          	lui	a1,0x19
    2f40:	cb460513          	addi	a0,a2,-844 # 0x18cb4
    2f44:	ca858593          	addi	a1,a1,-856 # 0x18ca8
    2f48:	945ff0ef          	jal	0x288c
    2f4c:	000196b7          	lui	a3,0x19
    2f50:	00019537          	lui	a0,0x19
    2f54:	ccc68593          	addi	a1,a3,-820 # 0x18ccc
    2f58:	d0450513          	addi	a0,a0,-764 # 0x18d04
    2f5c:	931ff0ef          	jal	0x288c
    2f60:	00019837          	lui	a6,0x19
    2f64:	000198b7          	lui	a7,0x19
    2f68:	d1c80593          	addi	a1,a6,-740 # 0x18d1c
    2f6c:	d2488513          	addi	a0,a7,-732 # 0x18d24
    2f70:	91dff0ef          	jal	0x288c
    2f74:	00098593          	mv	a1,s3
    2f78:	000199b7          	lui	s3,0x19
    2f7c:	d3c98513          	addi	a0,s3,-708 # 0x18d3c
    2f80:	90dff0ef          	jal	0x288c
    2f84:	02c12f03          	lw	t5,44(sp)
    2f88:	001f7e13          	andi	t3,t5,1
    2f8c:	040e0863          	beqz	t3,0x2fdc
    2f90:	00cc2e83          	lw	t4,12(s8)
    2f94:	040e8463          	beqz	t4,0x2fdc
    2f98:	00019f37          	lui	t5,0x19
    2f9c:	d58f0b93          	addi	s7,t5,-680 # 0x18d58
    2fa0:	00000913          	li	s2,0
    2fa4:	00491f93          	slli	t6,s2,0x4
    2fa8:	012f8733          	add	a4,t6,s2
    2fac:	00271c93          	slli	s9,a4,0x2
    2fb0:	002c8b33          	add	s6,s9,sp
    2fb4:	046b5603          	lhu	a2,70(s6)
    2fb8:	00090593          	mv	a1,s2
    2fbc:	000b8513          	mv	a0,s7
    2fc0:	8cdff0ef          	jal	0x288c
    2fc4:	00190a93          	addi	s5,s2,1
    2fc8:	00cc2283          	lw	t0,12(s8)
    2fcc:	010a9a13          	slli	s4,s5,0x10
    2fd0:	010a5913          	srli	s2,s4,0x10
    2fd4:	fc5968e3          	bltu	s2,t0,0x2fa4
    2fd8:	02c12f03          	lw	t5,44(sp)
    2fdc:	002f7413          	andi	s0,t5,2
    2fe0:	04040863          	beqz	s0,0x3030
    2fe4:	00cc2303          	lw	t1,12(s8)
    2fe8:	20030463          	beqz	t1,0x31f0
    2fec:	000193b7          	lui	t2,0x19
    2ff0:	d7438993          	addi	s3,t2,-652 # 0x18d74
    2ff4:	00000b93          	li	s7,0
    2ff8:	004b9593          	slli	a1,s7,0x4
    2ffc:	01758633          	add	a2,a1,s7
    3000:	00261693          	slli	a3,a2,0x2
    3004:	00268833          	add	a6,a3,sp
    3008:	04885603          	lhu	a2,72(a6)
    300c:	000b8593          	mv	a1,s7
    3010:	00098513          	mv	a0,s3
    3014:	879ff0ef          	jal	0x288c
    3018:	001b8893          	addi	a7,s7,1
    301c:	00cc2e83          	lw	t4,12(s8)
    3020:	01089e13          	slli	t3,a7,0x10
    3024:	010e5b93          	srli	s7,t3,0x10
    3028:	fddbe8e3          	bltu	s7,t4,0x2ff8
    302c:	02c12f03          	lw	t5,44(sp)
    3030:	004f7f93          	andi	t6,t5,4
    3034:	040f8663          	beqz	t6,0x3080
    3038:	00cc2703          	lw	a4,12(s8)
    303c:	08070663          	beqz	a4,0x30c8
    3040:	00019cb7          	lui	s9,0x19
    3044:	d90c8d13          	addi	s10,s9,-624 # 0x18d90
    3048:	00000993          	li	s3,0
    304c:	00499b13          	slli	s6,s3,0x4
    3050:	013b0ab3          	add	s5,s6,s3
    3054:	002a9a13          	slli	s4,s5,0x2
    3058:	002a02b3          	add	t0,s4,sp
    305c:	04a2d603          	lhu	a2,74(t0)
    3060:	00098593          	mv	a1,s3
    3064:	000d0513          	mv	a0,s10
    3068:	825ff0ef          	jal	0x288c
    306c:	00198413          	addi	s0,s3,1
    3070:	00cc2783          	lw	a5,12(s8)
    3074:	01041313          	slli	t1,s0,0x10
    3078:	01035993          	srli	s3,t1,0x10
    307c:	fcf9e8e3          	bltu	s3,a5,0x304c
    3080:	00cc2383          	lw	t2,12(s8)
    3084:	000195b7          	lui	a1,0x19
    3088:	dac58b93          	addi	s7,a1,-596 # 0x18dac
    308c:	00000c93          	li	s9,0
    3090:	02038c63          	beqz	t2,0x30c8
    3094:	004c9613          	slli	a2,s9,0x4
    3098:	019606b3          	add	a3,a2,s9
    309c:	00269513          	slli	a0,a3,0x2
    30a0:	002508b3          	add	a7,a0,sp
    30a4:	0448d603          	lhu	a2,68(a7)
    30a8:	000c8593          	mv	a1,s9
    30ac:	000b8513          	mv	a0,s7
    30b0:	fdcff0ef          	jal	0x288c
    30b4:	001c8e13          	addi	t3,s9,1
    30b8:	00cc2f03          	lw	t5,12(s8)
    30bc:	010e1e93          	slli	t4,t3,0x10
    30c0:	010edc93          	srli	s9,t4,0x10
    30c4:	fdece8e3          	bltu	s9,t5,0x3094
    30c8:	08048863          	beqz	s1,0x3158
    30cc:	0a905863          	blez	s1,0x317c
    30d0:	000194b7          	lui	s1,0x19
    30d4:	e7848513          	addi	a0,s1,-392 # 0x18e78
    30d8:	fb4ff0ef          	jal	0x288c
    30dc:	04e10513          	addi	a0,sp,78
    30e0:	fa8ff0ef          	jal	0x2888
    30e4:	0000006f          	j	0x30e4
    30e8:	01812c23          	sw	s8,24(sp)
    30ec:	00400413          	li	s0,4
    30f0:	ba5ff06f          	j	0x2c94
    30f4:	01812c23          	sw	s8,24(sp)
    30f8:	a39ff06f          	j	0x2b30
    30fc:	000b8593          	mv	a1,s7
    3100:	000a0513          	mv	a0,s4
    3104:	f88ff0ef          	jal	0x288c
    3108:	ffc4de03          	lhu	t3,-4(s1)
    310c:	001e0e93          	addi	t4,t3,1
    3110:	010e9f13          	slli	t5,t4,0x10
    3114:	010f5f93          	srli	t6,t5,0x10
    3118:	fff49e23          	sh	t6,-4(s1)
    311c:	c79ff06f          	j	0x2d94
    3120:	00cc2583          	lw	a1,12(s8)
    3124:	02812503          	lw	a0,40(sp)
    3128:	869ff0ef          	jal	0x2990
    312c:	00050a13          	mv	s4,a0
    3130:	00090513          	mv	a0,s2
    3134:	f44ff0ef          	jal	0x2878
    3138:	00050593          	mv	a1,a0
    313c:	000a0513          	mv	a0,s4
    3140:	87dff0ef          	jal	0x29bc
    3144:	000192b7          	lui	t0,0x19
    3148:	00050593          	mv	a1,a0
    314c:	c3828513          	addi	a0,t0,-968 # 0x18c38
    3150:	f3cff0ef          	jal	0x288c
    3154:	db1ff06f          	j	0x2f04
    3158:	00019fb7          	lui	t6,0x19
    315c:	dc8f8513          	addi	a0,t6,-568 # 0x18dc8
    3160:	f2cff0ef          	jal	0x288c
    3164:	f79ff06f          	j	0x30dc
    3168:	000197b7          	lui	a5,0x19
    316c:	c5078513          	addi	a0,a5,-944 # 0x18c50
    3170:	f1cff0ef          	jal	0x288c
    3174:	00140413          	addi	s0,s0,1
    3178:	d9dff06f          	j	0x2f14
    317c:	00019c37          	lui	s8,0x19
    3180:	e14c0513          	addi	a0,s8,-492 # 0x18e14
    3184:	f08ff0ef          	jal	0x288c
    3188:	f55ff06f          	j	0x30dc
    318c:	000196b7          	lui	a3,0x19
    3190:	a7068513          	addi	a0,a3,-1424 # 0x18a70
    3194:	ef8ff0ef          	jal	0x288c
    3198:	00000793          	li	a5,0
    319c:	b95ff06f          	j	0x2d30
    31a0:	00019fb7          	lui	t6,0x19
    31a4:	b30f8513          	addi	a0,t6,-1232 # 0x18b30
    31a8:	ee4ff0ef          	jal	0x288c
    31ac:	00400793          	li	a5,4
    31b0:	b81ff06f          	j	0x2d30
    31b4:	00019537          	lui	a0,0x19
    31b8:	aa050513          	addi	a0,a0,-1376 # 0x18aa0
    31bc:	ed0ff0ef          	jal	0x288c
    31c0:	00100793          	li	a5,1
    31c4:	b6dff06f          	j	0x2d30
    31c8:	01011283          	lh	t0,16(sp)
    31cc:	920292e3          	bnez	t0,0x2af0
    31d0:	34153337          	lui	t1,0x34153
    31d4:	41530393          	addi	t2,t1,1045 # 0x34153415
    31d8:	06600413          	li	s0,102
    31dc:	00712623          	sw	t2,12(sp)
    31e0:	00811823          	sh	s0,16(sp)
    31e4:	90dff06f          	j	0x2af0
    31e8:	00000493          	li	s1,0
    31ec:	ccdff06f          	j	0x2eb8
    31f0:	004f7793          	andi	a5,t5,4
    31f4:	ec079ae3          	bnez	a5,0x30c8
    31f8:	e89ff06f          	j	0x3080

Disassembly of section .text.hot:

000031fc <.text.hot>:
    31fc:	00050893          	mv	a7,a0
    3200:	18050463          	beqz	a0,0x3388
    3204:	00251313          	slli	t1,a0,0x2
    3208:	00658833          	add	a6,a1,t1
    320c:	00000e13          	li	t3,0
    3210:	00000513          	li	a0,0
    3214:	00000593          	li	a1,0
    3218:	00000793          	li	a5,0
    321c:	ffc30713          	addi	a4,t1,-4
    3220:	00275293          	srli	t0,a4,0x2
    3224:	00128393          	addi	t2,t0,1
    3228:	0033ff13          	andi	t5,t2,3
    322c:	406806b3          	sub	a3,a6,t1
    3230:	0c0f0e63          	beqz	t5,0x330c
    3234:	00100e93          	li	t4,1
    3238:	05df0263          	beq	t5,t4,0x327c
    323c:	00200f93          	li	t6,2
    3240:	03ff0063          	beq	t5,t6,0x3260
    3244:	00058713          	mv	a4,a1
    3248:	0006a583          	lw	a1,0(a3)
    324c:	00b787b3          	add	a5,a5,a1
    3250:	12f65663          	bge	a2,a5,0x337c
    3254:	00a50513          	addi	a0,a0,10
    3258:	00000793          	li	a5,0
    325c:	00468693          	addi	a3,a3,4
    3260:	00058393          	mv	t2,a1
    3264:	0006a583          	lw	a1,0(a3)
    3268:	00b787b3          	add	a5,a5,a1
    326c:	10f65263          	bge	a2,a5,0x3370
    3270:	00a50513          	addi	a0,a0,10
    3274:	00000793          	li	a5,0
    3278:	00468693          	addi	a3,a3,4
    327c:	00058e93          	mv	t4,a1
    3280:	0006a583          	lw	a1,0(a3)
    3284:	00b787b3          	add	a5,a5,a1
    3288:	0cf65e63          	bge	a2,a5,0x3364
    328c:	00a50513          	addi	a0,a0,10
    3290:	00000793          	li	a5,0
    3294:	01051713          	slli	a4,a0,0x10
    3298:	00468693          	addi	a3,a3,4
    329c:	41075513          	srai	a0,a4,0x10
    32a0:	06d81663          	bne	a6,a3,0x330c
    32a4:	001e0e13          	addi	t3,t3,1
    32a8:	00680833          	add	a6,a6,t1
    32ac:	f7c898e3          	bne	a7,t3,0x321c
    32b0:	00008067          	ret
    32b4:	0046af03          	lw	t5,4(a3)
    32b8:	0055a5b3          	slt	a1,a1,t0
    32bc:	00b503b3          	add	t2,a0,a1
    32c0:	01e78eb3          	add	t4,a5,t5
    32c4:	00468693          	addi	a3,a3,4
    32c8:	07d65463          	bge	a2,t4,0x3330
    32cc:	0046a703          	lw	a4,4(a3)
    32d0:	00000e93          	li	t4,0
    32d4:	00a38513          	addi	a0,t2,10
    32d8:	00ee82b3          	add	t0,t4,a4
    32dc:	06565463          	bge	a2,t0,0x3344
    32e0:	0086a583          	lw	a1,8(a3)
    32e4:	00000293          	li	t0,0
    32e8:	00a50393          	addi	t2,a0,10
    32ec:	00b287b3          	add	a5,t0,a1
    32f0:	06f65463          	bge	a2,a5,0x3358
    32f4:	00a38e93          	addi	t4,t2,10
    32f8:	00000793          	li	a5,0
    32fc:	010e9f93          	slli	t6,t4,0x10
    3300:	00c68693          	addi	a3,a3,12
    3304:	410fd513          	srai	a0,t6,0x10
    3308:	f8d80ee3          	beq	a6,a3,0x32a4
    330c:	0006a283          	lw	t0,0(a3)
    3310:	005787b3          	add	a5,a5,t0
    3314:	faf650e3          	bge	a2,a5,0x32b4
    3318:	0046af03          	lw	t5,4(a3)
    331c:	00000793          	li	a5,0
    3320:	00a50393          	addi	t2,a0,10
    3324:	01e78eb3          	add	t4,a5,t5
    3328:	00468693          	addi	a3,a3,4
    332c:	fbd640e3          	blt	a2,t4,0x32cc
    3330:	0046a703          	lw	a4,4(a3)
    3334:	01e2afb3          	slt	t6,t0,t5
    3338:	01f38533          	add	a0,t2,t6
    333c:	00ee82b3          	add	t0,t4,a4
    3340:	fa5640e3          	blt	a2,t0,0x32e0
    3344:	00ef25b3          	slt	a1,t5,a4
    3348:	00b503b3          	add	t2,a0,a1
    334c:	0086a583          	lw	a1,8(a3)
    3350:	00b287b3          	add	a5,t0,a1
    3354:	faf640e3          	blt	a2,a5,0x32f4
    3358:	00b72f33          	slt	t5,a4,a1
    335c:	01e38eb3          	add	t4,t2,t5
    3360:	f9dff06f          	j	0x32fc
    3364:	00beafb3          	slt	t6,t4,a1
    3368:	01f50533          	add	a0,a0,t6
    336c:	f29ff06f          	j	0x3294
    3370:	00b3af33          	slt	t5,t2,a1
    3374:	01e50533          	add	a0,a0,t5
    3378:	f01ff06f          	j	0x3278
    337c:	00b722b3          	slt	t0,a4,a1
    3380:	00550533          	add	a0,a0,t0
    3384:	ed9ff06f          	j	0x325c
    3388:	00000513          	li	a0,0
    338c:	00008067          	ret
    3390:	20050a63          	beqz	a0,0x35a4
    3394:	fd010113          	addi	sp,sp,-48
    3398:	01412c23          	sw	s4,24(sp)
    339c:	00151a13          	slli	s4,a0,0x1
    33a0:	03212023          	sw	s2,32(sp)
    33a4:	01312e23          	sw	s3,28(sp)
    33a8:	01512a23          	sw	s5,20(sp)
    33ac:	01612823          	sw	s6,16(sp)
    33b0:	01712623          	sw	s7,12(sp)
    33b4:	01812423          	sw	s8,8(sp)
    33b8:	02112623          	sw	ra,44(sp)
    33bc:	02812423          	sw	s0,40(sp)
    33c0:	02912223          	sw	s1,36(sp)
    33c4:	00068913          	mv	s2,a3
    33c8:	00058c13          	mv	s8,a1
    33cc:	00050b93          	mv	s7,a0
    33d0:	014609b3          	add	s3,a2,s4
    33d4:	00000b13          	li	s6,0
    33d8:	00000a93          	li	s5,0
    33dc:	ffea0793          	addi	a5,s4,-2
    33e0:	0017d293          	srli	t0,a5,0x1
    33e4:	00128313          	addi	t1,t0,1
    33e8:	002b1413          	slli	s0,s6,0x2
    33ec:	00737393          	andi	t2,t1,7
    33f0:	008c0433          	add	s0,s8,s0
    33f4:	414984b3          	sub	s1,s3,s4
    33f8:	0e038063          	beqz	t2,0x34d8
    33fc:	00100713          	li	a4,1
    3400:	0ae38e63          	beq	t2,a4,0x34bc
    3404:	00200513          	li	a0,2
    3408:	08a38e63          	beq	t2,a0,0x34a4
    340c:	00300593          	li	a1,3
    3410:	06b38e63          	beq	t2,a1,0x348c
    3414:	00400613          	li	a2,4
    3418:	04c38e63          	beq	t2,a2,0x3474
    341c:	00500693          	li	a3,5
    3420:	02d38e63          	beq	t2,a3,0x345c
    3424:	00600813          	li	a6,6
    3428:	01038e63          	beq	t2,a6,0x3444
    342c:	00049503          	lh	a0,0(s1)
    3430:	00090593          	mv	a1,s2
    3434:	00248493          	addi	s1,s1,2
    3438:	d58ff0ef          	jal	0x2990
    343c:	00a42023          	sw	a0,0(s0)
    3440:	00440413          	addi	s0,s0,4
    3444:	00049503          	lh	a0,0(s1)
    3448:	00090593          	mv	a1,s2
    344c:	00248493          	addi	s1,s1,2
    3450:	d40ff0ef          	jal	0x2990
    3454:	00a42023          	sw	a0,0(s0)
    3458:	00440413          	addi	s0,s0,4
    345c:	00049503          	lh	a0,0(s1)
    3460:	00090593          	mv	a1,s2
    3464:	00248493          	addi	s1,s1,2
    3468:	d28ff0ef          	jal	0x2990
    346c:	00a42023          	sw	a0,0(s0)
    3470:	00440413          	addi	s0,s0,4
    3474:	00049503          	lh	a0,0(s1)
    3478:	00090593          	mv	a1,s2
    347c:	00248493          	addi	s1,s1,2
    3480:	d10ff0ef          	jal	0x2990
    3484:	00a42023          	sw	a0,0(s0)
    3488:	00440413          	addi	s0,s0,4
    348c:	00049503          	lh	a0,0(s1)
    3490:	00090593          	mv	a1,s2
    3494:	00248493          	addi	s1,s1,2
    3498:	cf8ff0ef          	jal	0x2990
    349c:	00a42023          	sw	a0,0(s0)
    34a0:	00440413          	addi	s0,s0,4
    34a4:	00049503          	lh	a0,0(s1)
    34a8:	00090593          	mv	a1,s2
    34ac:	00248493          	addi	s1,s1,2
    34b0:	ce0ff0ef          	jal	0x2990
    34b4:	00a42023          	sw	a0,0(s0)
    34b8:	00440413          	addi	s0,s0,4
    34bc:	00049503          	lh	a0,0(s1)
    34c0:	00090593          	mv	a1,s2
    34c4:	00248493          	addi	s1,s1,2
    34c8:	cc8ff0ef          	jal	0x2990
    34cc:	00a42023          	sw	a0,0(s0)
    34d0:	00440413          	addi	s0,s0,4
    34d4:	08998863          	beq	s3,s1,0x3564
    34d8:	00049503          	lh	a0,0(s1)
    34dc:	00090593          	mv	a1,s2
    34e0:	01048493          	addi	s1,s1,16
    34e4:	cacff0ef          	jal	0x2990
    34e8:	00a42023          	sw	a0,0(s0)
    34ec:	ff249503          	lh	a0,-14(s1)
    34f0:	00090593          	mv	a1,s2
    34f4:	02040413          	addi	s0,s0,32
    34f8:	c98ff0ef          	jal	0x2990
    34fc:	fea42223          	sw	a0,-28(s0)
    3500:	ff449503          	lh	a0,-12(s1)
    3504:	00090593          	mv	a1,s2
    3508:	c88ff0ef          	jal	0x2990
    350c:	fea42423          	sw	a0,-24(s0)
    3510:	ff649503          	lh	a0,-10(s1)
    3514:	00090593          	mv	a1,s2
    3518:	c78ff0ef          	jal	0x2990
    351c:	fea42623          	sw	a0,-20(s0)
    3520:	ff849503          	lh	a0,-8(s1)
    3524:	00090593          	mv	a1,s2
    3528:	c68ff0ef          	jal	0x2990
    352c:	fea42823          	sw	a0,-16(s0)
    3530:	ffa49503          	lh	a0,-6(s1)
    3534:	00090593          	mv	a1,s2
    3538:	c58ff0ef          	jal	0x2990
    353c:	fea42a23          	sw	a0,-12(s0)
    3540:	ffc49503          	lh	a0,-4(s1)
    3544:	00090593          	mv	a1,s2
    3548:	c48ff0ef          	jal	0x2990
    354c:	fea42c23          	sw	a0,-8(s0)
    3550:	ffe49503          	lh	a0,-2(s1)
    3554:	00090593          	mv	a1,s2
    3558:	c38ff0ef          	jal	0x2990
    355c:	fea42e23          	sw	a0,-4(s0)
    3560:	f6999ce3          	bne	s3,s1,0x34d8
    3564:	001a8a93          	addi	s5,s5,1
    3568:	017b0b33          	add	s6,s6,s7
    356c:	014989b3          	add	s3,s3,s4
    3570:	e75b96e3          	bne	s7,s5,0x33dc
    3574:	02c12083          	lw	ra,44(sp)
    3578:	02812403          	lw	s0,40(sp)
    357c:	02412483          	lw	s1,36(sp)
    3580:	02012903          	lw	s2,32(sp)
    3584:	01c12983          	lw	s3,28(sp)
    3588:	01812a03          	lw	s4,24(sp)
    358c:	01412a83          	lw	s5,20(sp)
    3590:	01012b03          	lw	s6,16(sp)
    3594:	00c12b83          	lw	s7,12(sp)
    3598:	00812c03          	lw	s8,8(sp)
    359c:	03010113          	addi	sp,sp,48
    35a0:	00008067          	ret
    35a4:	00008067          	ret
    35a8:	14050063          	beqz	a0,0x36e8
    35ac:	00151f93          	slli	t6,a0,0x1
    35b0:	01f586b3          	add	a3,a1,t6
    35b4:	00000293          	li	t0,0
    35b8:	ffef8713          	addi	a4,t6,-2
    35bc:	00175313          	srli	t1,a4,0x1
    35c0:	00130393          	addi	t2,t1,1
    35c4:	0073f813          	andi	a6,t2,7
    35c8:	41f687b3          	sub	a5,a3,t6
    35cc:	0a080463          	beqz	a6,0x3674
    35d0:	00100593          	li	a1,1
    35d4:	08b80663          	beq	a6,a1,0x3660
    35d8:	00200893          	li	a7,2
    35dc:	07180a63          	beq	a6,a7,0x3650
    35e0:	00300e13          	li	t3,3
    35e4:	05c80e63          	beq	a6,t3,0x3640
    35e8:	00400e93          	li	t4,4
    35ec:	05d80263          	beq	a6,t4,0x3630
    35f0:	00500f13          	li	t5,5
    35f4:	03e80663          	beq	a6,t5,0x3620
    35f8:	00600713          	li	a4,6
    35fc:	00e80a63          	beq	a6,a4,0x3610
    3600:	0007d303          	lhu	t1,0(a5)
    3604:	00278793          	addi	a5,a5,2
    3608:	006603b3          	add	t2,a2,t1
    360c:	fe779f23          	sh	t2,-2(a5)
    3610:	0007d803          	lhu	a6,0(a5)
    3614:	00278793          	addi	a5,a5,2
    3618:	010605b3          	add	a1,a2,a6
    361c:	feb79f23          	sh	a1,-2(a5)
    3620:	0007d883          	lhu	a7,0(a5)
    3624:	00278793          	addi	a5,a5,2
    3628:	01160e33          	add	t3,a2,a7
    362c:	ffc79f23          	sh	t3,-2(a5)
    3630:	0007de83          	lhu	t4,0(a5)
    3634:	00278793          	addi	a5,a5,2
    3638:	01d60f33          	add	t5,a2,t4
    363c:	ffe79f23          	sh	t5,-2(a5)
    3640:	0007d703          	lhu	a4,0(a5)
    3644:	00278793          	addi	a5,a5,2
    3648:	00e60333          	add	t1,a2,a4
    364c:	fe679f23          	sh	t1,-2(a5)
    3650:	0007d383          	lhu	t2,0(a5)
    3654:	00278793          	addi	a5,a5,2
    3658:	00760833          	add	a6,a2,t2
    365c:	ff079f23          	sh	a6,-2(a5)
    3660:	0007d583          	lhu	a1,0(a5)
    3664:	00278793          	addi	a5,a5,2
    3668:	00b608b3          	add	a7,a2,a1
    366c:	ff179f23          	sh	a7,-2(a5)
    3670:	06f68663          	beq	a3,a5,0x36dc
    3674:	0087d383          	lhu	t2,8(a5)
    3678:	00a7d803          	lhu	a6,10(a5)
    367c:	00c7d583          	lhu	a1,12(a5)
    3680:	0007df03          	lhu	t5,0(a5)
    3684:	0027de83          	lhu	t4,2(a5)
    3688:	0047de03          	lhu	t3,4(a5)
    368c:	0067d303          	lhu	t1,6(a5)
    3690:	00e7d703          	lhu	a4,14(a5)
    3694:	007608b3          	add	a7,a2,t2
    3698:	01e60f33          	add	t5,a2,t5
    369c:	010603b3          	add	t2,a2,a6
    36a0:	01d60eb3          	add	t4,a2,t4
    36a4:	00b60833          	add	a6,a2,a1
    36a8:	01c60e33          	add	t3,a2,t3
    36ac:	00660333          	add	t1,a2,t1
    36b0:	00e605b3          	add	a1,a2,a4
    36b4:	01e79023          	sh	t5,0(a5)
    36b8:	01d79123          	sh	t4,2(a5)
    36bc:	01c79223          	sh	t3,4(a5)
    36c0:	00679323          	sh	t1,6(a5)
    36c4:	01179423          	sh	a7,8(a5)
    36c8:	00779523          	sh	t2,10(a5)
    36cc:	01079623          	sh	a6,12(a5)
    36d0:	00b79723          	sh	a1,14(a5)
    36d4:	01078793          	addi	a5,a5,16
    36d8:	f8f69ee3          	bne	a3,a5,0x3674
    36dc:	00128293          	addi	t0,t0,1
    36e0:	01f686b3          	add	a3,a3,t6
    36e4:	ec551ae3          	bne	a0,t0,0x35b8
    36e8:	00008067          	ret
    36ec:	22050663          	beqz	a0,0x3918
    36f0:	fd010113          	addi	sp,sp,-48
    36f4:	01412c23          	sw	s4,24(sp)
    36f8:	01812423          	sw	s8,8(sp)
    36fc:	00151a13          	slli	s4,a0,0x1
    3700:	00251c13          	slli	s8,a0,0x2
    3704:	03212023          	sw	s2,32(sp)
    3708:	01312e23          	sw	s3,28(sp)
    370c:	01512a23          	sw	s5,20(sp)
    3710:	01612823          	sw	s6,16(sp)
    3714:	01712623          	sw	s7,12(sp)
    3718:	02112623          	sw	ra,44(sp)
    371c:	02812423          	sw	s0,40(sp)
    3720:	02912223          	sw	s1,36(sp)
    3724:	01912223          	sw	s9,4(sp)
    3728:	00068a93          	mv	s5,a3
    372c:	00060b93          	mv	s7,a2
    3730:	00050b13          	mv	s6,a0
    3734:	00058913          	mv	s2,a1
    3738:	01858c33          	add	s8,a1,s8
    373c:	01468a33          	add	s4,a3,s4
    3740:	00000993          	li	s3,0
    3744:	415a07b3          	sub	a5,s4,s5
    3748:	ffe78293          	addi	t0,a5,-2
    374c:	0012d313          	srli	t1,t0,0x1
    3750:	00130393          	addi	t2,t1,1
    3754:	00199493          	slli	s1,s3,0x1
    3758:	0073f513          	andi	a0,t2,7
    375c:	009b84b3          	add	s1,s7,s1
    3760:	000a8c93          	mv	s9,s5
    3764:	00000413          	li	s0,0
    3768:	0e050063          	beqz	a0,0x3848
    376c:	00100713          	li	a4,1
    3770:	0ae50e63          	beq	a0,a4,0x382c
    3774:	00200593          	li	a1,2
    3778:	08b50e63          	beq	a0,a1,0x3814
    377c:	00300613          	li	a2,3
    3780:	06c50e63          	beq	a0,a2,0x37fc
    3784:	00400693          	li	a3,4
    3788:	04d50e63          	beq	a0,a3,0x37e4
    378c:	00500813          	li	a6,5
    3790:	03050e63          	beq	a0,a6,0x37cc
    3794:	00600893          	li	a7,6
    3798:	01150e63          	beq	a0,a7,0x37b4
    379c:	00049503          	lh	a0,0(s1)
    37a0:	000a9583          	lh	a1,0(s5)
    37a4:	00248493          	addi	s1,s1,2
    37a8:	002a8c93          	addi	s9,s5,2
    37ac:	9e4ff0ef          	jal	0x2990
    37b0:	00050413          	mv	s0,a0
    37b4:	000c9583          	lh	a1,0(s9)
    37b8:	00049503          	lh	a0,0(s1)
    37bc:	002c8c93          	addi	s9,s9,2
    37c0:	00248493          	addi	s1,s1,2
    37c4:	9ccff0ef          	jal	0x2990
    37c8:	00a40433          	add	s0,s0,a0
    37cc:	000c9583          	lh	a1,0(s9)
    37d0:	00049503          	lh	a0,0(s1)
    37d4:	002c8c93          	addi	s9,s9,2
    37d8:	00248493          	addi	s1,s1,2
    37dc:	9b4ff0ef          	jal	0x2990
    37e0:	00a40433          	add	s0,s0,a0
    37e4:	000c9583          	lh	a1,0(s9)
    37e8:	00049503          	lh	a0,0(s1)
    37ec:	002c8c93          	addi	s9,s9,2
    37f0:	00248493          	addi	s1,s1,2
    37f4:	99cff0ef          	jal	0x2990
    37f8:	00a40433          	add	s0,s0,a0
    37fc:	000c9583          	lh	a1,0(s9)
    3800:	00049503          	lh	a0,0(s1)
    3804:	002c8c93          	addi	s9,s9,2
    3808:	00248493          	addi	s1,s1,2
    380c:	984ff0ef          	jal	0x2990
    3810:	00a40433          	add	s0,s0,a0
    3814:	000c9583          	lh	a1,0(s9)
    3818:	00049503          	lh	a0,0(s1)
    381c:	002c8c93          	addi	s9,s9,2
    3820:	00248493          	addi	s1,s1,2
    3824:	96cff0ef          	jal	0x2990
    3828:	00a40433          	add	s0,s0,a0
    382c:	000c9583          	lh	a1,0(s9)
    3830:	00049503          	lh	a0,0(s1)
    3834:	002c8c93          	addi	s9,s9,2
    3838:	00248493          	addi	s1,s1,2
    383c:	954ff0ef          	jal	0x2990
    3840:	00a40433          	add	s0,s0,a0
    3844:	099a0863          	beq	s4,s9,0x38d4
    3848:	000c9583          	lh	a1,0(s9)
    384c:	00049503          	lh	a0,0(s1)
    3850:	010c8c93          	addi	s9,s9,16
    3854:	01048493          	addi	s1,s1,16
    3858:	938ff0ef          	jal	0x2990
    385c:	ff2c9583          	lh	a1,-14(s9)
    3860:	00a40433          	add	s0,s0,a0
    3864:	ff249503          	lh	a0,-14(s1)
    3868:	928ff0ef          	jal	0x2990
    386c:	ff4c9583          	lh	a1,-12(s9)
    3870:	00a40433          	add	s0,s0,a0
    3874:	ff449503          	lh	a0,-12(s1)
    3878:	918ff0ef          	jal	0x2990
    387c:	ff6c9583          	lh	a1,-10(s9)
    3880:	00a40433          	add	s0,s0,a0
    3884:	ff649503          	lh	a0,-10(s1)
    3888:	908ff0ef          	jal	0x2990
    388c:	ff8c9583          	lh	a1,-8(s9)
    3890:	00a40433          	add	s0,s0,a0
    3894:	ff849503          	lh	a0,-8(s1)
    3898:	8f8ff0ef          	jal	0x2990
    389c:	ffac9583          	lh	a1,-6(s9)
    38a0:	00a40433          	add	s0,s0,a0
    38a4:	ffa49503          	lh	a0,-6(s1)
    38a8:	8e8ff0ef          	jal	0x2990
    38ac:	ffcc9583          	lh	a1,-4(s9)
    38b0:	00a40433          	add	s0,s0,a0
    38b4:	ffc49503          	lh	a0,-4(s1)
    38b8:	8d8ff0ef          	jal	0x2990
    38bc:	00a40433          	add	s0,s0,a0
    38c0:	ffec9583          	lh	a1,-2(s9)
    38c4:	ffe49503          	lh	a0,-2(s1)
    38c8:	8c8ff0ef          	jal	0x2990
    38cc:	00a40433          	add	s0,s0,a0
    38d0:	f79a1ce3          	bne	s4,s9,0x3848
    38d4:	00892023          	sw	s0,0(s2)
    38d8:	00490913          	addi	s2,s2,4
    38dc:	016989b3          	add	s3,s3,s6
    38e0:	e72c12e3          	bne	s8,s2,0x3744
    38e4:	02c12083          	lw	ra,44(sp)
    38e8:	02812403          	lw	s0,40(sp)
    38ec:	02412483          	lw	s1,36(sp)
    38f0:	02012903          	lw	s2,32(sp)
    38f4:	01c12983          	lw	s3,28(sp)
    38f8:	01812a03          	lw	s4,24(sp)
    38fc:	01412a83          	lw	s5,20(sp)
    3900:	01012b03          	lw	s6,16(sp)
    3904:	00c12b83          	lw	s7,12(sp)
    3908:	00812c03          	lw	s8,8(sp)
    390c:	00412c83          	lw	s9,4(sp)
    3910:	03010113          	addi	sp,sp,48
    3914:	00008067          	ret
    3918:	00008067          	ret
    391c:	28050463          	beqz	a0,0x3ba4
    3920:	fb010113          	addi	sp,sp,-80
    3924:	04912223          	sw	s1,68(sp)
    3928:	00151493          	slli	s1,a0,0x1
    392c:	03412c23          	sw	s4,56(sp)
    3930:	03512a23          	sw	s5,52(sp)
    3934:	03712623          	sw	s7,44(sp)
    3938:	03812423          	sw	s8,40(sp)
    393c:	03912223          	sw	s9,36(sp)
    3940:	04112623          	sw	ra,76(sp)
    3944:	04812423          	sw	s0,72(sp)
    3948:	05212023          	sw	s2,64(sp)
    394c:	03312e23          	sw	s3,60(sp)
    3950:	03612823          	sw	s6,48(sp)
    3954:	03a12023          	sw	s10,32(sp)
    3958:	01b12e23          	sw	s11,28(sp)
    395c:	00d12623          	sw	a3,12(sp)
    3960:	00b12423          	sw	a1,8(sp)
    3964:	00050b93          	mv	s7,a0
    3968:	00060a93          	mv	s5,a2
    396c:	00960a33          	add	s4,a2,s1
    3970:	00000c13          	li	s8,0
    3974:	00000c93          	li	s9,0
    3978:	00812783          	lw	a5,8(sp)
    397c:	00c12903          	lw	s2,12(sp)
    3980:	002c1993          	slli	s3,s8,0x2
    3984:	013789b3          	add	s3,a5,s3
    3988:	00000b13          	li	s6,0
    398c:	415a0733          	sub	a4,s4,s5
    3990:	ffe70293          	addi	t0,a4,-2
    3994:	0012d313          	srli	t1,t0,0x1
    3998:	00130393          	addi	t2,t1,1
    399c:	0073f513          	andi	a0,t2,7
    39a0:	00090413          	mv	s0,s2
    39a4:	000a8d93          	mv	s11,s5
    39a8:	00000d13          	li	s10,0
    39ac:	0e050063          	beqz	a0,0x3a8c
    39b0:	00100613          	li	a2,1
    39b4:	0ac50e63          	beq	a0,a2,0x3a70
    39b8:	00200593          	li	a1,2
    39bc:	08b50e63          	beq	a0,a1,0x3a58
    39c0:	00300693          	li	a3,3
    39c4:	06d50e63          	beq	a0,a3,0x3a40
    39c8:	00400813          	li	a6,4
    39cc:	05050e63          	beq	a0,a6,0x3a28
    39d0:	00500893          	li	a7,5
    39d4:	03150e63          	beq	a0,a7,0x3a10
    39d8:	00600e13          	li	t3,6
    39dc:	01c50e63          	beq	a0,t3,0x39f8
    39e0:	00091583          	lh	a1,0(s2)
    39e4:	000a9503          	lh	a0,0(s5)
    39e8:	002a8d93          	addi	s11,s5,2
    39ec:	00990433          	add	s0,s2,s1
    39f0:	fa1fe0ef          	jal	0x2990
    39f4:	00050d13          	mv	s10,a0
    39f8:	00041583          	lh	a1,0(s0)
    39fc:	000d9503          	lh	a0,0(s11)
    3a00:	00940433          	add	s0,s0,s1
    3a04:	002d8d93          	addi	s11,s11,2
    3a08:	f89fe0ef          	jal	0x2990
    3a0c:	00ad0d33          	add	s10,s10,a0
    3a10:	00041583          	lh	a1,0(s0)
    3a14:	000d9503          	lh	a0,0(s11)
    3a18:	00940433          	add	s0,s0,s1
    3a1c:	002d8d93          	addi	s11,s11,2
    3a20:	f71fe0ef          	jal	0x2990
    3a24:	00ad0d33          	add	s10,s10,a0
    3a28:	00041583          	lh	a1,0(s0)
    3a2c:	000d9503          	lh	a0,0(s11)
    3a30:	00940433          	add	s0,s0,s1
    3a34:	002d8d93          	addi	s11,s11,2
    3a38:	f59fe0ef          	jal	0x2990
    3a3c:	00ad0d33          	add	s10,s10,a0
    3a40:	00041583          	lh	a1,0(s0)
    3a44:	000d9503          	lh	a0,0(s11)
    3a48:	00940433          	add	s0,s0,s1
    3a4c:	002d8d93          	addi	s11,s11,2
    3a50:	f41fe0ef          	jal	0x2990
    3a54:	00ad0d33          	add	s10,s10,a0
    3a58:	00041583          	lh	a1,0(s0)
    3a5c:	000d9503          	lh	a0,0(s11)
    3a60:	00940433          	add	s0,s0,s1
    3a64:	002d8d93          	addi	s11,s11,2
    3a68:	f29fe0ef          	jal	0x2990
    3a6c:	00ad0d33          	add	s10,s10,a0
    3a70:	00041583          	lh	a1,0(s0)
    3a74:	000d9503          	lh	a0,0(s11)
    3a78:	002d8d93          	addi	s11,s11,2
    3a7c:	00940433          	add	s0,s0,s1
    3a80:	f11fe0ef          	jal	0x2990
    3a84:	00ad0d33          	add	s10,s10,a0
    3a88:	0bba0663          	beq	s4,s11,0x3b34
    3a8c:	00041583          	lh	a1,0(s0)
    3a90:	000d9503          	lh	a0,0(s11)
    3a94:	00940433          	add	s0,s0,s1
    3a98:	010d8d93          	addi	s11,s11,16
    3a9c:	ef5fe0ef          	jal	0x2990
    3aa0:	00041583          	lh	a1,0(s0)
    3aa4:	00ad0d33          	add	s10,s10,a0
    3aa8:	ff2d9503          	lh	a0,-14(s11)
    3aac:	00940433          	add	s0,s0,s1
    3ab0:	ee1fe0ef          	jal	0x2990
    3ab4:	00041583          	lh	a1,0(s0)
    3ab8:	00ad0d33          	add	s10,s10,a0
    3abc:	ff4d9503          	lh	a0,-12(s11)
    3ac0:	00940433          	add	s0,s0,s1
    3ac4:	ecdfe0ef          	jal	0x2990
    3ac8:	00041583          	lh	a1,0(s0)
    3acc:	00ad0d33          	add	s10,s10,a0
    3ad0:	ff6d9503          	lh	a0,-10(s11)
    3ad4:	00940433          	add	s0,s0,s1
    3ad8:	eb9fe0ef          	jal	0x2990
    3adc:	00041583          	lh	a1,0(s0)
    3ae0:	00ad0d33          	add	s10,s10,a0
    3ae4:	ff8d9503          	lh	a0,-8(s11)
    3ae8:	00940433          	add	s0,s0,s1
    3aec:	ea5fe0ef          	jal	0x2990
    3af0:	00041583          	lh	a1,0(s0)
    3af4:	00ad0d33          	add	s10,s10,a0
    3af8:	ffad9503          	lh	a0,-6(s11)
    3afc:	00940433          	add	s0,s0,s1
    3b00:	e91fe0ef          	jal	0x2990
    3b04:	00041583          	lh	a1,0(s0)
    3b08:	00ad0d33          	add	s10,s10,a0
    3b0c:	ffcd9503          	lh	a0,-4(s11)
    3b10:	00940433          	add	s0,s0,s1
    3b14:	e7dfe0ef          	jal	0x2990
    3b18:	00041583          	lh	a1,0(s0)
    3b1c:	00ad0d33          	add	s10,s10,a0
    3b20:	ffed9503          	lh	a0,-2(s11)
    3b24:	00940433          	add	s0,s0,s1
    3b28:	e69fe0ef          	jal	0x2990
    3b2c:	00ad0d33          	add	s10,s10,a0
    3b30:	f5ba1ee3          	bne	s4,s11,0x3a8c
    3b34:	01a9a023          	sw	s10,0(s3)
    3b38:	001b0e93          	addi	t4,s6,1
    3b3c:	00498993          	addi	s3,s3,4
    3b40:	00290913          	addi	s2,s2,2
    3b44:	01db8663          	beq	s7,t4,0x3b50
    3b48:	000e8b13          	mv	s6,t4
    3b4c:	e41ff06f          	j	0x398c
    3b50:	009a8ab3          	add	s5,s5,s1
    3b54:	017c0c33          	add	s8,s8,s7
    3b58:	009a0a33          	add	s4,s4,s1
    3b5c:	016c8663          	beq	s9,s6,0x3b68
    3b60:	001c8c93          	addi	s9,s9,1
    3b64:	e15ff06f          	j	0x3978
    3b68:	04c12083          	lw	ra,76(sp)
    3b6c:	04812403          	lw	s0,72(sp)
    3b70:	04412483          	lw	s1,68(sp)
    3b74:	04012903          	lw	s2,64(sp)
    3b78:	03c12983          	lw	s3,60(sp)
    3b7c:	03812a03          	lw	s4,56(sp)
    3b80:	03412a83          	lw	s5,52(sp)
    3b84:	03012b03          	lw	s6,48(sp)
    3b88:	02c12b83          	lw	s7,44(sp)
    3b8c:	02812c03          	lw	s8,40(sp)
    3b90:	02412c83          	lw	s9,36(sp)
    3b94:	02012d03          	lw	s10,32(sp)
    3b98:	01c12d83          	lw	s11,28(sp)
    3b9c:	05010113          	addi	sp,sp,80
    3ba0:	00008067          	ret
    3ba4:	00008067          	ret
    3ba8:	24050263          	beqz	a0,0x3dec
    3bac:	fb010113          	addi	sp,sp,-80
    3bb0:	04912223          	sw	s1,68(sp)
    3bb4:	00151493          	slli	s1,a0,0x1
    3bb8:	05212023          	sw	s2,64(sp)
    3bbc:	03512a23          	sw	s5,52(sp)
    3bc0:	03712623          	sw	s7,44(sp)
    3bc4:	03812423          	sw	s8,40(sp)
    3bc8:	03912223          	sw	s9,36(sp)
    3bcc:	04112623          	sw	ra,76(sp)
    3bd0:	04812423          	sw	s0,72(sp)
    3bd4:	03312e23          	sw	s3,60(sp)
    3bd8:	03412c23          	sw	s4,56(sp)
    3bdc:	03612823          	sw	s6,48(sp)
    3be0:	03a12023          	sw	s10,32(sp)
    3be4:	01b12e23          	sw	s11,28(sp)
    3be8:	00d12623          	sw	a3,12(sp)
    3bec:	00b12423          	sw	a1,8(sp)
    3bf0:	00050b93          	mv	s7,a0
    3bf4:	00060a93          	mv	s5,a2
    3bf8:	00960933          	add	s2,a2,s1
    3bfc:	00000c13          	li	s8,0
    3c00:	00000c93          	li	s9,0
    3c04:	00812783          	lw	a5,8(sp)
    3c08:	00c12983          	lw	s3,12(sp)
    3c0c:	002c1a13          	slli	s4,s8,0x2
    3c10:	01478a33          	add	s4,a5,s4
    3c14:	00000b13          	li	s6,0
    3c18:	415906b3          	sub	a3,s2,s5
    3c1c:	ffe68293          	addi	t0,a3,-2
    3c20:	0012d313          	srli	t1,t0,0x1
    3c24:	00130393          	addi	t2,t1,1
    3c28:	0033f513          	andi	a0,t2,3
    3c2c:	00098413          	mv	s0,s3
    3c30:	000a8d93          	mv	s11,s5
    3c34:	00000d13          	li	s10,0
    3c38:	08050e63          	beqz	a0,0x3cd4
    3c3c:	00100613          	li	a2,1
    3c40:	06c50263          	beq	a0,a2,0x3ca4
    3c44:	00200593          	li	a1,2
    3c48:	02b50863          	beq	a0,a1,0x3c78
    3c4c:	00099583          	lh	a1,0(s3)
    3c50:	000a9503          	lh	a0,0(s5)
    3c54:	002a8d93          	addi	s11,s5,2
    3c58:	d39fe0ef          	jal	0x2990
    3c5c:	40555713          	srai	a4,a0,0x5
    3c60:	40255413          	srai	s0,a0,0x2
    3c64:	00f47513          	andi	a0,s0,15
    3c68:	07f77593          	andi	a1,a4,127
    3c6c:	d25fe0ef          	jal	0x2990
    3c70:	00050d13          	mv	s10,a0
    3c74:	00998433          	add	s0,s3,s1
    3c78:	00041583          	lh	a1,0(s0)
    3c7c:	000d9503          	lh	a0,0(s11)
    3c80:	00940433          	add	s0,s0,s1
    3c84:	002d8d93          	addi	s11,s11,2
    3c88:	d09fe0ef          	jal	0x2990
    3c8c:	40555893          	srai	a7,a0,0x5
    3c90:	40255813          	srai	a6,a0,0x2
    3c94:	00f87513          	andi	a0,a6,15
    3c98:	07f8f593          	andi	a1,a7,127
    3c9c:	cf5fe0ef          	jal	0x2990
    3ca0:	00ad0d33          	add	s10,s10,a0
    3ca4:	00041583          	lh	a1,0(s0)
    3ca8:	000d9503          	lh	a0,0(s11)
    3cac:	002d8d93          	addi	s11,s11,2
    3cb0:	00940433          	add	s0,s0,s1
    3cb4:	cddfe0ef          	jal	0x2990
    3cb8:	40555e93          	srai	t4,a0,0x5
    3cbc:	40255e13          	srai	t3,a0,0x2
    3cc0:	00fe7513          	andi	a0,t3,15
    3cc4:	07fef593          	andi	a1,t4,127
    3cc8:	cc9fe0ef          	jal	0x2990
    3ccc:	00ad0d33          	add	s10,s10,a0
    3cd0:	0bb90663          	beq	s2,s11,0x3d7c
    3cd4:	00041583          	lh	a1,0(s0)
    3cd8:	000d9503          	lh	a0,0(s11)
    3cdc:	00940433          	add	s0,s0,s1
    3ce0:	008d8d93          	addi	s11,s11,8
    3ce4:	cadfe0ef          	jal	0x2990
    3ce8:	40555f93          	srai	t6,a0,0x5
    3cec:	40255f13          	srai	t5,a0,0x2
    3cf0:	07fff593          	andi	a1,t6,127
    3cf4:	00ff7513          	andi	a0,t5,15
    3cf8:	c99fe0ef          	jal	0x2990
    3cfc:	00041583          	lh	a1,0(s0)
    3d00:	00ad0d33          	add	s10,s10,a0
    3d04:	ffad9503          	lh	a0,-6(s11)
    3d08:	00940433          	add	s0,s0,s1
    3d0c:	c85fe0ef          	jal	0x2990
    3d10:	40555693          	srai	a3,a0,0x5
    3d14:	40255793          	srai	a5,a0,0x2
    3d18:	07f6f593          	andi	a1,a3,127
    3d1c:	00f7f513          	andi	a0,a5,15
    3d20:	c71fe0ef          	jal	0x2990
    3d24:	00041583          	lh	a1,0(s0)
    3d28:	00ad0d33          	add	s10,s10,a0
    3d2c:	ffcd9503          	lh	a0,-4(s11)
    3d30:	00940433          	add	s0,s0,s1
    3d34:	c5dfe0ef          	jal	0x2990
    3d38:	40555313          	srai	t1,a0,0x5
    3d3c:	40255293          	srai	t0,a0,0x2
    3d40:	07f37593          	andi	a1,t1,127
    3d44:	00f2f513          	andi	a0,t0,15
    3d48:	c49fe0ef          	jal	0x2990
    3d4c:	00041583          	lh	a1,0(s0)
    3d50:	00ad0d33          	add	s10,s10,a0
    3d54:	ffed9503          	lh	a0,-2(s11)
    3d58:	00940433          	add	s0,s0,s1
    3d5c:	c35fe0ef          	jal	0x2990
    3d60:	40555613          	srai	a2,a0,0x5
    3d64:	40255393          	srai	t2,a0,0x2
    3d68:	00f3f513          	andi	a0,t2,15
    3d6c:	07f67593          	andi	a1,a2,127
    3d70:	c21fe0ef          	jal	0x2990
    3d74:	00ad0d33          	add	s10,s10,a0
    3d78:	f5b91ee3          	bne	s2,s11,0x3cd4
    3d7c:	01aa2023          	sw	s10,0(s4)
    3d80:	001b0513          	addi	a0,s6,1
    3d84:	004a0a13          	addi	s4,s4,4
    3d88:	00298993          	addi	s3,s3,2
    3d8c:	00ab8663          	beq	s7,a0,0x3d98
    3d90:	00050b13          	mv	s6,a0
    3d94:	e85ff06f          	j	0x3c18
    3d98:	009a8ab3          	add	s5,s5,s1
    3d9c:	017c0c33          	add	s8,s8,s7
    3da0:	00990933          	add	s2,s2,s1
    3da4:	016c8663          	beq	s9,s6,0x3db0
    3da8:	001c8c93          	addi	s9,s9,1
    3dac:	e59ff06f          	j	0x3c04
    3db0:	04c12083          	lw	ra,76(sp)
    3db4:	04812403          	lw	s0,72(sp)
    3db8:	04412483          	lw	s1,68(sp)
    3dbc:	04012903          	lw	s2,64(sp)
    3dc0:	03c12983          	lw	s3,60(sp)
    3dc4:	03812a03          	lw	s4,56(sp)
    3dc8:	03412a83          	lw	s5,52(sp)
    3dcc:	03012b03          	lw	s6,48(sp)
    3dd0:	02c12b83          	lw	s7,44(sp)
    3dd4:	02812c03          	lw	s8,40(sp)
    3dd8:	02412c83          	lw	s9,36(sp)
    3ddc:	02012d03          	lw	s10,32(sp)
    3de0:	01c12d83          	lw	s11,28(sp)
    3de4:	05010113          	addi	sp,sp,80
    3de8:	00008067          	ret
    3dec:	00008067          	ret
    3df0:	0ff5f713          	zext.b	a4,a1
    3df4:	00871293          	slli	t0,a4,0x8
    3df8:	0085d593          	srli	a1,a1,0x8
    3dfc:	000017b7          	lui	a5,0x1
    3e00:	fffff337          	lui	t1,0xfffff
    3e04:	00b2e3b3          	or	t2,t0,a1
    3e08:	f0f78f13          	addi	t5,a5,-241 # 0xf0f
    3e0c:	0f030f93          	addi	t6,t1,240 # 0xfffff0f0
    3e10:	01e3f633          	and	a2,t2,t5
    3e14:	01f3f6b3          	and	a3,t2,t6
    3e18:	00461813          	slli	a6,a2,0x4
    3e1c:	0046d893          	srli	a7,a3,0x4
    3e20:	00f57e93          	andi	t4,a0,15
    3e24:	00003737          	lui	a4,0x3
    3e28:	ffffd5b7          	lui	a1,0xffffd
    3e2c:	01186e33          	or	t3,a6,a7
    3e30:	33370293          	addi	t0,a4,819 # 0x3333
    3e34:	ccc58393          	addi	t2,a1,-820 # 0xffffcccc
    3e38:	004e9793          	slli	a5,t4,0x4
    3e3c:	00455513          	srli	a0,a0,0x4
    3e40:	00a7e6b3          	or	a3,a5,a0
    3e44:	005e7333          	and	t1,t3,t0
    3e48:	007e7633          	and	a2,t3,t2
    3e4c:	00231813          	slli	a6,t1,0x2
    3e50:	00265893          	srli	a7,a2,0x2
    3e54:	0336fe13          	andi	t3,a3,51
    3e58:	0cc6f713          	andi	a4,a3,204
    3e5c:	000055b7          	lui	a1,0x5
    3e60:	ffffb7b7          	lui	a5,0xffffb
    3e64:	01186eb3          	or	t4,a6,a7
    3e68:	55558513          	addi	a0,a1,1365 # 0x5555
    3e6c:	aaa78313          	addi	t1,a5,-1366 # 0xffffaaaa
    3e70:	00275813          	srli	a6,a4,0x2
    3e74:	002e1613          	slli	a2,t3,0x2
    3e78:	01066e33          	or	t3,a2,a6
    3e7c:	00aef6b3          	and	a3,t4,a0
    3e80:	006ef8b3          	and	a7,t4,t1
    3e84:	0018d593          	srli	a1,a7,0x1
    3e88:	00169713          	slli	a4,a3,0x1
    3e8c:	055e7e93          	andi	t4,t3,85
    3e90:	0aae7793          	andi	a5,t3,170
    3e94:	00b76833          	or	a6,a4,a1
    3e98:	001e9693          	slli	a3,t4,0x1
    3e9c:	0017d613          	srli	a2,a5,0x1
    3ea0:	00c6ee33          	or	t3,a3,a2
    3ea4:	00885893          	srli	a7,a6,0x8
    3ea8:	01c8ceb3          	xor	t4,a7,t3
    3eac:	000197b7          	lui	a5,0x19
    3eb0:	001e9813          	slli	a6,t4,0x1
    3eb4:	87078693          	addi	a3,a5,-1936 # 0x18870
    3eb8:	00d80633          	add	a2,a6,a3
    3ebc:	00065883          	lhu	a7,0(a2)
    3ec0:	00b76733          	or	a4,a4,a1
    3ec4:	00871593          	slli	a1,a4,0x8
    3ec8:	00b8ce33          	xor	t3,a7,a1
    3ecc:	0ff8fe93          	zext.b	t4,a7
    3ed0:	010e1793          	slli	a5,t3,0x10
    3ed4:	0187d813          	srli	a6,a5,0x18
    3ed8:	008e9693          	slli	a3,t4,0x8
    3edc:	0106e633          	or	a2,a3,a6
    3ee0:	01e67f33          	and	t5,a2,t5
    3ee4:	01f67fb3          	and	t6,a2,t6
    3ee8:	004f1893          	slli	a7,t5,0x4
    3eec:	004fd713          	srli	a4,t6,0x4
    3ef0:	00e8e5b3          	or	a1,a7,a4
    3ef4:	0055f2b3          	and	t0,a1,t0
    3ef8:	0075f3b3          	and	t2,a1,t2
    3efc:	00229e13          	slli	t3,t0,0x2
    3f00:	0023de93          	srli	t4,t2,0x2
    3f04:	01de67b3          	or	a5,t3,t4
    3f08:	00a7f533          	and	a0,a5,a0
    3f0c:	0067f333          	and	t1,a5,t1
    3f10:	00151813          	slli	a6,a0,0x1
    3f14:	00135693          	srli	a3,t1,0x1
    3f18:	00d86533          	or	a0,a6,a3
    3f1c:	00008067          	ret
    3f20:	0ff5f793          	zext.b	a5,a1
    3f24:	00879293          	slli	t0,a5,0x8
    3f28:	0085d593          	srli	a1,a1,0x8
    3f2c:	00001737          	lui	a4,0x1
    3f30:	fffff337          	lui	t1,0xfffff
    3f34:	00b2e3b3          	or	t2,t0,a1
    3f38:	f0f70f93          	addi	t6,a4,-241 # 0xf0f
    3f3c:	0f030293          	addi	t0,t1,240 # 0xfffff0f0
    3f40:	01f3f633          	and	a2,t2,t6
    3f44:	0053f6b3          	and	a3,t2,t0
    3f48:	00461813          	slli	a6,a2,0x4
    3f4c:	0046d893          	srli	a7,a3,0x4
    3f50:	00f57e93          	andi	t4,a0,15
    3f54:	0f057f13          	andi	t5,a0,240
    3f58:	000037b7          	lui	a5,0x3
    3f5c:	ffffd5b7          	lui	a1,0xffffd
    3f60:	33378393          	addi	t2,a5,819 # 0x3333
    3f64:	ccc58313          	addi	t1,a1,-820 # 0xffffcccc
    3f68:	01186e33          	or	t3,a6,a7
    3f6c:	004e9713          	slli	a4,t4,0x4
    3f70:	004f5693          	srli	a3,t5,0x4
    3f74:	006e7833          	and	a6,t3,t1
    3f78:	00d768b3          	or	a7,a4,a3
    3f7c:	007e7633          	and	a2,t3,t2
    3f80:	00261e13          	slli	t3,a2,0x2
    3f84:	00285e93          	srli	t4,a6,0x2
    3f88:	0338f793          	andi	a5,a7,51
    3f8c:	0cc8f713          	andi	a4,a7,204
    3f90:	000055b7          	lui	a1,0x5
    3f94:	ffffb6b7          	lui	a3,0xffffb
    3f98:	01de6f33          	or	t5,t3,t4
    3f9c:	55558893          	addi	a7,a1,1365 # 0x5555
    3fa0:	aaa68813          	addi	a6,a3,-1366 # 0xffffaaaa
    3fa4:	00279e13          	slli	t3,a5,0x2
    3fa8:	00275e93          	srli	t4,a4,0x2
    3fac:	011f77b3          	and	a5,t5,a7
    3fb0:	010f7633          	and	a2,t5,a6
    3fb4:	01de6733          	or	a4,t3,t4
    3fb8:	00165693          	srli	a3,a2,0x1
    3fbc:	00179593          	slli	a1,a5,0x1
    3fc0:	05577f13          	andi	t5,a4,85
    3fc4:	0aa77e13          	andi	t3,a4,170
    3fc8:	00d5eeb3          	or	t4,a1,a3
    3fcc:	001e5613          	srli	a2,t3,0x1
    3fd0:	001f1793          	slli	a5,t5,0x1
    3fd4:	00c7ef33          	or	t5,a5,a2
    3fd8:	008ed713          	srli	a4,t4,0x8
    3fdc:	01e74eb3          	xor	t4,a4,t5
    3fe0:	00019e37          	lui	t3,0x19
    3fe4:	00d5e5b3          	or	a1,a1,a3
    3fe8:	870e0793          	addi	a5,t3,-1936 # 0x18870
    3fec:	001e9693          	slli	a3,t4,0x1
    3ff0:	00f68633          	add	a2,a3,a5
    3ff4:	00065703          	lhu	a4,0(a2)
    3ff8:	00859f13          	slli	t5,a1,0x8
    3ffc:	00855513          	srli	a0,a0,0x8
    4000:	01e74eb3          	xor	t4,a4,t5
    4004:	0ff77593          	zext.b	a1,a4
    4008:	010e9e13          	slli	t3,t4,0x10
    400c:	018e5613          	srli	a2,t3,0x18
    4010:	00859693          	slli	a3,a1,0x8
    4014:	00c6e733          	or	a4,a3,a2
    4018:	01f77f33          	and	t5,a4,t6
    401c:	00577eb3          	and	t4,a4,t0
    4020:	004f1593          	slli	a1,t5,0x4
    4024:	004ede13          	srli	t3,t4,0x4
    4028:	01c5e633          	or	a2,a1,t3
    402c:	007676b3          	and	a3,a2,t2
    4030:	00667733          	and	a4,a2,t1
    4034:	00269f13          	slli	t5,a3,0x2
    4038:	00275e93          	srli	t4,a4,0x2
    403c:	01df65b3          	or	a1,t5,t4
    4040:	0115fe33          	and	t3,a1,a7
    4044:	0105f6b3          	and	a3,a1,a6
    4048:	001e1613          	slli	a2,t3,0x1
    404c:	0016d713          	srli	a4,a3,0x1
    4050:	00e66f33          	or	t5,a2,a4
    4054:	0fff7e93          	zext.b	t4,t5
    4058:	008e9593          	slli	a1,t4,0x8
    405c:	008f5e13          	srli	t3,t5,0x8
    4060:	01c5e633          	or	a2,a1,t3
    4064:	01f676b3          	and	a3,a2,t6
    4068:	00567733          	and	a4,a2,t0
    406c:	00f57f13          	andi	t5,a0,15
    4070:	00475e93          	srli	t4,a4,0x4
    4074:	00469593          	slli	a1,a3,0x4
    4078:	01d5e6b3          	or	a3,a1,t4
    407c:	004f1e13          	slli	t3,t5,0x4
    4080:	00455513          	srli	a0,a0,0x4
    4084:	00ae6633          	or	a2,t3,a0
    4088:	0076f733          	and	a4,a3,t2
    408c:	0066ff33          	and	t5,a3,t1
    4090:	03367593          	andi	a1,a2,51
    4094:	002f5e93          	srli	t4,t5,0x2
    4098:	0cc67e13          	andi	t3,a2,204
    409c:	00271513          	slli	a0,a4,0x2
    40a0:	01d56733          	or	a4,a0,t4
    40a4:	002e5613          	srli	a2,t3,0x2
    40a8:	00259693          	slli	a3,a1,0x2
    40ac:	00c6e5b3          	or	a1,a3,a2
    40b0:	01177e33          	and	t3,a4,a7
    40b4:	01077533          	and	a0,a4,a6
    40b8:	0aa5fe93          	andi	t4,a1,170
    40bc:	00155713          	srli	a4,a0,0x1
    40c0:	0555ff13          	andi	t5,a1,85
    40c4:	001e1613          	slli	a2,t3,0x1
    40c8:	00e66e33          	or	t3,a2,a4
    40cc:	001f1593          	slli	a1,t5,0x1
    40d0:	001ed693          	srli	a3,t4,0x1
    40d4:	00d5e533          	or	a0,a1,a3
    40d8:	008e5f13          	srli	t5,t3,0x8
    40dc:	00af4eb3          	xor	t4,t5,a0
    40e0:	001e9613          	slli	a2,t4,0x1
    40e4:	00f607b3          	add	a5,a2,a5
    40e8:	0007d703          	lhu	a4,0(a5)
    40ec:	008e1593          	slli	a1,t3,0x8
    40f0:	00b74e33          	xor	t3,a4,a1
    40f4:	0ff77693          	zext.b	a3,a4
    40f8:	010e1513          	slli	a0,t3,0x10
    40fc:	01855f13          	srli	t5,a0,0x18
    4100:	00869e93          	slli	t4,a3,0x8
    4104:	01eee633          	or	a2,t4,t5
    4108:	01f67fb3          	and	t6,a2,t6
    410c:	005672b3          	and	t0,a2,t0
    4110:	004f9793          	slli	a5,t6,0x4
    4114:	0042d713          	srli	a4,t0,0x4
    4118:	00e7e5b3          	or	a1,a5,a4
    411c:	0075f3b3          	and	t2,a1,t2
    4120:	0065f333          	and	t1,a1,t1
    4124:	00239e13          	slli	t3,t2,0x2
    4128:	00235693          	srli	a3,t1,0x2
    412c:	00de6f33          	or	t5,t3,a3
    4130:	011f78b3          	and	a7,t5,a7
    4134:	010f7833          	and	a6,t5,a6
    4138:	00189513          	slli	a0,a7,0x1
    413c:	00185e93          	srli	t4,a6,0x1
    4140:	01d56533          	or	a0,a0,t4
    4144:	00008067          	ret
    4148:	0ff5f793          	zext.b	a5,a1
    414c:	00879293          	slli	t0,a5,0x8
    4150:	0085d593          	srli	a1,a1,0x8
    4154:	00001737          	lui	a4,0x1
    4158:	fffff8b7          	lui	a7,0xfffff
    415c:	f0f70393          	addi	t2,a4,-241 # 0xf0f
    4160:	00b2e333          	or	t1,t0,a1
    4164:	0f088293          	addi	t0,a7,240 # 0xfffff0f0
    4168:	007376b3          	and	a3,t1,t2
    416c:	00537633          	and	a2,t1,t0
    4170:	00469813          	slli	a6,a3,0x4
    4174:	00465e13          	srli	t3,a2,0x4
    4178:	00f57f13          	andi	t5,a0,15
    417c:	0f057f93          	andi	t6,a0,240
    4180:	000037b7          	lui	a5,0x3
    4184:	ffffd5b7          	lui	a1,0xffffd
    4188:	33378893          	addi	a7,a5,819 # 0x3333
    418c:	01c86eb3          	or	t4,a6,t3
    4190:	004f1713          	slli	a4,t5,0x4
    4194:	ccc58813          	addi	a6,a1,-820 # 0xffffcccc
    4198:	004fd613          	srli	a2,t6,0x4
    419c:	011ef333          	and	t1,t4,a7
    41a0:	010ef6b3          	and	a3,t4,a6
    41a4:	00c76eb3          	or	t4,a4,a2
    41a8:	00231e13          	slli	t3,t1,0x2
    41ac:	0026df13          	srli	t5,a3,0x2
    41b0:	033ef793          	andi	a5,t4,51
    41b4:	0ccef713          	andi	a4,t4,204
    41b8:	000055b7          	lui	a1,0x5
    41bc:	ffffb637          	lui	a2,0xffffb
    41c0:	55558693          	addi	a3,a1,1365 # 0x5555
    41c4:	01ee6fb3          	or	t6,t3,t5
    41c8:	aaa60593          	addi	a1,a2,-1366 # 0xffffaaaa
    41cc:	00279e13          	slli	t3,a5,0x2
    41d0:	00275e93          	srli	t4,a4,0x2
    41d4:	00dfff33          	and	t5,t6,a3
    41d8:	00bff333          	and	t1,t6,a1
    41dc:	01de6fb3          	or	t6,t3,t4
    41e0:	00135713          	srli	a4,t1,0x1
    41e4:	001f1793          	slli	a5,t5,0x1
    41e8:	055ff613          	andi	a2,t6,85
    41ec:	0aaffe13          	andi	t3,t6,170
    41f0:	00e7eeb3          	or	t4,a5,a4
    41f4:	001e5313          	srli	t1,t3,0x1
    41f8:	00161f13          	slli	t5,a2,0x1
    41fc:	006f6633          	or	a2,t5,t1
    4200:	008edf93          	srli	t6,t4,0x8
    4204:	00cfceb3          	xor	t4,t6,a2
    4208:	00e7e7b3          	or	a5,a5,a4
    420c:	00019737          	lui	a4,0x19
    4210:	87070313          	addi	t1,a4,-1936 # 0x18870
    4214:	001e9e13          	slli	t3,t4,0x1
    4218:	006e0f33          	add	t5,t3,t1
    421c:	000f5f83          	lhu	t6,0(t5)
    4220:	00879613          	slli	a2,a5,0x8
    4224:	00855793          	srli	a5,a0,0x8
    4228:	00cfceb3          	xor	t4,t6,a2
    422c:	010e9e13          	slli	t3,t4,0x10
    4230:	0ffff713          	zext.b	a4,t6
    4234:	018e5f13          	srli	t5,t3,0x18
    4238:	00871f93          	slli	t6,a4,0x8
    423c:	01efe633          	or	a2,t6,t5
    4240:	00767eb3          	and	t4,a2,t2
    4244:	00567733          	and	a4,a2,t0
    4248:	004e9e13          	slli	t3,t4,0x4
    424c:	00475f13          	srli	t5,a4,0x4
    4250:	01ee6fb3          	or	t6,t3,t5
    4254:	011ff633          	and	a2,t6,a7
    4258:	010ffeb3          	and	t4,t6,a6
    425c:	00261713          	slli	a4,a2,0x2
    4260:	002ede13          	srli	t3,t4,0x2
    4264:	01c76f33          	or	t5,a4,t3
    4268:	00df7fb3          	and	t6,t5,a3
    426c:	00bf7633          	and	a2,t5,a1
    4270:	001f9e93          	slli	t4,t6,0x1
    4274:	00165713          	srli	a4,a2,0x1
    4278:	00eeee33          	or	t3,t4,a4
    427c:	0ffe7f13          	zext.b	t5,t3
    4280:	008f1f93          	slli	t6,t5,0x8
    4284:	008e5613          	srli	a2,t3,0x8
    4288:	00cfe733          	or	a4,t6,a2
    428c:	00777eb3          	and	t4,a4,t2
    4290:	00577e33          	and	t3,a4,t0
    4294:	004e9f13          	slli	t5,t4,0x4
    4298:	004e5f93          	srli	t6,t3,0x4
    429c:	00f7f613          	andi	a2,a5,15
    42a0:	0f07f793          	andi	a5,a5,240
    42a4:	01ff6733          	or	a4,t5,t6
    42a8:	00461f93          	slli	t6,a2,0x4
    42ac:	0047df13          	srli	t5,a5,0x4
    42b0:	01177e33          	and	t3,a4,a7
    42b4:	01077eb3          	and	t4,a4,a6
    42b8:	01efe733          	or	a4,t6,t5
    42bc:	002e1613          	slli	a2,t3,0x2
    42c0:	002ed793          	srli	a5,t4,0x2
    42c4:	03377f13          	andi	t5,a4,51
    42c8:	0cc77e13          	andi	t3,a4,204
    42cc:	00f66fb3          	or	t6,a2,a5
    42d0:	002e5713          	srli	a4,t3,0x2
    42d4:	002f1e93          	slli	t4,t5,0x2
    42d8:	00dff633          	and	a2,t6,a3
    42dc:	00bff7b3          	and	a5,t6,a1
    42e0:	00eeef33          	or	t5,t4,a4
    42e4:	0017de13          	srli	t3,a5,0x1
    42e8:	055f7f93          	andi	t6,t5,85
    42ec:	0aaf7e93          	andi	t4,t5,170
    42f0:	00161713          	slli	a4,a2,0x1
    42f4:	01c76633          	or	a2,a4,t3
    42f8:	001f9793          	slli	a5,t6,0x1
    42fc:	001edf93          	srli	t6,t4,0x1
    4300:	01f7eeb3          	or	t4,a5,t6
    4304:	00865f13          	srli	t5,a2,0x8
    4308:	01df4633          	xor	a2,t5,t4
    430c:	01c76733          	or	a4,a4,t3
    4310:	00161e13          	slli	t3,a2,0x1
    4314:	006e07b3          	add	a5,t3,t1
    4318:	0007df83          	lhu	t6,0(a5)
    431c:	00871f13          	slli	t5,a4,0x8
    4320:	01055e93          	srli	t4,a0,0x10
    4324:	01efc733          	xor	a4,t6,t5
    4328:	01071e13          	slli	t3,a4,0x10
    432c:	0ffff613          	zext.b	a2,t6
    4330:	018e5793          	srli	a5,t3,0x18
    4334:	00861f93          	slli	t6,a2,0x8
    4338:	00ffef33          	or	t5,t6,a5
    433c:	007f7733          	and	a4,t5,t2
    4340:	005f7633          	and	a2,t5,t0
    4344:	00471e13          	slli	t3,a4,0x4
    4348:	00465793          	srli	a5,a2,0x4
    434c:	00fe6fb3          	or	t6,t3,a5
    4350:	011fff33          	and	t5,t6,a7
    4354:	010ff733          	and	a4,t6,a6
    4358:	002f1613          	slli	a2,t5,0x2
    435c:	00275e13          	srli	t3,a4,0x2
    4360:	01c667b3          	or	a5,a2,t3
    4364:	00d7ffb3          	and	t6,a5,a3
    4368:	00b7ff33          	and	t5,a5,a1
    436c:	001f9713          	slli	a4,t6,0x1
    4370:	001f5613          	srli	a2,t5,0x1
    4374:	00c767b3          	or	a5,a4,a2
    4378:	0ff7fe13          	zext.b	t3,a5
    437c:	008e1f93          	slli	t6,t3,0x8
    4380:	0087df13          	srli	t5,a5,0x8
    4384:	01efe733          	or	a4,t6,t5
    4388:	00777633          	and	a2,a4,t2
    438c:	005777b3          	and	a5,a4,t0
    4390:	00461f93          	slli	t6,a2,0x4
    4394:	0047de13          	srli	t3,a5,0x4
    4398:	00feff13          	andi	t5,t4,15
    439c:	0f0efe93          	andi	t4,t4,240
    43a0:	01cfe733          	or	a4,t6,t3
    43a4:	004f1793          	slli	a5,t5,0x4
    43a8:	004edf93          	srli	t6,t4,0x4
    43ac:	01077633          	and	a2,a4,a6
    43b0:	01f7ee33          	or	t3,a5,t6
    43b4:	01177f33          	and	t5,a4,a7
    43b8:	002f1713          	slli	a4,t5,0x2
    43bc:	00265e93          	srli	t4,a2,0x2
    43c0:	033e7f93          	andi	t6,t3,51
    43c4:	0cce7f13          	andi	t5,t3,204
    43c8:	01d767b3          	or	a5,a4,t4
    43cc:	002f9613          	slli	a2,t6,0x2
    43d0:	002f5713          	srli	a4,t5,0x2
    43d4:	00d7fe33          	and	t3,a5,a3
    43d8:	00b7feb3          	and	t4,a5,a1
    43dc:	00e667b3          	or	a5,a2,a4
    43e0:	0557ff93          	andi	t6,a5,85
    43e4:	001e1713          	slli	a4,t3,0x1
    43e8:	0aa7f613          	andi	a2,a5,170
    43ec:	001ede13          	srli	t3,t4,0x1
    43f0:	01c76f33          	or	t5,a4,t3
    43f4:	001f9e93          	slli	t4,t6,0x1
    43f8:	00165793          	srli	a5,a2,0x1
    43fc:	00fee633          	or	a2,t4,a5
    4400:	008f5f93          	srli	t6,t5,0x8
    4404:	00cfcf33          	xor	t5,t6,a2
    4408:	001f1e93          	slli	t4,t5,0x1
    440c:	006e87b3          	add	a5,t4,t1
    4410:	0007df83          	lhu	t6,0(a5)
    4414:	01c76733          	or	a4,a4,t3
    4418:	00871e13          	slli	t3,a4,0x8
    441c:	01cfcf33          	xor	t5,t6,t3
    4420:	010f1e93          	slli	t4,t5,0x10
    4424:	0ffff613          	zext.b	a2,t6
    4428:	018ed793          	srli	a5,t4,0x18
    442c:	00861f93          	slli	t6,a2,0x8
    4430:	00ffe733          	or	a4,t6,a5
    4434:	00777e33          	and	t3,a4,t2
    4438:	00577f33          	and	t5,a4,t0
    443c:	004e1e93          	slli	t4,t3,0x4
    4440:	004f5613          	srli	a2,t5,0x4
    4444:	00cee7b3          	or	a5,t4,a2
    4448:	0117ffb3          	and	t6,a5,a7
    444c:	0107f733          	and	a4,a5,a6
    4450:	002f9f13          	slli	t5,t6,0x2
    4454:	00275e13          	srli	t3,a4,0x2
    4458:	01cf6eb3          	or	t4,t5,t3
    445c:	00def7b3          	and	a5,t4,a3
    4460:	00bef633          	and	a2,t4,a1
    4464:	00179f93          	slli	t6,a5,0x1
    4468:	00165713          	srli	a4,a2,0x1
    446c:	00efef33          	or	t5,t6,a4
    4470:	0fff7e13          	zext.b	t3,t5
    4474:	008e1e93          	slli	t4,t3,0x8
    4478:	008f5793          	srli	a5,t5,0x8
    447c:	00fee633          	or	a2,t4,a5
    4480:	00767fb3          	and	t6,a2,t2
    4484:	00567733          	and	a4,a2,t0
    4488:	01855513          	srli	a0,a0,0x18
    448c:	00f57f13          	andi	t5,a0,15
    4490:	00475e13          	srli	t3,a4,0x4
    4494:	004f9e93          	slli	t4,t6,0x4
    4498:	01ceefb3          	or	t6,t4,t3
    449c:	004f1793          	slli	a5,t5,0x4
    44a0:	00455613          	srli	a2,a0,0x4
    44a4:	00c7e533          	or	a0,a5,a2
    44a8:	011ff733          	and	a4,t6,a7
    44ac:	010fff33          	and	t5,t6,a6
    44b0:	03357793          	andi	a5,a0,51
    44b4:	002f5e93          	srli	t4,t5,0x2
    44b8:	0cc57f93          	andi	t6,a0,204
    44bc:	00271e13          	slli	t3,a4,0x2
    44c0:	01de6733          	or	a4,t3,t4
    44c4:	002fd513          	srli	a0,t6,0x2
    44c8:	00279613          	slli	a2,a5,0x2
    44cc:	00a667b3          	or	a5,a2,a0
    44d0:	00d77fb3          	and	t6,a4,a3
    44d4:	00b77e33          	and	t3,a4,a1
    44d8:	0aa7fe93          	andi	t4,a5,170
    44dc:	001e5713          	srli	a4,t3,0x1
    44e0:	0557ff13          	andi	t5,a5,85
    44e4:	001f9513          	slli	a0,t6,0x1
    44e8:	00e56fb3          	or	t6,a0,a4
    44ec:	001f1793          	slli	a5,t5,0x1
    44f0:	001ed613          	srli	a2,t4,0x1
    44f4:	00c7ee33          	or	t3,a5,a2
    44f8:	008fdf13          	srli	t5,t6,0x8
    44fc:	01cf4eb3          	xor	t4,t5,t3
    4500:	001e9513          	slli	a0,t4,0x1
    4504:	00650333          	add	t1,a0,t1
    4508:	00035703          	lhu	a4,0(t1)
    450c:	008f9793          	slli	a5,t6,0x8
    4510:	00f74fb3          	xor	t6,a4,a5
    4514:	0ff77613          	zext.b	a2,a4
    4518:	010f9e13          	slli	t3,t6,0x10
    451c:	018e5f13          	srli	t5,t3,0x18
    4520:	00861e93          	slli	t4,a2,0x8
    4524:	01eee533          	or	a0,t4,t5
    4528:	007573b3          	and	t2,a0,t2
    452c:	005572b3          	and	t0,a0,t0
    4530:	00439313          	slli	t1,t2,0x4
    4534:	0042d713          	srli	a4,t0,0x4
    4538:	00e36fb3          	or	t6,t1,a4
    453c:	011ff8b3          	and	a7,t6,a7
    4540:	010ff833          	and	a6,t6,a6
    4544:	00289793          	slli	a5,a7,0x2
    4548:	00285613          	srli	a2,a6,0x2
    454c:	00c7ee33          	or	t3,a5,a2
    4550:	00de76b3          	and	a3,t3,a3
    4554:	00be75b3          	and	a1,t3,a1
    4558:	00169f13          	slli	t5,a3,0x1
    455c:	0015de93          	srli	t4,a1,0x1
    4560:	01df6533          	or	a0,t5,t4
    4564:	00008067          	ret
    4568:	0ff5f793          	zext.b	a5,a1
    456c:	00879293          	slli	t0,a5,0x8
    4570:	0085d593          	srli	a1,a1,0x8
    4574:	00001737          	lui	a4,0x1
    4578:	fffff337          	lui	t1,0xfffff
    457c:	00b2e3b3          	or	t2,t0,a1
    4580:	f0f70f93          	addi	t6,a4,-241 # 0xf0f
    4584:	0f030293          	addi	t0,t1,240 # 0xfffff0f0
    4588:	01f3f633          	and	a2,t2,t6
    458c:	0053f6b3          	and	a3,t2,t0
    4590:	00461813          	slli	a6,a2,0x4
    4594:	0046d893          	srli	a7,a3,0x4
    4598:	00f57e93          	andi	t4,a0,15
    459c:	0f057f13          	andi	t5,a0,240
    45a0:	000037b7          	lui	a5,0x3
    45a4:	ffffd5b7          	lui	a1,0xffffd
    45a8:	33378393          	addi	t2,a5,819 # 0x3333
    45ac:	ccc58313          	addi	t1,a1,-820 # 0xffffcccc
    45b0:	01186e33          	or	t3,a6,a7
    45b4:	004e9713          	slli	a4,t4,0x4
    45b8:	004f5693          	srli	a3,t5,0x4
    45bc:	006e7833          	and	a6,t3,t1
    45c0:	00d768b3          	or	a7,a4,a3
    45c4:	007e7633          	and	a2,t3,t2
    45c8:	00261e13          	slli	t3,a2,0x2
    45cc:	00285e93          	srli	t4,a6,0x2
    45d0:	0338f793          	andi	a5,a7,51
    45d4:	0cc8f713          	andi	a4,a7,204
    45d8:	000055b7          	lui	a1,0x5
    45dc:	ffffb6b7          	lui	a3,0xffffb
    45e0:	01de6f33          	or	t5,t3,t4
    45e4:	55558893          	addi	a7,a1,1365 # 0x5555
    45e8:	aaa68813          	addi	a6,a3,-1366 # 0xffffaaaa
    45ec:	00279e13          	slli	t3,a5,0x2
    45f0:	00275e93          	srli	t4,a4,0x2
    45f4:	011f77b3          	and	a5,t5,a7
    45f8:	010f7633          	and	a2,t5,a6
    45fc:	01de6733          	or	a4,t3,t4
    4600:	00165693          	srli	a3,a2,0x1
    4604:	00179593          	slli	a1,a5,0x1
    4608:	05577f13          	andi	t5,a4,85
    460c:	0aa77e13          	andi	t3,a4,170
    4610:	00d5eeb3          	or	t4,a1,a3
    4614:	001e5613          	srli	a2,t3,0x1
    4618:	001f1793          	slli	a5,t5,0x1
    461c:	00c7ef33          	or	t5,a5,a2
    4620:	008ed713          	srli	a4,t4,0x8
    4624:	01e74eb3          	xor	t4,a4,t5
    4628:	00019e37          	lui	t3,0x19
    462c:	00d5e5b3          	or	a1,a1,a3
    4630:	870e0793          	addi	a5,t3,-1936 # 0x18870
    4634:	001e9693          	slli	a3,t4,0x1
    4638:	00f68633          	add	a2,a3,a5
    463c:	00065703          	lhu	a4,0(a2)
    4640:	00859f13          	slli	t5,a1,0x8
    4644:	00855513          	srli	a0,a0,0x8
    4648:	01e74eb3          	xor	t4,a4,t5
    464c:	0ff77593          	zext.b	a1,a4
    4650:	010e9e13          	slli	t3,t4,0x10
    4654:	018e5613          	srli	a2,t3,0x18
    4658:	00859693          	slli	a3,a1,0x8
    465c:	00c6e733          	or	a4,a3,a2
    4660:	01f77f33          	and	t5,a4,t6
    4664:	00577eb3          	and	t4,a4,t0
    4668:	004f1593          	slli	a1,t5,0x4
    466c:	004ede13          	srli	t3,t4,0x4
    4670:	01c5e633          	or	a2,a1,t3
    4674:	007676b3          	and	a3,a2,t2
    4678:	00667733          	and	a4,a2,t1
    467c:	00269f13          	slli	t5,a3,0x2
    4680:	00275e93          	srli	t4,a4,0x2
    4684:	01df65b3          	or	a1,t5,t4
    4688:	0115fe33          	and	t3,a1,a7
    468c:	0105f6b3          	and	a3,a1,a6
    4690:	001e1613          	slli	a2,t3,0x1
    4694:	0016d713          	srli	a4,a3,0x1
    4698:	00e66f33          	or	t5,a2,a4
    469c:	0fff7e93          	zext.b	t4,t5
    46a0:	008e9593          	slli	a1,t4,0x8
    46a4:	008f5e13          	srli	t3,t5,0x8
    46a8:	01c5e633          	or	a2,a1,t3
    46ac:	01f676b3          	and	a3,a2,t6
    46b0:	00567733          	and	a4,a2,t0
    46b4:	00f57f13          	andi	t5,a0,15
    46b8:	00475e93          	srli	t4,a4,0x4
    46bc:	0f057513          	andi	a0,a0,240
    46c0:	00469593          	slli	a1,a3,0x4
    46c4:	01d5e6b3          	or	a3,a1,t4
    46c8:	004f1e13          	slli	t3,t5,0x4
    46cc:	00455613          	srli	a2,a0,0x4
    46d0:	0076ff33          	and	t5,a3,t2
    46d4:	0066f5b3          	and	a1,a3,t1
    46d8:	00ce6733          	or	a4,t3,a2
    46dc:	03377e13          	andi	t3,a4,51
    46e0:	0025de93          	srli	t4,a1,0x2
    46e4:	0cc77613          	andi	a2,a4,204
    46e8:	002f1513          	slli	a0,t5,0x2
    46ec:	01d56f33          	or	t5,a0,t4
    46f0:	002e1693          	slli	a3,t3,0x2
    46f4:	00265713          	srli	a4,a2,0x2
    46f8:	00e6e5b3          	or	a1,a3,a4
    46fc:	011f7e33          	and	t3,t5,a7
    4700:	010f7533          	and	a0,t5,a6
    4704:	0555fe93          	andi	t4,a1,85
    4708:	00155713          	srli	a4,a0,0x1
    470c:	0aa5f693          	andi	a3,a1,170
    4710:	001e1613          	slli	a2,t3,0x1
    4714:	00e66e33          	or	t3,a2,a4
    4718:	001e9f13          	slli	t5,t4,0x1
    471c:	0016d593          	srli	a1,a3,0x1
    4720:	00bf6533          	or	a0,t5,a1
    4724:	008e5e93          	srli	t4,t3,0x8
    4728:	00aec6b3          	xor	a3,t4,a0
    472c:	00169613          	slli	a2,a3,0x1
    4730:	00f607b3          	add	a5,a2,a5
    4734:	0007d703          	lhu	a4,0(a5)
    4738:	008e1f13          	slli	t5,t3,0x8
    473c:	01e745b3          	xor	a1,a4,t5
    4740:	0ff77e13          	zext.b	t3,a4
    4744:	01059513          	slli	a0,a1,0x10
    4748:	01855e93          	srli	t4,a0,0x18
    474c:	008e1693          	slli	a3,t3,0x8
    4750:	01d6e633          	or	a2,a3,t4
    4754:	01f67fb3          	and	t6,a2,t6
    4758:	005672b3          	and	t0,a2,t0
    475c:	004f9793          	slli	a5,t6,0x4
    4760:	0042d713          	srli	a4,t0,0x4
    4764:	00e7ef33          	or	t5,a5,a4
    4768:	007f73b3          	and	t2,t5,t2
    476c:	006f7333          	and	t1,t5,t1
    4770:	00239593          	slli	a1,t2,0x2
    4774:	00235e13          	srli	t3,t1,0x2
    4778:	01c5eeb3          	or	t4,a1,t3
    477c:	011ef8b3          	and	a7,t4,a7
    4780:	010ef833          	and	a6,t4,a6
    4784:	00189513          	slli	a0,a7,0x1
    4788:	00185693          	srli	a3,a6,0x1
    478c:	00d56533          	or	a0,a0,a3
    4790:	00008067          	ret

Disassembly of section .data:

00010000 <.data>:
   10000:	8e8c                	.insn	2, 0x8e8c
   10002:	0001                	nop
   10004:	8e94                	.insn	2, 0x8e94
   10006:	0001                	nop
   10008:	8e9c                	.insn	2, 0x8e9c
   1000a:	0001                	nop

Disassembly of section .sdata:

0001000c <.sdata>:
   1000c:	0001                	nop
   1000e:	0000                	unimp
   10010:	000a                	c.slli	zero,0x2
   10012:	0000                	unimp
   10014:	0066                	c.slli	zero,0x19
	...

Disassembly of section .rodata:

000107f4 <.rodata>:
	...
   187f4:	d4b0                	sw	a2,104(s1)
   187f6:	3340                	fld	fs0,160(a4)
   187f8:	6a79                	lui	s4,0x1e
   187fa:	e714                	fsw	fa3,8(a4)
   187fc:	e3c1                	bnez	a5,0x1887c
   187fe:	0000                	unimp
   18800:	be52                	fsd	fs4,312(sp)
   18802:	1199                	addi	gp,gp,-26
   18804:	5608                	lw	a0,40(a2)
   18806:	07471fd7          	.insn	4, 0x07471fd7
   1880a:	0000                	unimp
   1880c:	39bf5e47          	fmsub.s	ft8,ft10,fs11,ft7,unknown
   18810:	e5a4                	fsw	fs1,72(a1)
   18812:	8e3a                	mv	t3,a4
   18814:	8d84                	.insn	2, 0x8d84
   18816:	ffff                	.insn	2, 0xffff
   18818:	8f34                	.insn	2, 0x8f34
   1881a:	0001                	nop
   1881c:	8f3c                	.insn	2, 0x8f3c
   1881e:	0001                	nop
   18820:	8f44                	.insn	2, 0x8f44
   18822:	0001                	nop
   18824:	8f4c                	.insn	2, 0x8f4c
   18826:	0001                	nop
   18828:	8f04                	.insn	2, 0x8f04
   1882a:	0001                	nop
   1882c:	8f10                	.insn	2, 0x8f10
   1882e:	0001                	nop
   18830:	8f1c                	.insn	2, 0x8f1c
   18832:	0001                	nop
   18834:	8f28                	.insn	2, 0x8f28
   18836:	0001                	nop
   18838:	8ed4                	.insn	2, 0x8ed4
   1883a:	0001                	nop
   1883c:	8ee0                	.insn	2, 0x8ee0
   1883e:	0001                	nop
   18840:	8eec                	.insn	2, 0x8eec
   18842:	0001                	nop
   18844:	8ef8                	.insn	2, 0x8ef8
   18846:	0001                	nop
   18848:	8ea4                	.insn	2, 0x8ea4
   1884a:	0001                	nop
   1884c:	8eb0                	.insn	2, 0x8eb0
   1884e:	0001                	nop
   18850:	8ebc                	.insn	2, 0x8ebc
   18852:	0001                	nop
   18854:	8ec8                	.insn	2, 0x8ec8
   18856:	0001                	nop
   18858:	2844                	fld	fs1,144(s0)
   1885a:	0000                	unimp
   1885c:	2814                	fld	fa3,16(s0)
   1885e:	0000                	unimp
   18860:	2820                	fld	fs0,80(s0)
   18862:	0000                	unimp
   18864:	282c                	fld	fa1,80(s0)
   18866:	0000                	unimp
   18868:	2838                	fld	fa4,80(s0)
   1886a:	0000                	unimp
   1886c:	2808                	fld	fa0,16(s0)
   1886e:	0000                	unimp
   18870:	0000                	unimp
   18872:	8005                	srli	s0,s0,0x1
   18874:	000a800f          	.insn	4, 0x000a800f
   18878:	001e801b          	.insn	4, 0x001e801b
   1887c:	0014                	.insn	2, 0x0014
   1887e:	8011                	srli	s0,s0,0x4
   18880:	00368033          	add	zero,a3,gp
   18884:	003c                	addi	a5,sp,8
   18886:	8039                	srli	s0,s0,0xe
   18888:	0028                	addi	a0,sp,8
   1888a:	802d                	srli	s0,s0,0xb
   1888c:	00228027          	.insn	4, 0x00228027
   18890:	00668063          	beq	a3,t1,0x18890
   18894:	006c                	addi	a1,sp,12
   18896:	8069                	srli	s0,s0,0x1a
   18898:	0078                	addi	a4,sp,12
   1889a:	807d                	srli	s0,s0,0x1f
   1889c:	00728077          	.insn	4, 0x00728077
   188a0:	0050                	addi	a2,sp,4
   188a2:	8055                	srli	s0,s0,0x15
   188a4:	805f 005a 804b      	.insn	6, 0x804b005a805f
   188aa:	004e                	c.slli	zero,0x13
   188ac:	0044                	addi	s1,sp,4
   188ae:	8041                	srli	s0,s0,0x10
   188b0:	00c680c3          	fmadd.s	ft1,fa3,fa2,ft0,rne
   188b4:	00cc                	addi	a1,sp,68
   188b6:	80c9                	srli	s1,s1,0x12
   188b8:	00d8                	addi	a4,sp,68
   188ba:	80dd                	srli	s1,s1,0x17
   188bc:	00d280d7          	.insn	4, 0x00d280d7
   188c0:	00f0                	addi	a2,sp,76
   188c2:	80f5                	srli	s1,s1,0x1d
   188c4:	80ff 00fa 80eb 00ee 	.insn	10, 0x00e400ee80eb00fa80ff
   188cc:	00e4 
   188ce:	80e1                	srli	s1,s1,0x18
   188d0:	00a0                	addi	s0,sp,72
   188d2:	80a5                	srli	s1,s1,0x9
   188d4:	00aa80af          	.insn	4, 0x00aa80af
   188d8:	00be80bb          	.insn	4, 0x00be80bb
   188dc:	00b4                	addi	a3,sp,72
   188de:	80b1                	srli	s1,s1,0xc
   188e0:	00968093          	addi	ra,a3,9
   188e4:	009c                	addi	a5,sp,64
   188e6:	8099                	srli	s1,s1,0x6
   188e8:	0088                	addi	a0,sp,64
   188ea:	808d                	srli	s1,s1,0x3
   188ec:	00828087          	.insn	4, 0x00828087
   188f0:	01868183          	lb	gp,24(a3)
   188f4:	018c                	addi	a1,sp,192
   188f6:	8189                	srli	a1,a1,0x2
   188f8:	0198                	addi	a4,sp,192
   188fa:	819d                	srli	a1,a1,0x7
   188fc:	01928197          	auipc	gp,0x1928
   18900:	01b0                	addi	a2,sp,200
   18902:	81b5                	srli	a1,a1,0xd
   18904:	01ba81bf 01ae81ab 	.insn	8, 0x01ae81ab01ba81bf
   1890c:	01a4                	addi	s1,sp,200
   1890e:	81a1                	srli	a1,a1,0x8
   18910:	01e0                	addi	s0,sp,204
   18912:	81e5                	srli	a1,a1,0x19
   18914:	01ea81ef          	jal	gp,0xc0932
   18918:	01fe81fb          	.insn	4, 0x01fe81fb
   1891c:	01f4                	addi	a3,sp,204
   1891e:	81f1                	srli	a1,a1,0x1c
   18920:	01d681d3          	fadd.s	ft3,fa3,ft9,rne
   18924:	01dc                	addi	a5,sp,196
   18926:	81d9                	srli	a1,a1,0x16
   18928:	01c8                	addi	a0,sp,196
   1892a:	81cd                	srli	a1,a1,0x13
   1892c:	01c281c7          	fmsub.s	ft3,ft5,ft8,ft0,rne
   18930:	0140                	addi	s0,sp,132
   18932:	8145                	srli	a0,a0,0x11
   18934:	014a814f          	fnmadd.s	ft2,fs5,fs4,ft0,rne
   18938:	015e815b          	.insn	4, 0x015e815b
   1893c:	0154                	addi	a3,sp,132
   1893e:	8151                	srli	a0,a0,0x14
   18940:	01768173          	.insn	4, 0x01768173
   18944:	017c                	addi	a5,sp,140
   18946:	8179                	srli	a0,a0,0x1e
   18948:	0168                	addi	a0,sp,140
   1894a:	816d                	srli	a0,a0,0x1b
   1894c:	01628167          	jalr	sp,22(t0)
   18950:	01268123          	sb	s2,2(a3)
   18954:	012c                	addi	a1,sp,136
   18956:	8129                	srli	a0,a0,0xa
   18958:	0138                	addi	a4,sp,136
   1895a:	813d                	srli	a0,a0,0xf
   1895c:	01328137          	lui	sp,0x1328
   18960:	0110                	addi	a2,sp,128
   18962:	8115                	srli	a0,a0,0x5
   18964:	811f 011a 810b      	.insn	6, 0x810b011a811f
   1896a:	010e                	slli	sp,sp,0x3
   1896c:	0104                	addi	s1,sp,128
   1896e:	8101                	c.srli64	a0
   18970:	03068303          	lb	t1,48(a3)
   18974:	030c                	addi	a1,sp,384
   18976:	8309                	srli	a4,a4,0x2
   18978:	0318                	addi	a4,sp,384
   1897a:	831d                	srli	a4,a4,0x7
   1897c:	03128317          	auipc	t1,0x3128
   18980:	0330                	addi	a2,sp,392
   18982:	8335                	srli	a4,a4,0xd
   18984:	033a833f 032e832b 	.insn	8, 0x032e832b033a833f
   1898c:	0324                	addi	s1,sp,392
   1898e:	8321                	srli	a4,a4,0x8
   18990:	0360                	addi	s0,sp,396
   18992:	8365                	srli	a4,a4,0x19
   18994:	036a836f          	jal	t1,0xc09ca
   18998:	037e837b          	.insn	4, 0x037e837b
   1899c:	0374                	addi	a3,sp,396
   1899e:	8371                	srli	a4,a4,0x1c
   189a0:	03568353          	fadd.d	ft6,fa3,fs5,rne
   189a4:	035c                	addi	a5,sp,388
   189a6:	8359                	srli	a4,a4,0x16
   189a8:	0348                	addi	a0,sp,388
   189aa:	834d                	srli	a4,a4,0x13
   189ac:	03428347          	fmsub.d	ft6,ft5,fs4,ft0,rne
   189b0:	03c0                	addi	s0,sp,452
   189b2:	83c5                	srli	a5,a5,0x11
   189b4:	03ca83cf          	fnmadd.d	ft7,fs5,ft8,ft0,rne
   189b8:	03de83db          	.insn	4, 0x03de83db
   189bc:	03d4                	addi	a3,sp,452
   189be:	83d1                	srli	a5,a5,0x14
   189c0:	03f683f3          	.insn	4, 0x03f683f3
   189c4:	03fc                	addi	a5,sp,460
   189c6:	83f9                	srli	a5,a5,0x1e
   189c8:	03e8                	addi	a0,sp,460
   189ca:	83ed                	srli	a5,a5,0x1b
   189cc:	03e283e7          	jalr	t2,62(t0)
   189d0:	03a683a3          	sb	s10,39(a3)
   189d4:	03ac                	addi	a1,sp,456
   189d6:	83a9                	srli	a5,a5,0xa
   189d8:	03b8                	addi	a4,sp,456
   189da:	83bd                	srli	a5,a5,0xf
   189dc:	03b283b7          	lui	t2,0x3b28
   189e0:	0390                	addi	a2,sp,448
   189e2:	8395                	srli	a5,a5,0x5
   189e4:	839f 039a 838b      	.insn	6, 0x838b039a839f
   189ea:	038e                	slli	t2,t2,0x3
   189ec:	0384                	addi	s1,sp,448
   189ee:	8381                	c.srli64	a5
   189f0:	0280                	addi	s0,sp,320
   189f2:	8285                	srli	a3,a3,0x1
   189f4:	028a828f          	.insn	4, 0x028a828f
   189f8:	029e829b          	.insn	4, 0x029e829b
   189fc:	0294                	addi	a3,sp,320
   189fe:	8291                	srli	a3,a3,0x4
   18a00:	02b682b3          	mul	t0,a3,a1
   18a04:	02bc                	addi	a5,sp,328
   18a06:	82b9                	srli	a3,a3,0xe
   18a08:	02a8                	addi	a0,sp,328
   18a0a:	82ad                	srli	a3,a3,0xb
   18a0c:	02a282a7          	.insn	4, 0x02a282a7
   18a10:	02e682e3          	beq	a3,a4,0x19234
   18a14:	02ec                	addi	a1,sp,332
   18a16:	82e9                	srli	a3,a3,0x1a
   18a18:	02f8                	addi	a4,sp,332
   18a1a:	82fd                	srli	a3,a3,0x1f
   18a1c:	02f282f7          	.insn	4, 0x02f282f7
   18a20:	02d0                	addi	a2,sp,324
   18a22:	82d5                	srli	a3,a3,0x15
   18a24:	82df 02da 82cb      	.insn	6, 0x82cb02da82df
   18a2a:	02ce                	slli	t0,t0,0x13
   18a2c:	02c4                	addi	s1,sp,324
   18a2e:	82c1                	srli	a3,a3,0x10
   18a30:	02468243          	fmadd.d	ft4,fa3,ft4,ft0,rne
   18a34:	024c                	addi	a1,sp,260
   18a36:	8249                	srli	a2,a2,0x12
   18a38:	0258                	addi	a4,sp,260
   18a3a:	825d                	srli	a2,a2,0x17
   18a3c:	02528257          	.insn	4, 0x02528257
   18a40:	0270                	addi	a2,sp,268
   18a42:	8275                	srli	a2,a2,0x1d
   18a44:	827f 027a 826b 026e 	.insn	10, 0x0264026e826b027a827f
   18a4c:	0264 
   18a4e:	8261                	srli	a2,a2,0x18
   18a50:	0220                	addi	s0,sp,264
   18a52:	8225                	srli	a2,a2,0x9
   18a54:	022a822f          	.insn	4, 0x022a822f
   18a58:	023e823b          	.insn	4, 0x023e823b
   18a5c:	0234                	addi	a3,sp,264
   18a5e:	8231                	srli	a2,a2,0xc
   18a60:	02168213          	addi	tp,a3,33
   18a64:	021c                	addi	a5,sp,256
   18a66:	8219                	srli	a2,a2,0x6
   18a68:	0208                	addi	a0,sp,256
   18a6a:	820d                	srli	a2,a2,0x3
   18a6c:	02028207          	.insn	4, 0x02028207

Disassembly of section .rodata.str1.4:

00018a70 <.rodata.str1.4>:
   18a70:	6b36                	flw	fs6,76(sp)
   18a72:	7020                	flw	fs0,96(s0)
   18a74:	7265                	lui	tp,0xffff9
   18a76:	6f66                	flw	ft10,88(sp)
   18a78:	6d72                	flw	fs10,28(sp)
   18a7a:	6e61                	lui	t3,0x18
   18a7c:	72206563          	bltu	zero,sp,0x191a6
   18a80:	6e75                	lui	t3,0x1d
   18a82:	7020                	flw	fs0,96(s0)
   18a84:	7261                	lui	tp,0xffff8
   18a86:	6d61                	lui	s10,0x18
   18a88:	7465                	lui	s0,0xffff9
   18a8a:	7265                	lui	tp,0xffff9
   18a8c:	6f662073          	csrs	0x6f6,a2
   18a90:	2072                	fld	ft0,280(sp)
   18a92:	65726f63          	bltu	tp,s7,0x190f0
   18a96:	616d                	addi	sp,sp,240
   18a98:	6b72                	flw	fs6,28(sp)
   18a9a:	0a2e                	slli	s4,s4,0xb
   18a9c:	0000                	unimp
   18a9e:	0000                	unimp
   18aa0:	6b36                	flw	fs6,76(sp)
   18aa2:	7620                	flw	fs0,104(a2)
   18aa4:	6c61                	lui	s8,0x18
   18aa6:	6469                	lui	s0,0x1a
   18aa8:	7461                	lui	s0,0xffff8
   18aaa:	6f69                	lui	t5,0x1a
   18aac:	206e                	fld	ft0,216(sp)
   18aae:	7572                	flw	fa0,60(sp)
   18ab0:	206e                	fld	ft0,216(sp)
   18ab2:	6170                	flw	fa2,68(a0)
   18ab4:	6172                	flw	ft2,28(sp)
   18ab6:	656d                	lui	a0,0x1b
   18ab8:	6574                	flw	fa3,76(a0)
   18aba:	7372                	flw	ft6,60(sp)
   18abc:	6620                	flw	fs0,72(a2)
   18abe:	6320726f          	jal	tp,0x200f0
   18ac2:	6d65726f          	jal	tp,0x70198
   18ac6:	7261                	lui	tp,0xffff8
   18ac8:	000a2e6b          	.insn	4, 0x000a2e6b
   18acc:	7250                	flw	fa2,36(a2)
   18ace:	6c69666f          	jal	a2,0xaf194
   18ad2:	2065                	jal	0x18b7a
   18ad4:	656e6567          	.insn	4, 0x656e6567
   18ad8:	6172                	flw	ft2,28(sp)
   18ada:	6974                	flw	fa3,84(a0)
   18adc:	72206e6f          	jal	t3,0x1f1fe
   18ae0:	6e75                	lui	t3,0x1d
   18ae2:	7020                	flw	fs0,96(s0)
   18ae4:	7261                	lui	tp,0xffff8
   18ae6:	6d61                	lui	s10,0x18
   18ae8:	7465                	lui	s0,0xffff9
   18aea:	7265                	lui	tp,0xffff9
   18aec:	6f662073          	csrs	0x6f6,a2
   18af0:	2072                	fld	ft0,280(sp)
   18af2:	65726f63          	bltu	tp,s7,0x19150
   18af6:	616d                	addi	sp,sp,240
   18af8:	6b72                	flw	fs6,28(sp)
   18afa:	0a2e                	slli	s4,s4,0xb
   18afc:	0000                	unimp
   18afe:	0000                	unimp
   18b00:	4b32                	lw	s6,12(sp)
   18b02:	7020                	flw	fs0,96(s0)
   18b04:	7265                	lui	tp,0xffff9
   18b06:	6f66                	flw	ft10,88(sp)
   18b08:	6d72                	flw	fs10,28(sp)
   18b0a:	6e61                	lui	t3,0x18
   18b0c:	72206563          	bltu	zero,sp,0x19236
   18b10:	6e75                	lui	t3,0x1d
   18b12:	7020                	flw	fs0,96(s0)
   18b14:	7261                	lui	tp,0xffff8
   18b16:	6d61                	lui	s10,0x18
   18b18:	7465                	lui	s0,0xffff9
   18b1a:	7265                	lui	tp,0xffff9
   18b1c:	6f662073          	csrs	0x6f6,a2
   18b20:	2072                	fld	ft0,280(sp)
   18b22:	65726f63          	bltu	tp,s7,0x19180
   18b26:	616d                	addi	sp,sp,240
   18b28:	6b72                	flw	fs6,28(sp)
   18b2a:	0a2e                	slli	s4,s4,0xb
   18b2c:	0000                	unimp
   18b2e:	0000                	unimp
   18b30:	4b32                	lw	s6,12(sp)
   18b32:	7620                	flw	fs0,104(a2)
   18b34:	6c61                	lui	s8,0x18
   18b36:	6469                	lui	s0,0x1a
   18b38:	7461                	lui	s0,0xffff8
   18b3a:	6f69                	lui	t5,0x1a
   18b3c:	206e                	fld	ft0,216(sp)
   18b3e:	7572                	flw	fa0,60(sp)
   18b40:	206e                	fld	ft0,216(sp)
   18b42:	6170                	flw	fa2,68(a0)
   18b44:	6172                	flw	ft2,28(sp)
   18b46:	656d                	lui	a0,0x1b
   18b48:	6574                	flw	fa3,76(a0)
   18b4a:	7372                	flw	ft6,60(sp)
   18b4c:	6620                	flw	fs0,72(a2)
   18b4e:	6320726f          	jal	tp,0x20180
   18b52:	6d65726f          	jal	tp,0x70228
   18b56:	7261                	lui	tp,0xffff8
   18b58:	000a2e6b          	.insn	4, 0x000a2e6b
   18b5c:	5d75255b          	.insn	4, 0x5d75255b
   18b60:	5245                	li	tp,-15
   18b62:	4f52                	lw	t5,20(sp)
   18b64:	2152                	fld	ft2,272(sp)
   18b66:	6c20                	flw	fs0,88(s0)
   18b68:	7369                	lui	t1,0xffffa
   18b6a:	2074                	fld	fa3,192(s0)
   18b6c:	20637263          	bgeu	t1,t1,0x18d70
   18b70:	7830                	flw	fa2,112(s0)
   18b72:	3025                	jal	0x1839a
   18b74:	7834                	flw	fa3,112(s0)
   18b76:	2d20                	fld	fs0,88(a0)
   18b78:	7320                	flw	fs0,96(a4)
   18b7a:	6f68                	flw	fa0,92(a4)
   18b7c:	6c75                	lui	s8,0x1d
   18b7e:	2064                	fld	fs1,192(s0)
   18b80:	6562                	flw	fa0,24(sp)
   18b82:	3020                	fld	fs0,96(s0)
   18b84:	2578                	fld	fa4,200(a0)
   18b86:	3430                	fld	fa2,104(s0)
   18b88:	0a78                	addi	a4,sp,284
   18b8a:	0000                	unimp
   18b8c:	5d75255b          	.insn	4, 0x5d75255b
   18b90:	5245                	li	tp,-15
   18b92:	4f52                	lw	t5,20(sp)
   18b94:	2152                	fld	ft2,272(sp)
   18b96:	6d20                	flw	fs0,88(a0)
   18b98:	7461                	lui	s0,0xffff8
   18b9a:	6972                	flw	fs2,28(sp)
   18b9c:	2078                	fld	fa4,192(s0)
   18b9e:	20637263          	bgeu	t1,t1,0x18da2
   18ba2:	7830                	flw	fa2,112(s0)
   18ba4:	3025                	jal	0x183cc
   18ba6:	7834                	flw	fa3,112(s0)
   18ba8:	2d20                	fld	fs0,88(a0)
   18baa:	7320                	flw	fs0,96(a4)
   18bac:	6f68                	flw	fa0,92(a4)
   18bae:	6c75                	lui	s8,0x1d
   18bb0:	2064                	fld	fs1,192(s0)
   18bb2:	6562                	flw	fa0,24(sp)
   18bb4:	3020                	fld	fs0,96(s0)
   18bb6:	2578                	fld	fa4,200(a0)
   18bb8:	3430                	fld	fa2,104(s0)
   18bba:	0a78                	addi	a4,sp,284
   18bbc:	0000                	unimp
   18bbe:	0000                	unimp
   18bc0:	5d75255b          	.insn	4, 0x5d75255b
   18bc4:	5245                	li	tp,-15
   18bc6:	4f52                	lw	t5,20(sp)
   18bc8:	2152                	fld	ft2,272(sp)
   18bca:	7320                	flw	fs0,96(a4)
   18bcc:	6174                	flw	fa3,68(a0)
   18bce:	6574                	flw	fa3,76(a0)
   18bd0:	6320                	flw	fs0,64(a4)
   18bd2:	6372                	flw	ft6,28(sp)
   18bd4:	3020                	fld	fs0,96(s0)
   18bd6:	2578                	fld	fa4,200(a0)
   18bd8:	3430                	fld	fa2,104(s0)
   18bda:	2078                	fld	fa4,192(s0)
   18bdc:	202d                	jal	0x18c06
   18bde:	756f6873          	csrrsi	a6,0x756,30
   18be2:	646c                	flw	fa1,76(s0)
   18be4:	6220                	flw	fs0,64(a2)
   18be6:	2065                	jal	0x18c8e
   18be8:	7830                	flw	fa2,112(s0)
   18bea:	3025                	jal	0x18412
   18bec:	7834                	flw	fa3,112(s0)
   18bee:	000a                	c.slli	zero,0x2
   18bf0:	65726f43          	.insn	4, 0x65726f43
   18bf4:	614d                	addi	sp,sp,176
   18bf6:	6b72                	flw	fs6,28(sp)
   18bf8:	5320                	lw	s0,96(a4)
   18bfa:	7a69                	lui	s4,0xffffa
   18bfc:	2065                	jal	0x18ca4
   18bfe:	2020                	fld	fs0,64(s0)
   18c00:	3a20                	fld	fs0,112(a2)
   18c02:	2520                	fld	fs0,72(a0)
   18c04:	756c                	flw	fa1,108(a0)
   18c06:	000a                	c.slli	zero,0x2
   18c08:	6f54                	flw	fa3,28(a4)
   18c0a:	6174                	flw	fa3,68(a0)
   18c0c:	206c                	fld	fa1,192(s0)
   18c0e:	6974                	flw	fa3,84(a0)
   18c10:	20736b63          	bltu	t1,t2,0x18e26
   18c14:	2020                	fld	fs0,64(s0)
   18c16:	2020                	fld	fs0,64(s0)
   18c18:	3a20                	fld	fs0,112(a2)
   18c1a:	2520                	fld	fs0,72(a0)
   18c1c:	756c                	flw	fa1,108(a0)
   18c1e:	000a                	c.slli	zero,0x2
   18c20:	6f54                	flw	fa3,28(a4)
   18c22:	6174                	flw	fa3,68(a0)
   18c24:	206c                	fld	fa1,192(s0)
   18c26:	6974                	flw	fa3,84(a0)
   18c28:	656d                	lui	a0,0x1b
   18c2a:	2820                	fld	fs0,80(s0)
   18c2c:	73636573          	csrrsi	a0,mhpmevent22h,6
   18c30:	3a29                	jal	0x1854a
   18c32:	2520                	fld	fs0,72(a0)
   18c34:	0a64                	addi	s1,sp,284
   18c36:	0000                	unimp
   18c38:	7449                	lui	s0,0xffff2
   18c3a:	7265                	lui	tp,0xffff9
   18c3c:	7461                	lui	s0,0xffff8
   18c3e:	6f69                	lui	t5,0x1a
   18c40:	736e                	flw	ft6,248(sp)
   18c42:	6365532f          	.insn	4, 0x6365532f
   18c46:	2020                	fld	fs0,64(s0)
   18c48:	3a20                	fld	fs0,112(a2)
   18c4a:	2520                	fld	fs0,72(a0)
   18c4c:	0a64                	addi	s1,sp,284
   18c4e:	0000                	unimp
   18c50:	5245                	li	tp,-15
   18c52:	4f52                	lw	t5,20(sp)
   18c54:	2152                	fld	ft2,272(sp)
   18c56:	4d20                	lw	s0,88(a0)
   18c58:	7375                	lui	t1,0xffffd
   18c5a:	2074                	fld	fa3,192(s0)
   18c5c:	7865                	lui	a6,0xffff9
   18c5e:	6365                	lui	t1,0x19
   18c60:	7475                	lui	s0,0xffffd
   18c62:	2065                	jal	0x18d0a
   18c64:	6f66                	flw	ft10,88(sp)
   18c66:	2072                	fld	ft0,280(sp)
   18c68:	7461                	lui	s0,0xffff8
   18c6a:	6c20                	flw	fs0,88(s0)
   18c6c:	6165                	addi	sp,sp,112
   18c6e:	31207473          	csrrci	s0,0x312,0
   18c72:	2030                	fld	fa2,64(s0)
   18c74:	73636573          	csrrsi	a0,mhpmevent22h,6
   18c78:	6620                	flw	fs0,72(a2)
   18c7a:	6120726f          	jal	tp,0x2028c
   18c7e:	7620                	flw	fs0,104(a2)
   18c80:	6c61                	lui	s8,0x18
   18c82:	6469                	lui	s0,0x1a
   18c84:	7220                	flw	fs0,96(a2)
   18c86:	7365                	lui	t1,0xffff9
   18c88:	6c75                	lui	s8,0x1d
   18c8a:	2174                	fld	fa3,192(a0)
   18c8c:	000a                	c.slli	zero,0x2
   18c8e:	0000                	unimp
   18c90:	7449                	lui	s0,0xffff2
   18c92:	7265                	lui	tp,0xffff9
   18c94:	7461                	lui	s0,0xffff8
   18c96:	6f69                	lui	t5,0x1a
   18c98:	736e                	flw	ft6,248(sp)
   18c9a:	2020                	fld	fs0,64(s0)
   18c9c:	2020                	fld	fs0,64(s0)
   18c9e:	2020                	fld	fs0,64(s0)
   18ca0:	3a20                	fld	fs0,112(a2)
   18ca2:	2520                	fld	fs0,72(a0)
   18ca4:	756c                	flw	fa1,108(a0)
   18ca6:	000a                	c.slli	zero,0x2
   18ca8:	31434347          	fmsub.s	ft6,ft6,fs4,ft6,rmm
   18cac:	2e35                	jal	0x18fe8
   18cae:	2e31                	jal	0x18fca
   18cb0:	0030                	addi	a2,sp,8
   18cb2:	0000                	unimp
   18cb4:	706d6f43          	fmadd.s	ft10,fs10,ft6,fa4,unknown
   18cb8:	6c69                	lui	s8,0x1a
   18cba:	7265                	lui	tp,0xffff9
   18cbc:	7620                	flw	fs0,104(a2)
   18cbe:	7265                	lui	tp,0xffff9
   18cc0:	6e6f6973          	csrrsi	s2,0x6e6,30
   18cc4:	3a20                	fld	fs0,112(a2)
   18cc6:	2520                	fld	fs0,72(a0)
   18cc8:	00000a73          	.insn	4, 0x0a73
   18ccc:	4f2d                	li	t5,11
   18cce:	2032                	fld	ft0,264(sp)
   18cd0:	662d                	lui	a2,0xb
   18cd2:	6e75                	lui	t3,0x1d
   18cd4:	6f72                	flw	ft10,28(sp)
   18cd6:	6c6c                	flw	fa1,92(s0)
   18cd8:	6c2d                	lui	s8,0xb
   18cda:	73706f6f          	jal	t5,0x1fc10
   18cde:	2d20                	fld	fs0,88(a0)
   18ce0:	7066                	flw	ft0,120(sp)
   18ce2:	6565                	lui	a0,0x19
   18ce4:	2d6c                	fld	fa1,216(a0)
   18ce6:	6f6c                	flw	fa1,92(a4)
   18ce8:	2073706f          	j	0x506ee
   18cec:	662d                	lui	a2,0xb
   18cee:	65736367          	.insn	4, 0x65736367
   18cf2:	732d                	lui	t1,0xfffeb
   18cf4:	206d                	jal	0x18d9e
   18cf6:	662d                	lui	a2,0xb
   18cf8:	65736367          	.insn	4, 0x65736367
   18cfc:	6c2d                	lui	s8,0xb
   18cfe:	7361                	lui	t1,0xffff8
   18d00:	0000                	unimp
   18d02:	0000                	unimp
   18d04:	706d6f43          	fmadd.s	ft10,fs10,ft6,fa4,unknown
   18d08:	6c69                	lui	s8,0x1a
   18d0a:	7265                	lui	tp,0xffff9
   18d0c:	6620                	flw	fs0,72(a2)
   18d0e:	616c                	flw	fa1,68(a0)
   18d10:	20207367          	.insn	4, 0x20207367
   18d14:	3a20                	fld	fs0,112(a2)
   18d16:	2520                	fld	fs0,72(a0)
   18d18:	00000a73          	.insn	4, 0x0a73
   18d1c:	54415453          	.insn	4, 0x54415453
   18d20:	4349                	li	t1,18
   18d22:	0000                	unimp
   18d24:	654d                	lui	a0,0x13
   18d26:	6f6d                	lui	t5,0x1b
   18d28:	7972                	flw	fs2,60(sp)
   18d2a:	6c20                	flw	fs0,88(s0)
   18d2c:	7461636f          	jal	t1,0x2f472
   18d30:	6f69                	lui	t5,0x1a
   18d32:	206e                	fld	ft0,216(sp)
   18d34:	3a20                	fld	fs0,112(a2)
   18d36:	2520                	fld	fs0,72(a0)
   18d38:	00000a73          	.insn	4, 0x0a73
   18d3c:	64656573          	csrrsi	a0,hviprio1,10
   18d40:	20637263          	bgeu	t1,t1,0x18f44
   18d44:	2020                	fld	fs0,64(s0)
   18d46:	2020                	fld	fs0,64(s0)
   18d48:	2020                	fld	fs0,64(s0)
   18d4a:	2020                	fld	fs0,64(s0)
   18d4c:	3a20                	fld	fs0,112(a2)
   18d4e:	3020                	fld	fs0,96(s0)
   18d50:	2578                	fld	fa4,200(a0)
   18d52:	3430                	fld	fa2,104(s0)
   18d54:	0a78                	addi	a4,sp,284
   18d56:	0000                	unimp
   18d58:	5d64255b          	.insn	4, 0x5d64255b
   18d5c:	6c637263          	bgeu	t1,t1,0x19420
   18d60:	7369                	lui	t1,0xffffa
   18d62:	2074                	fld	fa3,192(s0)
   18d64:	2020                	fld	fs0,64(s0)
   18d66:	2020                	fld	fs0,64(s0)
   18d68:	2020                	fld	fs0,64(s0)
   18d6a:	203a                	fld	ft0,392(sp)
   18d6c:	7830                	flw	fa2,112(s0)
   18d6e:	3025                	jal	0x18596
   18d70:	7834                	flw	fa3,112(s0)
   18d72:	000a                	c.slli	zero,0x2
   18d74:	5d64255b          	.insn	4, 0x5d64255b
   18d78:	6d637263          	bgeu	t1,s6,0x1943c
   18d7c:	7461                	lui	s0,0xffff8
   18d7e:	6972                	flw	fs2,28(sp)
   18d80:	2078                	fld	fa4,192(s0)
   18d82:	2020                	fld	fs0,64(s0)
   18d84:	2020                	fld	fs0,64(s0)
   18d86:	203a                	fld	ft0,392(sp)
   18d88:	7830                	flw	fa2,112(s0)
   18d8a:	3025                	jal	0x185b2
   18d8c:	7834                	flw	fa3,112(s0)
   18d8e:	000a                	c.slli	zero,0x2
   18d90:	5d64255b          	.insn	4, 0x5d64255b
   18d94:	73637263          	bgeu	t1,s6,0x194b8
   18d98:	6174                	flw	fa3,68(a0)
   18d9a:	6574                	flw	fa3,76(a0)
   18d9c:	2020                	fld	fs0,64(s0)
   18d9e:	2020                	fld	fs0,64(s0)
   18da0:	2020                	fld	fs0,64(s0)
   18da2:	203a                	fld	ft0,392(sp)
   18da4:	7830                	flw	fa2,112(s0)
   18da6:	3025                	jal	0x185ce
   18da8:	7834                	flw	fa3,112(s0)
   18daa:	000a                	c.slli	zero,0x2
   18dac:	5d64255b          	.insn	4, 0x5d64255b
   18db0:	66637263          	bgeu	t1,t1,0x19414
   18db4:	6e69                	lui	t3,0x1a
   18db6:	6c61                	lui	s8,0x18
   18db8:	2020                	fld	fs0,64(s0)
   18dba:	2020                	fld	fs0,64(s0)
   18dbc:	2020                	fld	fs0,64(s0)
   18dbe:	203a                	fld	ft0,392(sp)
   18dc0:	7830                	flw	fa2,112(s0)
   18dc2:	3025                	jal	0x185ea
   18dc4:	7834                	flw	fa3,112(s0)
   18dc6:	000a                	c.slli	zero,0x2
   18dc8:	72726f43          	fmadd.d	ft10,ft4,ft7,fa4,unknown
   18dcc:	6365                	lui	t1,0x19
   18dce:	2074                	fld	fa3,192(s0)
   18dd0:	7265706f          	j	0x704f6
   18dd4:	7461                	lui	s0,0xffff8
   18dd6:	6f69                	lui	t5,0x1a
   18dd8:	206e                	fld	ft0,216(sp)
   18dda:	6176                	flw	ft2,92(sp)
   18ddc:	696c                	flw	fa1,84(a0)
   18dde:	6164                	flw	fs1,68(a0)
   18de0:	6574                	flw	fa3,76(a0)
   18de2:	2e64                	fld	fs1,216(a2)
   18de4:	5320                	lw	s0,96(a4)
   18de6:	6565                	lui	a0,0x19
   18de8:	5220                	lw	s0,96(a2)
   18dea:	4145                	li	sp,17
   18dec:	4d44                	lw	s1,28(a0)
   18dee:	2e45                	jal	0x1919e
   18df0:	646d                	lui	s0,0x1b
   18df2:	6620                	flw	fs0,72(a2)
   18df4:	7220726f          	jal	tp,0x20516
   18df8:	6e75                	lui	t3,0x1d
   18dfa:	6120                	flw	fs0,64(a0)
   18dfc:	646e                	flw	fs0,216(sp)
   18dfe:	7220                	flw	fs0,96(a2)
   18e00:	7065                	c.lui	zero,0xffff9
   18e02:	6974726f          	jal	tp,0x60c98
   18e06:	676e                	flw	fa4,216(sp)
   18e08:	7220                	flw	fs0,96(a2)
   18e0a:	6c75                	lui	s8,0x1d
   18e0c:	7365                	lui	t1,0xffff9
   18e0e:	0a2e                	slli	s4,s4,0xb
   18e10:	0000                	unimp
   18e12:	0000                	unimp
   18e14:	6e6e6143          	.insn	4, 0x6e6e6143
   18e18:	7620746f          	jal	s0,0x2057a
   18e1c:	6c61                	lui	s8,0x18
   18e1e:	6469                	lui	s0,0x1a
   18e20:	7461                	lui	s0,0xffff8
   18e22:	2065                	jal	0x18eca
   18e24:	7265706f          	j	0x7054a
   18e28:	7461                	lui	s0,0xffff8
   18e2a:	6f69                	lui	t5,0x1a
   18e2c:	206e                	fld	ft0,216(sp)
   18e2e:	6f66                	flw	ft10,88(sp)
   18e30:	2072                	fld	ft0,280(sp)
   18e32:	6874                	flw	fa3,84(s0)
   18e34:	7365                	lui	t1,0xffff9
   18e36:	2065                	jal	0x18ede
   18e38:	64656573          	csrrsi	a0,hviprio1,10
   18e3c:	7620                	flw	fs0,104(a2)
   18e3e:	6c61                	lui	s8,0x18
   18e40:	6575                	lui	a0,0x1d
   18e42:	70202c73          	csrr	s8,0x702
   18e46:	656c                	flw	fa1,76(a0)
   18e48:	7361                	lui	t1,0xffff8
   18e4a:	2065                	jal	0x18ef2
   18e4c:	706d6f63          	bltu	s10,t1,0x1956a
   18e50:	7261                	lui	tp,0xffff8
   18e52:	2065                	jal	0x18efa
   18e54:	68746977          	.insn	4, 0x68746977
   18e58:	7220                	flw	fs0,96(a2)
   18e5a:	7365                	lui	t1,0xffff9
   18e5c:	6c75                	lui	s8,0x1d
   18e5e:	7374                	flw	fa3,100(a4)
   18e60:	6f20                	flw	fs0,88(a4)
   18e62:	206e                	fld	ft0,216(sp)
   18e64:	2061                	jal	0x18eec
   18e66:	776f6e6b          	.insn	4, 0x776f6e6b
   18e6a:	206e                	fld	ft0,216(sp)
   18e6c:	6c70                	flw	fa2,92(s0)
   18e6e:	7461                	lui	s0,0xffff8
   18e70:	6f66                	flw	ft10,88(sp)
   18e72:	6d72                	flw	fs10,28(sp)
   18e74:	0a2e                	slli	s4,s4,0xb
   18e76:	0000                	unimp
   18e78:	7245                	lui	tp,0xffff1
   18e7a:	6f72                	flw	ft10,28(sp)
   18e7c:	7372                	flw	ft6,60(sp)
   18e7e:	6420                	flw	fs0,72(s0)
   18e80:	7465                	lui	s0,0xffff9
   18e82:	6365                	lui	t1,0x19
   18e84:	6574                	flw	fa3,76(a0)
   18e86:	0a64                	addi	s1,sp,284
   18e88:	0000                	unimp
   18e8a:	0000                	unimp
   18e8c:	74617453          	.insn	4, 0x74617453
   18e90:	6369                	lui	t1,0x1a
   18e92:	0000                	unimp
   18e94:	6548                	flw	fa0,12(a0)
   18e96:	7061                	c.lui	zero,0xffff8
   18e98:	0000                	unimp
   18e9a:	0000                	unimp
   18e9c:	63617453          	.insn	4, 0x63617453
   18ea0:	0000006b          	.insn	4, 0x006b
   18ea4:	3054                	fld	fa3,160(s0)
   18ea6:	332e                	fld	ft6,232(sp)
   18ea8:	2d65                	jal	0x19560
   18eaa:	4631                	li	a2,12
   18eac:	0000                	unimp
   18eae:	0000                	unimp
   18eb0:	542d                	li	s0,-21
   18eb2:	542e                	lw	s0,232(sp)
   18eb4:	71542b2b          	.insn	4, 0x71542b2b
   18eb8:	0000                	unimp
   18eba:	0000                	unimp
   18ebc:	5431                	li	s0,-20
   18ebe:	65342e33          	.insn	4, 0x65342e33
   18ec2:	7a34                	flw	fa3,112(a2)
   18ec4:	0000                	unimp
   18ec6:	0000                	unimp
   18ec8:	302e3433          	.insn	4, 0x302e3433
   18ecc:	2d65                	jal	0x19584
   18ece:	5e54                	lw	a3,60(a2)
   18ed0:	0000                	unimp
   18ed2:	0000                	unimp
   18ed4:	2e35                	jal	0x19210
   18ed6:	3035                	jal	0x18702
   18ed8:	6530                	flw	fa2,72(a0)
   18eda:	0000332b          	.insn	4, 0x332b
   18ede:	0000                	unimp
   18ee0:	2e2d                	jal	0x1921a
   18ee2:	3231                	jal	0x187ee
   18ee4:	322d6533          	.insn	4, 0x322d6533
   18ee8:	0000                	unimp
   18eea:	0000                	unimp
   18eec:	382d                	jal	0x18726
   18eee:	382b6537          	lui	a0,0x382b6
   18ef2:	00003233          	snez	tp,zero
   18ef6:	0000                	unimp
   18ef8:	362e302b          	.insn	4, 0x362e302b
   18efc:	2d65                	jal	0x195b4
   18efe:	3231                	jal	0x1880a
   18f00:	0000                	unimp
   18f02:	0000                	unimp
   18f04:	352e3533          	.insn	4, 0x352e3533
   18f08:	3434                	fld	fa3,104(s0)
   18f0a:	3030                	fld	fa2,96(s0)
   18f0c:	0000                	unimp
   18f0e:	0000                	unimp
   18f10:	312e                	fld	ft2,232(sp)
   18f12:	3332                	fld	ft6,296(sp)
   18f14:	3534                	fld	fa3,104(a0)
   18f16:	3030                	fld	fa2,96(s0)
   18f18:	0000                	unimp
   18f1a:	0000                	unimp
   18f1c:	312d                	jal	0x18b46
   18f1e:	3031                	jal	0x1872a
   18f20:	372e                	fld	fa4,232(sp)
   18f22:	3030                	fld	fa2,96(s0)
   18f24:	0000                	unimp
   18f26:	0000                	unimp
   18f28:	362e302b          	.insn	4, 0x362e302b
   18f2c:	3434                	fld	fa3,104(s0)
   18f2e:	3030                	fld	fa2,96(s0)
   18f30:	0000                	unimp
   18f32:	0000                	unimp
   18f34:	3035                	jal	0x18760
   18f36:	3231                	jal	0x18842
   18f38:	0000                	unimp
   18f3a:	0000                	unimp
   18f3c:	3231                	jal	0x18848
   18f3e:	00003433          	snez	s0,zero
   18f42:	0000                	unimp
   18f44:	382d                	jal	0x1877e
   18f46:	00003437          	lui	s0,0x3
   18f4a:	0000                	unimp
   18f4c:	3232312b          	.insn	4, 0x3232312b
	...
