
build/coremark.elf:     file format elf32-littleriscv

SYMBOL TABLE:
no symbols



Disassembly of section .startup:

00000000 <.startup>:
   0:	00000013          	addi	x0,x0,0
   4:	00000033          	add	x0,x0,x0
   8:	000000b3          	add	x1,x0,x0
   c:	00000133          	add	x2,x0,x0
  10:	000001b3          	add	x3,x0,x0
  14:	00000233          	add	x4,x0,x0
  18:	000002b3          	add	x5,x0,x0
  1c:	00000333          	add	x6,x0,x0
  20:	000003b3          	add	x7,x0,x0
  24:	00000433          	add	x8,x0,x0
  28:	000004b3          	add	x9,x0,x0
  2c:	00000533          	add	x10,x0,x0
  30:	000005b3          	add	x11,x0,x0
  34:	00000633          	add	x12,x0,x0
  38:	000006b3          	add	x13,x0,x0
  3c:	00000733          	add	x14,x0,x0
  40:	000007b3          	add	x15,x0,x0
  44:	00000833          	add	x16,x0,x0
  48:	000008b3          	add	x17,x0,x0
  4c:	00000933          	add	x18,x0,x0
  50:	000009b3          	add	x19,x0,x0
  54:	00000a33          	add	x20,x0,x0
  58:	00000ab3          	add	x21,x0,x0
  5c:	00000b33          	add	x22,x0,x0
  60:	00000bb3          	add	x23,x0,x0
  64:	00000c33          	add	x24,x0,x0
  68:	00000cb3          	add	x25,x0,x0
  6c:	00000d33          	add	x26,x0,x0
  70:	00000db3          	add	x27,x0,x0
  74:	00000e33          	add	x28,x0,x0
  78:	00000eb3          	add	x29,x0,x0
  7c:	00000f33          	add	x30,x0,x0
  80:	00000fb3          	add	x31,x0,x0
  84:	0001e137          	lui	x2,0x1e
  88:	1410706f          	jal	x0,0x79c8
  8c:	00000013          	addi	x0,x0,0

Disassembly of section .text:

00000090 <.text>:
      90:	00060a63          	beq	x12,x0,0xa4
      94:	00251503          	lh	x10,2(x10)
      98:	00259583          	lh	x11,2(x11)
      9c:	40b50533          	sub	x10,x10,x11
      a0:	00008067          	jalr	x0,0(x1)
      a4:	00051783          	lh	x15,0(x10)
      a8:	01079693          	slli	x13,x15,0x10
      ac:	f007f713          	andi	x14,x15,-256
      b0:	0186d293          	srli	x5,x13,0x18
      b4:	00576333          	or	x6,x14,x5
      b8:	00651023          	sh	x6,0(x10)
      bc:	00059383          	lh	x7,0(x11)
      c0:	00251503          	lh	x10,2(x10)
      c4:	01039813          	slli	x16,x7,0x10
      c8:	f003f613          	andi	x12,x7,-256
      cc:	01885893          	srli	x17,x16,0x18
      d0:	01166e33          	or	x28,x12,x17
      d4:	01c59023          	sh	x28,0(x11)
      d8:	00259583          	lh	x11,2(x11)
      dc:	40b50533          	sub	x10,x10,x11
      e0:	00008067          	jalr	x0,0(x1)
      e4:	00051f03          	lh	x30,0(x10)
      e8:	407f5793          	srai	x15,x30,0x7
      ec:	0017f293          	andi	x5,x15,1
      f0:	00028663          	beq	x5,x0,0xfc
      f4:	07ff7513          	andi	x10,x30,127
      f8:	00008067          	jalr	x0,0(x1)
      fc:	403f5713          	srai	x14,x30,0x3
     100:	00f77313          	andi	x6,x14,15
     104:	fe010113          	addi	x2,x2,-32 # 0x1dfe0
     108:	00431393          	slli	x7,x6,0x4
     10c:	00812c23          	sw	x8,24(x2)
     110:	00730633          	add	x12,x6,x7
     114:	00112e23          	sw	x1,28(x2)
     118:	00912a23          	sw	x9,20(x2)
     11c:	007f7693          	andi	x13,x30,7
     120:	0385d783          	lhu	x15,56(x11)
     124:	00058893          	addi	x17,x11,0
     128:	00050413          	addi	x8,x10,0
     12c:	00060713          	addi	x14,x12,0
     130:	08068e63          	beq	x13,x0,0x1cc
     134:	00100513          	addi	x10,x0,1
     138:	08a69263          	bne	x13,x10,0x1bc
     13c:	02888513          	addi	x10,x17,40
     140:	00078613          	addi	x12,x15,0
     144:	00070593          	addi	x11,x14,0
     148:	01e12623          	sw	x30,12(x2)
     14c:	01112423          	sw	x17,8(x2)
     150:	219020ef          	jal	x1,0x2b68
     154:	00812883          	lw	x17,8(x2)
     158:	01051e93          	slli	x29,x10,0x10
     15c:	00c12f03          	lw	x30,12(x2)
     160:	03c8de03          	lhu	x28,60(x17)
     164:	410ed493          	srai	x9,x29,0x10
     168:	0a0e1463          	bne	x28,x0,0x210
     16c:	0388d783          	lhu	x15,56(x17)
     170:	02a89e23          	sh	x10,60(x17)
     174:	00078593          	addi	x11,x15,0
     178:	01112623          	sw	x17,12(x2)
     17c:	01e12423          	sw	x30,8(x2)
     180:	298030ef          	jal	x1,0x3418
     184:	00812283          	lw	x5,8(x2)
     188:	00c12683          	lw	x13,12(x2)
     18c:	00050793          	addi	x15,x10,0
     190:	f002f713          	andi	x14,x5,-256
     194:	07f4f513          	andi	x10,x9,127
     198:	00e56333          	or	x6,x10,x14
     19c:	02f69c23          	sh	x15,56(x13)
     1a0:	08036393          	ori	x7,x6,128
     1a4:	01c12083          	lw	x1,28(x2)
     1a8:	00741023          	sh	x7,0(x8)
     1ac:	01812403          	lw	x8,24(x2)
     1b0:	01412483          	lw	x9,20(x2)
     1b4:	02010113          	addi	x2,x2,32
     1b8:	00008067          	jalr	x0,0(x1)
     1bc:	010f1f93          	slli	x31,x30,0x10
     1c0:	010fd513          	srli	x10,x31,0x10
     1c4:	000f0493          	addi	x9,x30,0
     1c8:	fadff06f          	jal	x0,0x174
     1cc:	02100493          	addi	x9,x0,33
     1d0:	00c4e463          	bltu	x9,x12,0x1d8
     1d4:	02200713          	addi	x14,x0,34
     1d8:	0148a583          	lw	x11,20(x17)
     1dc:	00289683          	lh	x13,2(x17)
     1e0:	00089603          	lh	x12,0(x17)
     1e4:	0188a503          	lw	x10,24(x17)
     1e8:	01e12623          	sw	x30,12(x2)
     1ec:	01112423          	sw	x17,8(x2)
     1f0:	6e1020ef          	jal	x1,0x30d0
     1f4:	00812883          	lw	x17,8(x2)
     1f8:	01051813          	slli	x16,x10,0x10
     1fc:	00c12f03          	lw	x30,12(x2)
     200:	03e8d583          	lhu	x11,62(x17)
     204:	41085493          	srai	x9,x16,0x10
     208:	00059463          	bne	x11,x0,0x210
     20c:	02a89f23          	sh	x10,62(x17)
     210:	0388d783          	lhu	x15,56(x17)
     214:	f61ff06f          	jal	x0,0x174
     218:	fe010113          	addi	x2,x2,-32
     21c:	00912a23          	sw	x9,20(x2)
     220:	00058493          	addi	x9,x11,0
     224:	00060593          	addi	x11,x12,0
     228:	00112e23          	sw	x1,28(x2)
     22c:	00812c23          	sw	x8,24(x2)
     230:	00c12623          	sw	x12,12(x2)
     234:	eb1ff0ef          	jal	x1,0xe4
     238:	00c12583          	lw	x11,12(x2)
     23c:	00050413          	addi	x8,x10,0
     240:	00048513          	addi	x10,x9,0
     244:	ea1ff0ef          	jal	x1,0xe4
     248:	01c12083          	lw	x1,28(x2)
     24c:	40a40533          	sub	x10,x8,x10
     250:	01812403          	lw	x8,24(x2)
     254:	01412483          	lw	x9,20(x2)
     258:	02010113          	addi	x2,x2,32
     25c:	00008067          	jalr	x0,0(x1)
     260:	00059703          	lh	x14,0(x11)
     264:	00259783          	lh	x15,2(x11)
     268:	00e51023          	sh	x14,0(x10)
     26c:	00f51123          	sh	x15,2(x10)
     270:	00008067          	jalr	x0,0(x1)
     274:	00062803          	lw	x16,0(x12)
     278:	00880893          	addi	x17,x16,8
     27c:	04e8f663          	bgeu	x17,x14,0x2c8
     280:	0006a703          	lw	x14,0(x13)
     284:	00470313          	addi	x6,x14,4
     288:	04f37063          	bgeu	x6,x15,0x2c8
     28c:	01162023          	sw	x17,0(x12)
     290:	00052783          	lw	x15,0(x10)
     294:	00059283          	lh	x5,0(x11)
     298:	00259603          	lh	x12,2(x11)
     29c:	00f82023          	sw	x15,0(x16)
     2a0:	01052023          	sw	x16,0(x10)
     2a4:	00e82223          	sw	x14,4(x16)
     2a8:	0006a383          	lw	x7,0(x13)
     2ac:	00438513          	addi	x10,x7,4
     2b0:	00a6a023          	sw	x10,0(x13)
     2b4:	00482583          	lw	x11,4(x16)
     2b8:	00080513          	addi	x10,x16,0
     2bc:	00559023          	sh	x5,0(x11)
     2c0:	00c59123          	sh	x12,2(x11)
     2c4:	00008067          	jalr	x0,0(x1)
     2c8:	00000813          	addi	x16,x0,0
     2cc:	00080513          	addi	x10,x16,0
     2d0:	00008067          	jalr	x0,0(x1)
     2d4:	00050793          	addi	x15,x10,0
     2d8:	00052503          	lw	x10,0(x10)
     2dc:	0047a683          	lw	x13,4(x15)
     2e0:	00452603          	lw	x12,4(x10)
     2e4:	00052703          	lw	x14,0(x10)
     2e8:	00c7a223          	sw	x12,4(x15)
     2ec:	00d52223          	sw	x13,4(x10)
     2f0:	00e7a023          	sw	x14,0(x15)
     2f4:	00052023          	sw	x0,0(x10)
     2f8:	00008067          	jalr	x0,0(x1)
     2fc:	0045a683          	lw	x13,4(x11)
     300:	00452703          	lw	x14,4(x10)
     304:	0005a783          	lw	x15,0(x11)
     308:	00d52223          	sw	x13,4(x10)
     30c:	00e5a223          	sw	x14,4(x11)
     310:	00f52023          	sw	x15,0(x10)
     314:	00a5a023          	sw	x10,0(x11)
     318:	00008067          	jalr	x0,0(x1)
     31c:	00259603          	lh	x12,2(x11)
     320:	02064263          	blt	x12,x0,0x344
     324:	00051863          	bne	x10,x0,0x334
     328:	00008067          	jalr	x0,0(x1)
     32c:	00052503          	lw	x10,0(x10)
     330:	02050a63          	beq	x10,x0,0x364
     334:	00452303          	lw	x6,4(x10)
     338:	00231383          	lh	x7,2(x6)
     33c:	fec398e3          	bne	x7,x12,0x32c
     340:	00008067          	jalr	x0,0(x1)
     344:	02050063          	beq	x10,x0,0x364
     348:	00059703          	lh	x14,0(x11)
     34c:	00c0006f          	jal	x0,0x358
     350:	00052503          	lw	x10,0(x10)
     354:	00050863          	beq	x10,x0,0x364
     358:	00452783          	lw	x15,4(x10)
     35c:	0007c283          	lbu	x5,0(x15)
     360:	fee298e3          	bne	x5,x14,0x350
     364:	00008067          	jalr	x0,0(x1)
     368:	02050063          	beq	x10,x0,0x388
     36c:	00000713          	addi	x14,x0,0
     370:	0080006f          	jal	x0,0x378
     374:	00078513          	addi	x10,x15,0
     378:	00052783          	lw	x15,0(x10)
     37c:	00e52023          	sw	x14,0(x10)
     380:	00050713          	addi	x14,x10,0
     384:	fe0798e3          	bne	x15,x0,0x374
     388:	00008067          	jalr	x0,0(x1)
     38c:	fb010113          	addi	x2,x2,-80
     390:	05212023          	sw	x18,64(x2)
     394:	03512a23          	sw	x21,52(x2)
     398:	03612823          	sw	x22,48(x2)
     39c:	03812423          	sw	x24,40(x2)
     3a0:	04112623          	sw	x1,76(x2)
     3a4:	04812423          	sw	x8,72(x2)
     3a8:	04912223          	sw	x9,68(x2)
     3ac:	03312e23          	sw	x19,60(x2)
     3b0:	03412c23          	sw	x20,56(x2)
     3b4:	03712623          	sw	x23,44(x2)
     3b8:	03912223          	sw	x25,36(x2)
     3bc:	03a12023          	sw	x26,32(x2)
     3c0:	01b12e23          	sw	x27,28(x2)
     3c4:	00050913          	addi	x18,x10,0
     3c8:	00100c13          	addi	x24,x0,1
     3cc:	00058b13          	addi	x22,x11,0
     3d0:	00060a93          	addi	x21,x12,0
     3d4:	1e090863          	beq	x18,x0,0x5c4
     3d8:	00012623          	sw	x0,12(x2)
     3dc:	00000493          	addi	x9,x0,0
     3e0:	00000b93          	addi	x23,x0,0
     3e4:	00c12783          	lw	x15,12(x2)
     3e8:	007c7713          	andi	x14,x24,7
     3ec:	00090813          	addi	x16,x18,0
     3f0:	00178293          	addi	x5,x15,1
     3f4:	00512623          	sw	x5,12(x2)
     3f8:	00000413          	addi	x8,x0,0
     3fc:	08070463          	beq	x14,x0,0x484
     400:	0f805663          	bge	x0,x24,0x4ec
     404:	00092803          	lw	x16,0(x18)
     408:	00100413          	addi	x8,x0,1
     40c:	0e080063          	beq	x16,x0,0x4ec
     410:	06870a63          	beq	x14,x8,0x484
     414:	00200693          	addi	x13,x0,2
     418:	06d70063          	beq	x14,x13,0x478
     41c:	00300613          	addi	x12,x0,3
     420:	04c70663          	beq	x14,x12,0x46c
     424:	00400313          	addi	x6,x0,4
     428:	02670c63          	beq	x14,x6,0x460
     42c:	00500393          	addi	x7,x0,5
     430:	02770263          	beq	x14,x7,0x454
     434:	00600513          	addi	x10,x0,6
     438:	00a70863          	beq	x14,x10,0x448
     43c:	00082803          	lw	x16,0(x16)
     440:	00068413          	addi	x8,x13,0
     444:	0a080463          	beq	x16,x0,0x4ec
     448:	00082803          	lw	x16,0(x16)
     44c:	00140413          	addi	x8,x8,1
     450:	08080e63          	beq	x16,x0,0x4ec
     454:	00082803          	lw	x16,0(x16)
     458:	00140413          	addi	x8,x8,1
     45c:	08080863          	beq	x16,x0,0x4ec
     460:	00082803          	lw	x16,0(x16)
     464:	00140413          	addi	x8,x8,1
     468:	08080263          	beq	x16,x0,0x4ec
     46c:	00082803          	lw	x16,0(x16)
     470:	00140413          	addi	x8,x8,1
     474:	06080c63          	beq	x16,x0,0x4ec
     478:	00082803          	lw	x16,0(x16)
     47c:	00140413          	addi	x8,x8,1
     480:	06080663          	beq	x16,x0,0x4ec
     484:	07845463          	bge	x8,x24,0x4ec
     488:	00082803          	lw	x16,0(x16)
     48c:	00140413          	addi	x8,x8,1
     490:	00040593          	addi	x11,x8,0
     494:	04080c63          	beq	x16,x0,0x4ec
     498:	00082803          	lw	x16,0(x16)
     49c:	00140413          	addi	x8,x8,1
     4a0:	04080663          	beq	x16,x0,0x4ec
     4a4:	00082803          	lw	x16,0(x16)
     4a8:	00258413          	addi	x8,x11,2
     4ac:	04080063          	beq	x16,x0,0x4ec
     4b0:	00082803          	lw	x16,0(x16)
     4b4:	00358413          	addi	x8,x11,3
     4b8:	02080a63          	beq	x16,x0,0x4ec
     4bc:	00082803          	lw	x16,0(x16)
     4c0:	00458413          	addi	x8,x11,4
     4c4:	02080463          	beq	x16,x0,0x4ec
     4c8:	00082803          	lw	x16,0(x16)
     4cc:	00558413          	addi	x8,x11,5
     4d0:	00080e63          	beq	x16,x0,0x4ec
     4d4:	00082803          	lw	x16,0(x16)
     4d8:	00658413          	addi	x8,x11,6
     4dc:	00080863          	beq	x16,x0,0x4ec
     4e0:	00082803          	lw	x16,0(x16)
     4e4:	00758413          	addi	x8,x11,7
     4e8:	f8081ee3          	bne	x16,x0,0x484
     4ec:	00090993          	addi	x19,x18,0
     4f0:	000c0a13          	addi	x20,x24,0
     4f4:	00080913          	addi	x18,x16,0
     4f8:	02805463          	bge	x0,x8,0x520
     4fc:	000a0463          	beq	x20,x0,0x504
     500:	02091863          	bne	x18,x0,0x530
     504:	00048693          	addi	x13,x9,0
     508:	fff40413          	addi	x8,x8,-1
     50c:	00098493          	addi	x9,x19,0
     510:	0009a983          	lw	x19,0(x19)
     514:	04068863          	beq	x13,x0,0x564
     518:	0096a023          	sw	x9,0(x13)
     51c:	fe8040e3          	blt	x0,x8,0x4fc
     520:	012037b3          	sltu	x15,x0,x18
     524:	09405063          	bge	x0,x20,0x5a4
     528:	08078063          	beq	x15,x0,0x5a8
     52c:	04040a63          	beq	x8,x0,0x580
     530:	fff40d93          	addi	x27,x8,-1
     534:	007dfc93          	andi	x25,x27,7
     538:	1e0c8e63          	beq	x25,x0,0x734
     53c:	00492583          	lw	x11,4(x18)
     540:	0049a503          	lw	x10,4(x19)
     544:	000a8613          	addi	x12,x21,0
     548:	000b00e7          	jalr	x1,0(x22)
     54c:	08a05063          	bge	x0,x10,0x5cc
     550:	00048693          	addi	x13,x9,0
     554:	fffa0a13          	addi	x20,x20,-1
     558:	00090493          	addi	x9,x18,0
     55c:	00092903          	lw	x18,0(x18)
     560:	fa069ce3          	bne	x13,x0,0x518
     564:	00048b93          	addi	x23,x9,0
     568:	f91ff06f          	jal	x0,0x4f8
     56c:	01a4a023          	sw	x26,0(x9)
     570:	012037b3          	sltu	x15,x0,x18
     574:	000d0493          	addi	x9,x26,0
     578:	020a0463          	beq	x20,x0,0x5a0
     57c:	02078263          	beq	x15,x0,0x5a0
     580:	00090d13          	addi	x26,x18,0
     584:	fffa0a13          	addi	x20,x20,-1
     588:	00092903          	lw	x18,0(x18)
     58c:	fe0490e3          	bne	x9,x0,0x56c
     590:	000d0b93          	addi	x23,x26,0
     594:	012037b3          	sltu	x15,x0,x18
     598:	000d0493          	addi	x9,x26,0
     59c:	fe0a10e3          	bne	x20,x0,0x57c
     5a0:	000d0493          	addi	x9,x26,0
     5a4:	e40790e3          	bne	x15,x0,0x3e4
     5a8:	00c12903          	lw	x18,12(x2)
     5ac:	0004a023          	sw	x0,0(x9)
     5b0:	00100293          	addi	x5,x0,1
     5b4:	2e590463          	beq	x18,x5,0x89c
     5b8:	000b8913          	addi	x18,x23,0
     5bc:	001c1c13          	slli	x24,x24,0x1
     5c0:	e0091ce3          	bne	x18,x0,0x3d8
     5c4:	00002023          	sw	x0,0(x0) # 0x0
     5c8:	00100073          	ebreak
     5cc:	0009ad03          	lw	x26,0(x19)
     5d0:	000d8413          	addi	x8,x27,0
     5d4:	00048c63          	beq	x9,x0,0x5ec
     5d8:	00048693          	addi	x13,x9,0
     5dc:	00098493          	addi	x9,x19,0
     5e0:	0096a023          	sw	x9,0(x13)
     5e4:	000d0993          	addi	x19,x26,0
     5e8:	f35ff06f          	jal	x0,0x51c
     5ec:	00098b93          	addi	x23,x19,0
     5f0:	00098493          	addi	x9,x19,0
     5f4:	2bb05063          	bge	x0,x27,0x894
     5f8:	00100893          	addi	x17,x0,1
     5fc:	000d0993          	addi	x19,x26,0
     600:	131c8a63          	beq	x25,x17,0x734
     604:	00200e13          	addi	x28,x0,2
     608:	11cc8063          	beq	x25,x28,0x708
     60c:	00300e93          	addi	x29,x0,3
     610:	0ddc8663          	beq	x25,x29,0x6dc
     614:	00400f13          	addi	x30,x0,4
     618:	09ec8c63          	beq	x25,x30,0x6b0
     61c:	00500f93          	addi	x31,x0,5
     620:	07fc8263          	beq	x25,x31,0x684
     624:	00600713          	addi	x14,x0,6
     628:	02ec8863          	beq	x25,x14,0x658
     62c:	00492583          	lw	x11,4(x18)
     630:	004d2503          	lw	x10,4(x26)
     634:	000a8613          	addi	x12,x21,0
     638:	000b00e7          	jalr	x1,0(x22)
     63c:	f0a04ae3          	blt	x0,x10,0x550
     640:	000d2d03          	lw	x26,0(x26)
     644:	fffd8413          	addi	x8,x27,-1
     648:	f80b98e3          	bne	x23,x0,0x5d8
     64c:	00098b93          	addi	x23,x19,0
     650:	00098493          	addi	x9,x19,0
     654:	000d0993          	addi	x19,x26,0
     658:	00492583          	lw	x11,4(x18)
     65c:	004d2503          	lw	x10,4(x26)
     660:	000a8613          	addi	x12,x21,0
     664:	000b00e7          	jalr	x1,0(x22)
     668:	eea044e3          	blt	x0,x10,0x550
     66c:	000d2d03          	lw	x26,0(x26)
     670:	fff40413          	addi	x8,x8,-1
     674:	f60492e3          	bne	x9,x0,0x5d8
     678:	00098b93          	addi	x23,x19,0
     67c:	00098493          	addi	x9,x19,0
     680:	000d0993          	addi	x19,x26,0
     684:	00492583          	lw	x11,4(x18)
     688:	004d2503          	lw	x10,4(x26)
     68c:	000a8613          	addi	x12,x21,0
     690:	000b00e7          	jalr	x1,0(x22)
     694:	eaa04ee3          	blt	x0,x10,0x550
     698:	000d2d03          	lw	x26,0(x26)
     69c:	fff40413          	addi	x8,x8,-1
     6a0:	f2049ce3          	bne	x9,x0,0x5d8
     6a4:	00098b93          	addi	x23,x19,0
     6a8:	00098493          	addi	x9,x19,0
     6ac:	000d0993          	addi	x19,x26,0
     6b0:	00492583          	lw	x11,4(x18)
     6b4:	004d2503          	lw	x10,4(x26)
     6b8:	000a8613          	addi	x12,x21,0
     6bc:	000b00e7          	jalr	x1,0(x22)
     6c0:	e8a048e3          	blt	x0,x10,0x550
     6c4:	000d2d03          	lw	x26,0(x26)
     6c8:	fff40413          	addi	x8,x8,-1
     6cc:	f00496e3          	bne	x9,x0,0x5d8
     6d0:	00098b93          	addi	x23,x19,0
     6d4:	00098493          	addi	x9,x19,0
     6d8:	000d0993          	addi	x19,x26,0
     6dc:	00492583          	lw	x11,4(x18)
     6e0:	004d2503          	lw	x10,4(x26)
     6e4:	000a8613          	addi	x12,x21,0
     6e8:	000b00e7          	jalr	x1,0(x22)
     6ec:	e6a042e3          	blt	x0,x10,0x550
     6f0:	000d2d03          	lw	x26,0(x26)
     6f4:	fff40413          	addi	x8,x8,-1
     6f8:	ee0490e3          	bne	x9,x0,0x5d8
     6fc:	00098b93          	addi	x23,x19,0
     700:	00098493          	addi	x9,x19,0
     704:	000d0993          	addi	x19,x26,0
     708:	00492583          	lw	x11,4(x18)
     70c:	004d2503          	lw	x10,4(x26)
     710:	000a8613          	addi	x12,x21,0
     714:	000b00e7          	jalr	x1,0(x22)
     718:	e2a04ce3          	blt	x0,x10,0x550
     71c:	000d2d03          	lw	x26,0(x26)
     720:	fff40413          	addi	x8,x8,-1
     724:	ea049ae3          	bne	x9,x0,0x5d8
     728:	00098b93          	addi	x23,x19,0
     72c:	00098493          	addi	x9,x19,0
     730:	000d0993          	addi	x19,x26,0
     734:	00492583          	lw	x11,4(x18)
     738:	0049a503          	lw	x10,4(x19)
     73c:	000a8613          	addi	x12,x21,0
     740:	000b00e7          	jalr	x1,0(x22)
     744:	e0a046e3          	blt	x0,x10,0x550
     748:	fff40413          	addi	x8,x8,-1
     74c:	0009ad03          	lw	x26,0(x19)
     750:	00040d93          	addi	x27,x8,0
     754:	e80492e3          	bne	x9,x0,0x5d8
     758:	00098b93          	addi	x23,x19,0
     75c:	00098493          	addi	x9,x19,0
     760:	12805a63          	bge	x0,x8,0x894
     764:	00492583          	lw	x11,4(x18)
     768:	004d2503          	lw	x10,4(x26)
     76c:	000a8613          	addi	x12,x21,0
     770:	000d0993          	addi	x19,x26,0
     774:	000b00e7          	jalr	x1,0(x22)
     778:	dca04ce3          	blt	x0,x10,0x550
     77c:	000d2d03          	lw	x26,0(x26)
     780:	fff40413          	addi	x8,x8,-1
     784:	e40b9ae3          	bne	x23,x0,0x5d8
     788:	00492583          	lw	x11,4(x18)
     78c:	004d2503          	lw	x10,4(x26)
     790:	000a8613          	addi	x12,x21,0
     794:	00098b93          	addi	x23,x19,0
     798:	00098493          	addi	x9,x19,0
     79c:	000d0993          	addi	x19,x26,0
     7a0:	000b00e7          	jalr	x1,0(x22)
     7a4:	daa046e3          	blt	x0,x10,0x550
     7a8:	000d2d03          	lw	x26,0(x26)
     7ac:	ffed8413          	addi	x8,x27,-2
     7b0:	e20b94e3          	bne	x23,x0,0x5d8
     7b4:	00492583          	lw	x11,4(x18)
     7b8:	004d2503          	lw	x10,4(x26)
     7bc:	000a8613          	addi	x12,x21,0
     7c0:	00098b93          	addi	x23,x19,0
     7c4:	00098493          	addi	x9,x19,0
     7c8:	000d0993          	addi	x19,x26,0
     7cc:	000b00e7          	jalr	x1,0(x22)
     7d0:	d8a040e3          	blt	x0,x10,0x550
     7d4:	000d2d03          	lw	x26,0(x26)
     7d8:	ffdd8413          	addi	x8,x27,-3
     7dc:	de0b9ee3          	bne	x23,x0,0x5d8
     7e0:	00492583          	lw	x11,4(x18)
     7e4:	004d2503          	lw	x10,4(x26)
     7e8:	000a8613          	addi	x12,x21,0
     7ec:	00098b93          	addi	x23,x19,0
     7f0:	00098493          	addi	x9,x19,0
     7f4:	000d0993          	addi	x19,x26,0
     7f8:	000b00e7          	jalr	x1,0(x22)
     7fc:	d4a04ae3          	blt	x0,x10,0x550
     800:	000d2d03          	lw	x26,0(x26)
     804:	ffcd8413          	addi	x8,x27,-4
     808:	dc0b98e3          	bne	x23,x0,0x5d8
     80c:	00492583          	lw	x11,4(x18)
     810:	004d2503          	lw	x10,4(x26)
     814:	000a8613          	addi	x12,x21,0
     818:	00098b93          	addi	x23,x19,0
     81c:	00098493          	addi	x9,x19,0
     820:	000d0993          	addi	x19,x26,0
     824:	000b00e7          	jalr	x1,0(x22)
     828:	d2a044e3          	blt	x0,x10,0x550
     82c:	000d2d03          	lw	x26,0(x26)
     830:	ffbd8413          	addi	x8,x27,-5
     834:	da0b92e3          	bne	x23,x0,0x5d8
     838:	00492583          	lw	x11,4(x18)
     83c:	004d2503          	lw	x10,4(x26)
     840:	000a8613          	addi	x12,x21,0
     844:	00098b93          	addi	x23,x19,0
     848:	00098493          	addi	x9,x19,0
     84c:	000d0993          	addi	x19,x26,0
     850:	000b00e7          	jalr	x1,0(x22)
     854:	cea04ee3          	blt	x0,x10,0x550
     858:	000d2d03          	lw	x26,0(x26)
     85c:	ffad8413          	addi	x8,x27,-6
     860:	d60b9ce3          	bne	x23,x0,0x5d8
     864:	00492583          	lw	x11,4(x18)
     868:	004d2503          	lw	x10,4(x26)
     86c:	000a8613          	addi	x12,x21,0
     870:	00098b93          	addi	x23,x19,0
     874:	00098493          	addi	x9,x19,0
     878:	000d0993          	addi	x19,x26,0
     87c:	000b00e7          	jalr	x1,0(x22)
     880:	cca048e3          	blt	x0,x10,0x550
     884:	000d2d03          	lw	x26,0(x26)
     888:	ff9d8413          	addi	x8,x27,-7
     88c:	d40b96e3          	bne	x23,x0,0x5d8
     890:	e99ff06f          	jal	x0,0x728
     894:	000d0993          	addi	x19,x26,0
     898:	c89ff06f          	jal	x0,0x520
     89c:	04c12083          	lw	x1,76(x2)
     8a0:	04812403          	lw	x8,72(x2)
     8a4:	04412483          	lw	x9,68(x2)
     8a8:	04012903          	lw	x18,64(x2)
     8ac:	03c12983          	lw	x19,60(x2)
     8b0:	03812a03          	lw	x20,56(x2)
     8b4:	03412a83          	lw	x21,52(x2)
     8b8:	03012b03          	lw	x22,48(x2)
     8bc:	02812c03          	lw	x24,40(x2)
     8c0:	02412c83          	lw	x25,36(x2)
     8c4:	02012d03          	lw	x26,32(x2)
     8c8:	01c12d83          	lw	x27,28(x2)
     8cc:	000b8513          	addi	x10,x23,0
     8d0:	02c12b83          	lw	x23,44(x2)
     8d4:	05010113          	addi	x2,x2,80
     8d8:	00008067          	jalr	x0,0(x1)
     8dc:	00451f03          	lh	x30,4(x10)
     8e0:	fd010113          	addi	x2,x2,-48
     8e4:	02812423          	sw	x8,40(x2)
     8e8:	02112623          	sw	x1,44(x2)
     8ec:	02912223          	sw	x9,36(x2)
     8f0:	03212023          	sw	x18,32(x2)
     8f4:	01312e23          	sw	x19,28(x2)
     8f8:	02452403          	lw	x8,36(x10)
     8fc:	29e05e63          	bge	x0,x30,0xb98
     900:	2a05c463          	blt	x11,x0,0xba8
     904:	2c040463          	beq	x8,x0,0xbcc
     908:	00058693          	addi	x13,x11,0
     90c:	00000e93          	addi	x29,x0,0
     910:	00000f93          	addi	x31,x0,0
     914:	00000613          	addi	x12,x0,0
     918:	00000313          	addi	x6,x0,0
     91c:	00000e13          	addi	x28,x0,0
     920:	00040793          	addi	x15,x8,0
     924:	00c0006f          	jal	x0,0x930
     928:	0007a783          	lw	x15,0(x15)
     92c:	0e078663          	beq	x15,x0,0xa18
     930:	0047a703          	lw	x14,4(x15)
     934:	00271803          	lh	x16,2(x14)
     938:	fed818e3          	bne	x16,x13,0x928
     93c:	00000293          	addi	x5,x0,0
     940:	0080006f          	jal	x0,0x948
     944:	00068413          	addi	x8,x13,0
     948:	00042683          	lw	x13,0(x8)
     94c:	00542023          	sw	x5,0(x8)
     950:	00028893          	addi	x17,x5,0
     954:	00040293          	addi	x5,x8,0
     958:	fe0696e3          	bne	x13,x0,0x944
     95c:	0c078263          	beq	x15,x0,0xa20
     960:	0047a383          	lw	x7,4(x15)
     964:	00160613          	addi	x12,x12,1
     968:	00039483          	lh	x9,0(x7)
     96c:	0014f913          	andi	x18,x9,1
     970:	00090863          	beq	x18,x0,0x980
     974:	4094d993          	srai	x19,x9,0x9
     978:	0019f713          	andi	x14,x19,1
     97c:	00e30333          	add	x6,x6,x14
     980:	0007a883          	lw	x17,0(x15)
     984:	00088c63          	beq	x17,x0,0x99c
     988:	0008a683          	lw	x13,0(x17)
     98c:	00d7a023          	sw	x13,0(x15)
     990:	00042783          	lw	x15,0(x8)
     994:	00f8a023          	sw	x15,0(x17)
     998:	01142023          	sw	x17,0(x8)
     99c:	04084063          	blt	x16,x0,0x9dc
     9a0:	001e8893          	addi	x17,x29,1
     9a4:	01089693          	slli	x13,x17,0x10
     9a8:	00180813          	addi	x16,x16,1
     9ac:	4106de93          	srai	x29,x13,0x10
     9b0:	01081793          	slli	x15,x16,0x10
     9b4:	01089293          	slli	x5,x17,0x10
     9b8:	4107d693          	srai	x13,x15,0x10
     9bc:	0102d393          	srli	x7,x5,0x10
     9c0:	09df0263          	beq	x30,x29,0xa44
     9c4:	0ff3fe13          	andi	x28,x7,255
     9c8:	f406dce3          	bge	x13,x0,0x920
     9cc:	000e0893          	addi	x17,x28,0
     9d0:	00040793          	addi	x15,x8,0
     9d4:	ffff8837          	lui	x16,0xffff8
     9d8:	0300006f          	jal	x0,0xa08
     9dc:	001e8913          	addi	x18,x29,1
     9e0:	01091e93          	slli	x29,x18,0x10
     9e4:	01091993          	slli	x19,x18,0x10
     9e8:	410ede93          	srai	x29,x29,0x10
     9ec:	0109d713          	srli	x14,x19,0x10
     9f0:	05df0863          	beq	x30,x29,0xa40
     9f4:	0ff77893          	andi	x17,x14,255
     9f8:	00040793          	addi	x15,x8,0
     9fc:	00c0006f          	jal	x0,0xa08
     a00:	0007a783          	lw	x15,0(x15)
     a04:	02078a63          	beq	x15,x0,0xa38
     a08:	0047a703          	lw	x14,4(x15)
     a0c:	00074e03          	lbu	x28,0(x14)
     a10:	ff1e18e3          	bne	x28,x17,0xa00
     a14:	f29ff06f          	jal	x0,0x93c
     a18:	00068813          	addi	x16,x13,0
     a1c:	f21ff06f          	jal	x0,0x93c
     a20:	0048a283          	lw	x5,4(x17)
     a24:	001f8f93          	addi	x31,x31,1
     a28:	00128383          	lb	x7,1(x5)
     a2c:	0013f493          	andi	x9,x7,1
     a30:	00930333          	add	x6,x6,x9
     a34:	f69ff06f          	jal	x0,0x99c
     a38:	00088e13          	addi	x28,x17,0
     a3c:	f01ff06f          	jal	x0,0x93c
     a40:	00080693          	addi	x13,x16,0 # 0xffff8000
     a44:	00261f13          	slli	x30,x12,0x2
     a48:	41ff0fb3          	sub	x31,x30,x31
     a4c:	01f30633          	add	x12,x6,x31
     a50:	01061313          	slli	x6,x12,0x10
     a54:	01035493          	srli	x9,x6,0x10
     a58:	02b05463          	bge	x0,x11,0xa80
     a5c:	00050613          	addi	x12,x10,0
     a60:	21800593          	addi	x11,x0,536
     a64:	00040513          	addi	x10,x8,0
     a68:	01c12623          	sw	x28,12(x2)
     a6c:	00d12423          	sw	x13,8(x2)
     a70:	91dff0ef          	jal	x1,0x38c
     a74:	00c12e03          	lw	x28,12(x2)
     a78:	00812683          	lw	x13,8(x2)
     a7c:	00050413          	addi	x8,x10,0
     a80:	00042503          	lw	x10,0(x8)
     a84:	00040913          	addi	x18,x8,0
     a88:	00052983          	lw	x19,0(x10)
     a8c:	00452703          	lw	x14,4(x10)
     a90:	0049a883          	lw	x17,4(x19)
     a94:	0009ae83          	lw	x29,0(x19)
     a98:	01152223          	sw	x17,4(x10)
     a9c:	00e9a223          	sw	x14,4(x19)
     aa0:	01d52023          	sw	x29,0(x10)
     aa4:	0009a023          	sw	x0,0(x19)
     aa8:	0006d863          	bge	x13,x0,0xab8
     aac:	0b40006f          	jal	x0,0xb60
     ab0:	00092903          	lw	x18,0(x18)
     ab4:	0a090e63          	beq	x18,x0,0xb70
     ab8:	00492783          	lw	x15,4(x18)
     abc:	00279283          	lh	x5,2(x15)
     ac0:	fed298e3          	bne	x5,x13,0xab0
     ac4:	00442383          	lw	x7,4(x8)
     ac8:	00048593          	addi	x11,x9,0
     acc:	00039503          	lh	x10,0(x7)
     ad0:	791020ef          	jal	x1,0x3a60
     ad4:	00092903          	lw	x18,0(x18)
     ad8:	00050493          	addi	x9,x10,0
     adc:	fe0914e3          	bne	x18,x0,0xac4
     ae0:	00042903          	lw	x18,0(x8)
     ae4:	0049a703          	lw	x14,4(x19)
     ae8:	00492f03          	lw	x30,4(x18)
     aec:	00092f83          	lw	x31,0(x18)
     af0:	01e9a223          	sw	x30,4(x19)
     af4:	00e92223          	sw	x14,4(x18)
     af8:	01f9a023          	sw	x31,0(x19)
     afc:	00040513          	addi	x10,x8,0
     b00:	01392023          	sw	x19,0(x18)
     b04:	09000593          	addi	x11,x0,144
     b08:	00000613          	addi	x12,x0,0
     b0c:	881ff0ef          	jal	x1,0x38c
     b10:	00052403          	lw	x8,0(x10)
     b14:	00050993          	addi	x19,x10,0
     b18:	02040063          	beq	x8,x0,0xb38
     b1c:	0049a303          	lw	x6,4(x19)
     b20:	00048593          	addi	x11,x9,0
     b24:	00031503          	lh	x10,0(x6)
     b28:	739020ef          	jal	x1,0x3a60
     b2c:	00042403          	lw	x8,0(x8)
     b30:	00050493          	addi	x9,x10,0
     b34:	fe0414e3          	bne	x8,x0,0xb1c
     b38:	02c12083          	lw	x1,44(x2)
     b3c:	02812403          	lw	x8,40(x2)
     b40:	02012903          	lw	x18,32(x2)
     b44:	01c12983          	lw	x19,28(x2)
     b48:	00048513          	addi	x10,x9,0
     b4c:	02412483          	lw	x9,36(x2)
     b50:	03010113          	addi	x2,x2,48
     b54:	00008067          	jalr	x0,0(x1)
     b58:	00092903          	lw	x18,0(x18)
     b5c:	00090a63          	beq	x18,x0,0xb70
     b60:	00492683          	lw	x13,4(x18)
     b64:	0006c803          	lbu	x16,0(x13)
     b68:	ff0e18e3          	bne	x28,x16,0xb58
     b6c:	f59ff06f          	jal	x0,0xac4
     b70:	00042903          	lw	x18,0(x8)
     b74:	f6090ae3          	beq	x18,x0,0xae8
     b78:	00442383          	lw	x7,4(x8)
     b7c:	00048593          	addi	x11,x9,0
     b80:	00039503          	lh	x10,0(x7)
     b84:	6dd020ef          	jal	x1,0x3a60
     b88:	00092903          	lw	x18,0(x18)
     b8c:	00050493          	addi	x9,x10,0
     b90:	f2091ae3          	bne	x18,x0,0xac4
     b94:	f4dff06f          	jal	x0,0xae0
     b98:	00058693          	addi	x13,x11,0
     b9c:	00000493          	addi	x9,x0,0
     ba0:	00000e13          	addi	x28,x0,0
     ba4:	eb5ff06f          	jal	x0,0xa58
     ba8:	02040263          	beq	x8,x0,0xbcc
     bac:	00058813          	addi	x16,x11,0
     bb0:	00040793          	addi	x15,x8,0
     bb4:	00000313          	addi	x6,x0,0
     bb8:	00000893          	addi	x17,x0,0
     bbc:	00000f93          	addi	x31,x0,0
     bc0:	00000e93          	addi	x29,x0,0
     bc4:	00000613          	addi	x12,x0,0
     bc8:	e41ff06f          	jal	x0,0xa08
     bcc:	00002783          	lw	x15,0(x0) # 0x0
     bd0:	00100073          	ebreak
     bd4:	ccccd7b7          	lui	x15,0xccccd
     bd8:	ccd78293          	addi	x5,x15,-819 # 0xcccccccd
     bdc:	02553833          	mulhu	x16,x10,x5
     be0:	00058513          	addi	x10,x11,0
     be4:	0005a023          	sw	x0,0(x11)
     be8:	ffff8737          	lui	x14,0xffff8
     bec:	08070313          	addi	x6,x14,128 # 0xffff8080
     bf0:	01058793          	addi	x15,x11,16
     bf4:	ffff85b7          	lui	x11,0xffff8
     bf8:	00485393          	srli	x7,x16,0x4
     bfc:	ffe38293          	addi	x5,x7,-2
     c00:	00329693          	slli	x13,x5,0x3
     c04:	00d50833          	add	x16,x10,x13
     c08:	01052223          	sw	x16,4(x10)
     c0c:	00229893          	slli	x17,x5,0x2
     c10:	00681023          	sh	x6,0(x16)
     c14:	00081123          	sh	x0,2(x16)
     c18:	011803b3          	add	x7,x16,x17
     c1c:	00480e13          	addi	x28,x16,4
     c20:	2f07f863          	bgeu	x15,x16,0xf10
     c24:	00880713          	addi	x14,x16,8
     c28:	2e777c63          	bgeu	x14,x7,0xf20
     c2c:	00850313          	addi	x6,x10,8
     c30:	00052423          	sw	x0,8(x10)
     c34:	01c52623          	sw	x28,12(x10)
     c38:	00652023          	sw	x6,0(x10)
     c3c:	fff5ce93          	xori	x29,x11,-1
     c40:	fff00f13          	addi	x30,x0,-1
     c44:	01d81323          	sh	x29,6(x16)
     c48:	01e81223          	sh	x30,4(x16)
     c4c:	00000e93          	addi	x29,x0,0
     c50:	24028863          	beq	x5,x0,0xea0
     c54:	ffff8fb7          	lui	x31,0xffff8
     c58:	0032f593          	andi	x11,x5,3
     c5c:	ffffc693          	xori	x13,x31,-1
     c60:	0e058e63          	beq	x11,x0,0xd5c
     c64:	00100893          	addi	x17,x0,1
     c68:	0b158063          	beq	x11,x17,0xd08
     c6c:	00200e13          	addi	x28,x0,2
     c70:	05c58463          	beq	x11,x28,0xcb8
     c74:	00878e93          	addi	x29,x15,8
     c78:	030efe63          	bgeu	x29,x16,0xcb4
     c7c:	00470f13          	addi	x30,x14,4
     c80:	027f7a63          	bgeu	x30,x7,0xcb4
     c84:	0067a023          	sw	x6,0(x15)
     c88:	00361313          	slli	x6,x12,0x3
     c8c:	07837f93          	andi	x31,x6,120
     c90:	00f52023          	sw	x15,0(x10)
     c94:	008f9593          	slli	x11,x31,0x8
     c98:	00e7a223          	sw	x14,4(x15)
     c9c:	00bf88b3          	add	x17,x31,x11
     ca0:	00078313          	addi	x6,x15,0
     ca4:	00d71123          	sh	x13,2(x14)
     ca8:	01171023          	sh	x17,0(x14)
     cac:	000e8793          	addi	x15,x29,0
     cb0:	000f0713          	addi	x14,x30,0
     cb4:	00100e93          	addi	x29,x0,1
     cb8:	00878e13          	addi	x28,x15,8
     cbc:	050e7463          	bgeu	x28,x16,0xd04
     cc0:	00470f13          	addi	x30,x14,4
     cc4:	047f7063          	bgeu	x30,x7,0xd04
     cc8:	0067a023          	sw	x6,0(x15)
     ccc:	00cec333          	xor	x6,x29,x12
     cd0:	00331f93          	slli	x31,x6,0x3
     cd4:	078ff593          	andi	x11,x31,120
     cd8:	007ef893          	andi	x17,x29,7
     cdc:	0115efb3          	or	x31,x11,x17
     ce0:	00f52023          	sw	x15,0(x10)
     ce4:	008f9313          	slli	x6,x31,0x8
     ce8:	00e7a223          	sw	x14,4(x15)
     cec:	006f85b3          	add	x11,x31,x6
     cf0:	00d71123          	sh	x13,2(x14)
     cf4:	00078313          	addi	x6,x15,0
     cf8:	00b71023          	sh	x11,0(x14)
     cfc:	000e0793          	addi	x15,x28,0
     d00:	000f0713          	addi	x14,x30,0
     d04:	001e8e93          	addi	x29,x29,1
     d08:	00878e13          	addi	x28,x15,8
     d0c:	050e7463          	bgeu	x28,x16,0xd54
     d10:	00470f13          	addi	x30,x14,4
     d14:	047f7063          	bgeu	x30,x7,0xd54
     d18:	00cec8b3          	xor	x17,x29,x12
     d1c:	00389f93          	slli	x31,x17,0x3
     d20:	0067a023          	sw	x6,0(x15)
     d24:	078ff593          	andi	x11,x31,120
     d28:	007ef313          	andi	x6,x29,7
     d2c:	0065e8b3          	or	x17,x11,x6
     d30:	00f52023          	sw	x15,0(x10)
     d34:	00889f93          	slli	x31,x17,0x8
     d38:	00e7a223          	sw	x14,4(x15)
     d3c:	01f885b3          	add	x11,x17,x31
     d40:	00078313          	addi	x6,x15,0
     d44:	00d71123          	sh	x13,2(x14)
     d48:	00b71023          	sh	x11,0(x14)
     d4c:	000e0793          	addi	x15,x28,0
     d50:	000f0713          	addi	x14,x30,0
     d54:	001e8e93          	addi	x29,x29,1
     d58:	15d28463          	beq	x5,x29,0xea0
     d5c:	00878e13          	addi	x28,x15,8
     d60:	050e7463          	bgeu	x28,x16,0xda8
     d64:	00470f13          	addi	x30,x14,4
     d68:	047f7063          	bgeu	x30,x7,0xda8
     d6c:	0067a023          	sw	x6,0(x15)
     d70:	00cec333          	xor	x6,x29,x12
     d74:	00331893          	slli	x17,x6,0x3
     d78:	0788ff93          	andi	x31,x17,120
     d7c:	007ef593          	andi	x11,x29,7
     d80:	00bfe8b3          	or	x17,x31,x11
     d84:	00f52023          	sw	x15,0(x10)
     d88:	00889313          	slli	x6,x17,0x8
     d8c:	00e7a223          	sw	x14,4(x15)
     d90:	00688fb3          	add	x31,x17,x6
     d94:	00d71123          	sh	x13,2(x14)
     d98:	00078313          	addi	x6,x15,0
     d9c:	01f71023          	sh	x31,0(x14)
     da0:	000e0793          	addi	x15,x28,0
     da4:	000f0713          	addi	x14,x30,0
     da8:	00878e13          	addi	x28,x15,8
     dac:	001e8e93          	addi	x29,x29,1
     db0:	050e7463          	bgeu	x28,x16,0xdf8
     db4:	00470f13          	addi	x30,x14,4
     db8:	047f7063          	bgeu	x30,x7,0xdf8
     dbc:	00cec5b3          	xor	x11,x29,x12
     dc0:	00359893          	slli	x17,x11,0x3
     dc4:	0067a023          	sw	x6,0(x15)
     dc8:	0788ff93          	andi	x31,x17,120
     dcc:	007ef313          	andi	x6,x29,7
     dd0:	006fe5b3          	or	x11,x31,x6
     dd4:	00f52023          	sw	x15,0(x10)
     dd8:	00859893          	slli	x17,x11,0x8
     ddc:	00e7a223          	sw	x14,4(x15)
     de0:	01158fb3          	add	x31,x11,x17
     de4:	00078313          	addi	x6,x15,0
     de8:	00d71123          	sh	x13,2(x14)
     dec:	01f71023          	sh	x31,0(x14)
     df0:	000e0793          	addi	x15,x28,0
     df4:	000f0713          	addi	x14,x30,0
     df8:	00878e13          	addi	x28,x15,8
     dfc:	050e7663          	bgeu	x28,x16,0xe48
     e00:	00470f13          	addi	x30,x14,4
     e04:	047f7263          	bgeu	x30,x7,0xe48
     e08:	0067a023          	sw	x6,0(x15)
     e0c:	001e8313          	addi	x6,x29,1
     e10:	00c345b3          	xor	x11,x6,x12
     e14:	00359893          	slli	x17,x11,0x3
     e18:	0788ff93          	andi	x31,x17,120
     e1c:	00737313          	andi	x6,x6,7
     e20:	006fe5b3          	or	x11,x31,x6
     e24:	00f52023          	sw	x15,0(x10)
     e28:	00859893          	slli	x17,x11,0x8
     e2c:	00e7a223          	sw	x14,4(x15)
     e30:	01158fb3          	add	x31,x11,x17
     e34:	00078313          	addi	x6,x15,0
     e38:	00d71123          	sh	x13,2(x14)
     e3c:	01f71023          	sh	x31,0(x14)
     e40:	000e0793          	addi	x15,x28,0
     e44:	000f0713          	addi	x14,x30,0
     e48:	00878e13          	addi	x28,x15,8
     e4c:	050e7663          	bgeu	x28,x16,0xe98
     e50:	00470f13          	addi	x30,x14,4
     e54:	047f7263          	bgeu	x30,x7,0xe98
     e58:	0067a023          	sw	x6,0(x15)
     e5c:	002e8313          	addi	x6,x29,2
     e60:	00c345b3          	xor	x11,x6,x12
     e64:	00359893          	slli	x17,x11,0x3
     e68:	0788ff93          	andi	x31,x17,120
     e6c:	00737313          	andi	x6,x6,7
     e70:	006fe5b3          	or	x11,x31,x6
     e74:	00f52023          	sw	x15,0(x10)
     e78:	00859893          	slli	x17,x11,0x8
     e7c:	00e7a223          	sw	x14,4(x15)
     e80:	01158fb3          	add	x31,x11,x17
     e84:	00078313          	addi	x6,x15,0
     e88:	00d71123          	sh	x13,2(x14)
     e8c:	01f71023          	sh	x31,0(x14)
     e90:	000e0793          	addi	x15,x28,0
     e94:	000f0713          	addi	x14,x30,0
     e98:	003e8e93          	addi	x29,x29,3
     e9c:	edd290e3          	bne	x5,x29,0xd5c
     ea0:	00032683          	lw	x13,0(x6)
     ea4:	06068063          	beq	x13,x0,0xf04
     ea8:	ccccd837          	lui	x16,0xccccd
     eac:	ccd80393          	addi	x7,x16,-819 # 0xcccccccd
     eb0:	0272b2b3          	mulhu	x5,x5,x7
     eb4:	00004e37          	lui	x28,0x4
     eb8:	fffe0393          	addi	x7,x28,-1 # 0x3fff
     ebc:	20000813          	addi	x16,x0,512
     ec0:	00100713          	addi	x14,x0,1
     ec4:	0022d593          	srli	x11,x5,0x2
     ec8:	0080006f          	jal	x0,0xed0
     ecc:	000e8693          	addi	x13,x29,0
     ed0:	70087f13          	andi	x30,x16,1792
     ed4:	00e648b3          	xor	x17,x12,x14
     ed8:	011f6fb3          	or	x31,x30,x17
     edc:	00432303          	lw	x6,4(x6)
     ee0:	007ff7b3          	and	x15,x31,x7
     ee4:	00b77463          	bgeu	x14,x11,0xeec
     ee8:	00070793          	addi	x15,x14,0
     eec:	0006ae83          	lw	x29,0(x13)
     ef0:	00f31123          	sh	x15,2(x6)
     ef4:	00170713          	addi	x14,x14,1
     ef8:	10080813          	addi	x16,x16,256
     efc:	00068313          	addi	x6,x13,0
     f00:	fc0e96e3          	bne	x29,x0,0xecc
     f04:	09000593          	addi	x11,x0,144
     f08:	00000613          	addi	x12,x0,0
     f0c:	c80ff06f          	jal	x0,0x38c
     f10:	00052303          	lw	x6,0(x10)
     f14:	000e0713          	addi	x14,x28,0
     f18:	00850793          	addi	x15,x10,8
     f1c:	d31ff06f          	jal	x0,0xc4c
     f20:	00052303          	lw	x6,0(x10)
     f24:	000e0713          	addi	x14,x28,0
     f28:	00850793          	addi	x15,x10,8
     f2c:	d21ff06f          	jal	x0,0xc4c
     f30:	fe010113          	addi	x2,x2,-32
     f34:	01312623          	sw	x19,12(x2)
     f38:	01c52983          	lw	x19,28(x10)
     f3c:	00112e23          	sw	x1,28(x2)
     f40:	02052c23          	sw	x0,56(x10)
     f44:	02052e23          	sw	x0,60(x10)
     f48:	1e098263          	beq	x19,x0,0x112c
     f4c:	00812c23          	sw	x8,24(x2)
     f50:	00912a23          	sw	x9,20(x2)
     f54:	01212823          	sw	x18,16(x2)
     f58:	0039f793          	andi	x15,x19,3
     f5c:	00050413          	addi	x8,x10,0
     f60:	00000493          	addi	x9,x0,0
     f64:	0a078e63          	beq	x15,x0,0x1020
     f68:	00100913          	addi	x18,x0,1
     f6c:	07278c63          	beq	x15,x18,0xfe4
     f70:	00200713          	addi	x14,x0,2
     f74:	02e78c63          	beq	x15,x14,0xfac
     f78:	00090593          	addi	x11,x18,0
     f7c:	961ff0ef          	jal	x1,0x8dc
     f80:	03845583          	lhu	x11,56(x8)
     f84:	00090493          	addi	x9,x18,0
     f88:	490020ef          	jal	x1,0x3418
     f8c:	02a41c23          	sh	x10,56(x8)
     f90:	fff00593          	addi	x11,x0,-1
     f94:	00040513          	addi	x10,x8,0
     f98:	945ff0ef          	jal	x1,0x8dc
     f9c:	03845583          	lhu	x11,56(x8)
     fa0:	478020ef          	jal	x1,0x3418
     fa4:	02a41c23          	sh	x10,56(x8)
     fa8:	02a41d23          	sh	x10,58(x8)
     fac:	00100593          	addi	x11,x0,1
     fb0:	00040513          	addi	x10,x8,0
     fb4:	929ff0ef          	jal	x1,0x8dc
     fb8:	03845583          	lhu	x11,56(x8)
     fbc:	45c020ef          	jal	x1,0x3418
     fc0:	02a41c23          	sh	x10,56(x8)
     fc4:	fff00593          	addi	x11,x0,-1
     fc8:	00040513          	addi	x10,x8,0
     fcc:	911ff0ef          	jal	x1,0x8dc
     fd0:	03845583          	lhu	x11,56(x8)
     fd4:	444020ef          	jal	x1,0x3418
     fd8:	02a41c23          	sh	x10,56(x8)
     fdc:	18048063          	beq	x9,x0,0x115c
     fe0:	00148493          	addi	x9,x9,1
     fe4:	00100593          	addi	x11,x0,1
     fe8:	00040513          	addi	x10,x8,0
     fec:	8f1ff0ef          	jal	x1,0x8dc
     ff0:	03845583          	lhu	x11,56(x8)
     ff4:	424020ef          	jal	x1,0x3418
     ff8:	02a41c23          	sh	x10,56(x8)
     ffc:	fff00593          	addi	x11,x0,-1
    1000:	00040513          	addi	x10,x8,0
    1004:	8d9ff0ef          	jal	x1,0x8dc
    1008:	03845583          	lhu	x11,56(x8)
    100c:	40c020ef          	jal	x1,0x3418
    1010:	02a41c23          	sh	x10,56(x8)
    1014:	12048c63          	beq	x9,x0,0x114c
    1018:	00148493          	addi	x9,x9,1
    101c:	14998663          	beq	x19,x9,0x1168
    1020:	01412423          	sw	x20,8(x2)
    1024:	00100593          	addi	x11,x0,1
    1028:	00040513          	addi	x10,x8,0
    102c:	8b1ff0ef          	jal	x1,0x8dc
    1030:	03845583          	lhu	x11,56(x8)
    1034:	3e4020ef          	jal	x1,0x3418
    1038:	02a41c23          	sh	x10,56(x8)
    103c:	fff00593          	addi	x11,x0,-1
    1040:	00040513          	addi	x10,x8,0
    1044:	899ff0ef          	jal	x1,0x8dc
    1048:	03845583          	lhu	x11,56(x8)
    104c:	3cc020ef          	jal	x1,0x3418
    1050:	00050293          	addi	x5,x10,0
    1054:	00100593          	addi	x11,x0,1
    1058:	02541c23          	sh	x5,56(x8)
    105c:	00040513          	addi	x10,x8,0
    1060:	00b48933          	add	x18,x9,x11
    1064:	00049463          	bne	x9,x0,0x106c
    1068:	02541d23          	sh	x5,58(x8)
    106c:	871ff0ef          	jal	x1,0x8dc
    1070:	03845583          	lhu	x11,56(x8)
    1074:	3a4020ef          	jal	x1,0x3418
    1078:	02a41c23          	sh	x10,56(x8)
    107c:	fff00593          	addi	x11,x0,-1
    1080:	00040513          	addi	x10,x8,0
    1084:	859ff0ef          	jal	x1,0x8dc
    1088:	03845583          	lhu	x11,56(x8)
    108c:	38c020ef          	jal	x1,0x3418
    1090:	02a41c23          	sh	x10,56(x8)
    1094:	00091463          	bne	x18,x0,0x109c
    1098:	02a41d23          	sh	x10,58(x8)
    109c:	00100593          	addi	x11,x0,1
    10a0:	00040513          	addi	x10,x8,0
    10a4:	00b904b3          	add	x9,x18,x11
    10a8:	835ff0ef          	jal	x1,0x8dc
    10ac:	03845583          	lhu	x11,56(x8)
    10b0:	00290a13          	addi	x20,x18,2
    10b4:	364020ef          	jal	x1,0x3418
    10b8:	02a41c23          	sh	x10,56(x8)
    10bc:	fff00593          	addi	x11,x0,-1
    10c0:	00040513          	addi	x10,x8,0
    10c4:	819ff0ef          	jal	x1,0x8dc
    10c8:	03845583          	lhu	x11,56(x8)
    10cc:	34c020ef          	jal	x1,0x3418
    10d0:	00050313          	addi	x6,x10,0
    10d4:	02641c23          	sh	x6,56(x8)
    10d8:	00100593          	addi	x11,x0,1
    10dc:	00040513          	addi	x10,x8,0
    10e0:	00049463          	bne	x9,x0,0x10e8
    10e4:	02641d23          	sh	x6,58(x8)
    10e8:	ff4ff0ef          	jal	x1,0x8dc
    10ec:	03845583          	lhu	x11,56(x8)
    10f0:	00390493          	addi	x9,x18,3
    10f4:	324020ef          	jal	x1,0x3418
    10f8:	02a41c23          	sh	x10,56(x8)
    10fc:	fff00593          	addi	x11,x0,-1
    1100:	00040513          	addi	x10,x8,0
    1104:	fd8ff0ef          	jal	x1,0x8dc
    1108:	03845583          	lhu	x11,56(x8)
    110c:	30c020ef          	jal	x1,0x3418
    1110:	02a41c23          	sh	x10,56(x8)
    1114:	020a0663          	beq	x20,x0,0x1140
    1118:	f09996e3          	bne	x19,x9,0x1024
    111c:	01812403          	lw	x8,24(x2)
    1120:	01412483          	lw	x9,20(x2)
    1124:	01012903          	lw	x18,16(x2)
    1128:	00812a03          	lw	x20,8(x2)
    112c:	01c12083          	lw	x1,28(x2)
    1130:	00c12983          	lw	x19,12(x2)
    1134:	00000513          	addi	x10,x0,0
    1138:	02010113          	addi	x2,x2,32
    113c:	00008067          	jalr	x0,0(x1)
    1140:	02a41d23          	sh	x10,58(x8)
    1144:	ee9990e3          	bne	x19,x9,0x1024
    1148:	fd5ff06f          	jal	x0,0x111c
    114c:	02a41d23          	sh	x10,58(x8)
    1150:	00148493          	addi	x9,x9,1
    1154:	ec9996e3          	bne	x19,x9,0x1020
    1158:	0100006f          	jal	x0,0x1168
    115c:	02a41d23          	sh	x10,58(x8)
    1160:	00148493          	addi	x9,x9,1
    1164:	e81ff06f          	jal	x0,0xfe4
    1168:	01812403          	lw	x8,24(x2)
    116c:	01412483          	lw	x9,20(x2)
    1170:	01012903          	lw	x18,16(x2)
    1174:	fb9ff06f          	jal	x0,0x112c
    1178:	fd010113          	addi	x2,x2,-48
    117c:	02912423          	sw	x9,40(x2)
    1180:	03212223          	sw	x18,36(x2)
    1184:	03312023          	sw	x19,32(x2)
    1188:	00050813          	addi	x16,x10,0
    118c:	00068493          	addi	x9,x13,0
    1190:	00061463          	bne	x12,x0,0x1198
    1194:	00100613          	addi	x12,x0,1
    1198:	fff58693          	addi	x13,x11,-1 # 0xffff7fff
    119c:	ffc6f293          	andi	x5,x13,-4
    11a0:	00428913          	addi	x18,x5,4
    11a4:	00000793          	addi	x15,x0,0
    11a8:	26080263          	beq	x16,x0,0x140c
    11ac:	00078513          	addi	x10,x15,0
    11b0:	00178793          	addi	x15,x15,1
    11b4:	02f78733          	mul	x14,x15,x15
    11b8:	00371313          	slli	x6,x14,0x3
    11bc:	ff0368e3          	bltu	x6,x16,0x11ac
    11c0:	02a503b3          	mul	x7,x10,x10
    11c4:	00139393          	slli	x7,x7,0x1
    11c8:	007906b3          	add	x13,x18,x7
    11cc:	26050263          	beq	x10,x0,0x1430
    11d0:	02812623          	sw	x8,44(x2)
    11d4:	01512c23          	sw	x21,24(x2)
    11d8:	01712823          	sw	x23,16(x2)
    11dc:	01812623          	sw	x24,12(x2)
    11e0:	00050993          	addi	x19,x10,0
    11e4:	00150e13          	addi	x28,x10,1
    11e8:	00151413          	slli	x8,x10,0x1
    11ec:	00068e93          	addi	x29,x13,0
    11f0:	00000f93          	addi	x31,x0,0
    11f4:	00100793          	addi	x15,x0,1
    11f8:	40d90333          	sub	x6,x18,x13
    11fc:	40fe05b3          	sub	x11,x28,x15
    1200:	0035f893          	andi	x17,x11,3
    1204:	00078f13          	addi	x30,x15,0
    1208:	000e8713          	addi	x14,x29,0
    120c:	0c088663          	beq	x17,x0,0x12d8
    1210:	00100a93          	addi	x21,x0,1
    1214:	09588263          	beq	x17,x21,0x1298
    1218:	00200b93          	addi	x23,x0,2
    121c:	05788063          	beq	x17,x23,0x125c
    1220:	02f60633          	mul	x12,x12,x15
    1224:	002e8713          	addi	x14,x29,2
    1228:	41f65c13          	srai	x24,x12,0x1f
    122c:	010c5813          	srli	x16,x24,0x10
    1230:	010602b3          	add	x5,x12,x16
    1234:	01029593          	slli	x11,x5,0x10
    1238:	0105d893          	srli	x17,x11,0x10
    123c:	41088633          	sub	x12,x17,x16
    1240:	00c78ab3          	add	x21,x15,x12
    1244:	00fa8bb3          	add	x23,x21,x15
    1248:	015e9023          	sh	x21,0(x29)
    124c:	0ffbfc13          	andi	x24,x23,255
    1250:	01d30833          	add	x16,x6,x29
    1254:	00178793          	addi	x15,x15,1
    1258:	01881023          	sh	x24,0(x16)
    125c:	02f60633          	mul	x12,x12,x15
    1260:	00e302b3          	add	x5,x6,x14
    1264:	00270713          	addi	x14,x14,2
    1268:	41f65593          	srai	x11,x12,0x1f
    126c:	0105d893          	srli	x17,x11,0x10
    1270:	01160ab3          	add	x21,x12,x17
    1274:	010a9b93          	slli	x23,x21,0x10
    1278:	010bdc13          	srli	x24,x23,0x10
    127c:	411c0633          	sub	x12,x24,x17
    1280:	00c78833          	add	x16,x15,x12
    1284:	00f805b3          	add	x11,x16,x15
    1288:	ff071f23          	sh	x16,-2(x14)
    128c:	0ff5f893          	andi	x17,x11,255
    1290:	00178793          	addi	x15,x15,1
    1294:	01129023          	sh	x17,0(x5)
    1298:	02f60633          	mul	x12,x12,x15
    129c:	00e302b3          	add	x5,x6,x14
    12a0:	00270713          	addi	x14,x14,2
    12a4:	41f65a93          	srai	x21,x12,0x1f
    12a8:	010adb93          	srli	x23,x21,0x10
    12ac:	01760c33          	add	x24,x12,x23
    12b0:	010c1813          	slli	x16,x24,0x10
    12b4:	01085593          	srli	x11,x16,0x10
    12b8:	41758633          	sub	x12,x11,x23
    12bc:	00c788b3          	add	x17,x15,x12
    12c0:	00f88ab3          	add	x21,x17,x15
    12c4:	ff171f23          	sh	x17,-2(x14)
    12c8:	0ffafb93          	andi	x23,x21,255
    12cc:	00178793          	addi	x15,x15,1
    12d0:	01729023          	sh	x23,0(x5)
    12d4:	0fc78063          	beq	x15,x28,0x13b4
    12d8:	02f60633          	mul	x12,x12,x15
    12dc:	00178293          	addi	x5,x15,1
    12e0:	00e30bb3          	add	x23,x6,x14
    12e4:	00278893          	addi	x17,x15,2
    12e8:	00378813          	addi	x16,x15,3
    12ec:	00870713          	addi	x14,x14,8
    12f0:	41f65c13          	srai	x24,x12,0x1f
    12f4:	010c5a93          	srli	x21,x24,0x10
    12f8:	015605b3          	add	x11,x12,x21
    12fc:	01059613          	slli	x12,x11,0x10
    1300:	01065c13          	srli	x24,x12,0x10
    1304:	415c0ab3          	sub	x21,x24,x21
    1308:	025a8633          	mul	x12,x21,x5
    130c:	015785b3          	add	x11,x15,x21
    1310:	feb71c23          	sh	x11,-8(x14)
    1314:	00f58c33          	add	x24,x11,x15
    1318:	0ffc7a93          	andi	x21,x24,255
    131c:	015b9023          	sh	x21,0(x23)
    1320:	00478793          	addi	x15,x15,4
    1324:	41f65593          	srai	x11,x12,0x1f
    1328:	0105dc13          	srli	x24,x11,0x10
    132c:	01860633          	add	x12,x12,x24
    1330:	01061a93          	slli	x21,x12,0x10
    1334:	010ad593          	srli	x11,x21,0x10
    1338:	41858c33          	sub	x24,x11,x24
    133c:	031c05b3          	mul	x11,x24,x17
    1340:	01828633          	add	x12,x5,x24
    1344:	fec71d23          	sh	x12,-6(x14)
    1348:	005602b3          	add	x5,x12,x5
    134c:	0ff2fa93          	andi	x21,x5,255
    1350:	015b9123          	sh	x21,2(x23)
    1354:	41f5dc13          	srai	x24,x11,0x1f
    1358:	010c5613          	srli	x12,x24,0x10
    135c:	00c585b3          	add	x11,x11,x12
    1360:	01059293          	slli	x5,x11,0x10
    1364:	0102da93          	srli	x21,x5,0x10
    1368:	40ca8c33          	sub	x24,x21,x12
    136c:	030c0633          	mul	x12,x24,x16
    1370:	018885b3          	add	x11,x17,x24
    1374:	feb71e23          	sh	x11,-4(x14)
    1378:	011588b3          	add	x17,x11,x17
    137c:	0ff8f293          	andi	x5,x17,255
    1380:	005b9223          	sh	x5,4(x23)
    1384:	41f65a93          	srai	x21,x12,0x1f
    1388:	010adc13          	srli	x24,x21,0x10
    138c:	01860633          	add	x12,x12,x24
    1390:	01061593          	slli	x11,x12,0x10
    1394:	0105d893          	srli	x17,x11,0x10
    1398:	41888633          	sub	x12,x17,x24
    139c:	00c802b3          	add	x5,x16,x12
    13a0:	01028833          	add	x16,x5,x16
    13a4:	fe571f23          	sh	x5,-2(x14)
    13a8:	0ff87a93          	andi	x21,x16,255
    13ac:	015b9323          	sh	x21,6(x23)
    13b0:	f3c794e3          	bne	x15,x28,0x12d8
    13b4:	001f8f93          	addi	x31,x31,1 # 0xffff8001
    13b8:	01e507b3          	add	x15,x10,x30
    13bc:	00ae0e33          	add	x28,x28,x10
    13c0:	008e8eb3          	add	x29,x29,x8
    13c4:	e2af9ce3          	bne	x31,x10,0x11fc
    13c8:	02c12403          	lw	x8,44(x2)
    13cc:	01812a83          	lw	x21,24(x2)
    13d0:	01012b83          	lw	x23,16(x2)
    13d4:	00c12c03          	lw	x24,12(x2)
    13d8:	00768f33          	add	x30,x13,x7
    13dc:	ffff0793          	addi	x15,x30,-1
    13e0:	ffc7f713          	andi	x14,x15,-4
    13e4:	00470313          	addi	x6,x14,4
    13e8:	0124a223          	sw	x18,4(x9)
    13ec:	0134a023          	sw	x19,0(x9)
    13f0:	0064a623          	sw	x6,12(x9)
    13f4:	00d4a423          	sw	x13,8(x9)
    13f8:	02412903          	lw	x18,36(x2)
    13fc:	02812483          	lw	x9,40(x2)
    1400:	02012983          	lw	x19,32(x2)
    1404:	03010113          	addi	x2,x2,48
    1408:	00008067          	jalr	x0,0(x1)
    140c:	fff00993          	addi	x19,x0,-1
    1410:	02812623          	sw	x8,44(x2)
    1414:	01512c23          	sw	x21,24(x2)
    1418:	01712823          	sw	x23,16(x2)
    141c:	01812623          	sw	x24,12(x2)
    1420:	00628693          	addi	x13,x5,6
    1424:	00098513          	addi	x10,x19,0
    1428:	00200393          	addi	x7,x0,2
    142c:	db9ff06f          	jal	x0,0x11e4
    1430:	00000393          	addi	x7,x0,0
    1434:	00000993          	addi	x19,x0,0
    1438:	fa1ff06f          	jal	x0,0x13d8
    143c:	00050893          	addi	x17,x10,0
    1440:	18050463          	beq	x10,x0,0x15c8
    1444:	00251313          	slli	x6,x10,0x2
    1448:	00658833          	add	x16,x11,x6
    144c:	00000e13          	addi	x28,x0,0
    1450:	00000513          	addi	x10,x0,0
    1454:	00000593          	addi	x11,x0,0
    1458:	00000793          	addi	x15,x0,0
    145c:	ffc30713          	addi	x14,x6,-4
    1460:	00275293          	srli	x5,x14,0x2
    1464:	00128393          	addi	x7,x5,1
    1468:	0033ff13          	andi	x30,x7,3
    146c:	406806b3          	sub	x13,x16,x6
    1470:	0c0f0e63          	beq	x30,x0,0x154c
    1474:	00100e93          	addi	x29,x0,1
    1478:	05df0263          	beq	x30,x29,0x14bc
    147c:	00200f93          	addi	x31,x0,2
    1480:	03ff0063          	beq	x30,x31,0x14a0
    1484:	00058713          	addi	x14,x11,0
    1488:	0006a583          	lw	x11,0(x13)
    148c:	00b787b3          	add	x15,x15,x11
    1490:	12f65663          	bge	x12,x15,0x15bc
    1494:	00a50513          	addi	x10,x10,10
    1498:	00000793          	addi	x15,x0,0
    149c:	00468693          	addi	x13,x13,4
    14a0:	00058393          	addi	x7,x11,0
    14a4:	0006a583          	lw	x11,0(x13)
    14a8:	00b787b3          	add	x15,x15,x11
    14ac:	10f65263          	bge	x12,x15,0x15b0
    14b0:	00a50513          	addi	x10,x10,10
    14b4:	00000793          	addi	x15,x0,0
    14b8:	00468693          	addi	x13,x13,4
    14bc:	00058e93          	addi	x29,x11,0
    14c0:	0006a583          	lw	x11,0(x13)
    14c4:	00b787b3          	add	x15,x15,x11
    14c8:	0cf65e63          	bge	x12,x15,0x15a4
    14cc:	00a50513          	addi	x10,x10,10
    14d0:	00000793          	addi	x15,x0,0
    14d4:	01051713          	slli	x14,x10,0x10
    14d8:	00468693          	addi	x13,x13,4
    14dc:	41075513          	srai	x10,x14,0x10
    14e0:	06d81663          	bne	x16,x13,0x154c
    14e4:	001e0e13          	addi	x28,x28,1
    14e8:	00680833          	add	x16,x16,x6
    14ec:	f7c898e3          	bne	x17,x28,0x145c
    14f0:	00008067          	jalr	x0,0(x1)
    14f4:	0046af03          	lw	x30,4(x13)
    14f8:	0055a5b3          	slt	x11,x11,x5
    14fc:	00b503b3          	add	x7,x10,x11
    1500:	01e78eb3          	add	x29,x15,x30
    1504:	00468693          	addi	x13,x13,4
    1508:	07d65463          	bge	x12,x29,0x1570
    150c:	0046a703          	lw	x14,4(x13)
    1510:	00000e93          	addi	x29,x0,0
    1514:	00a38513          	addi	x10,x7,10
    1518:	00ee82b3          	add	x5,x29,x14
    151c:	06565463          	bge	x12,x5,0x1584
    1520:	0086a583          	lw	x11,8(x13)
    1524:	00000293          	addi	x5,x0,0
    1528:	00a50393          	addi	x7,x10,10
    152c:	00b287b3          	add	x15,x5,x11
    1530:	06f65463          	bge	x12,x15,0x1598
    1534:	00a38e93          	addi	x29,x7,10
    1538:	00000793          	addi	x15,x0,0
    153c:	010e9f93          	slli	x31,x29,0x10
    1540:	00c68693          	addi	x13,x13,12
    1544:	410fd513          	srai	x10,x31,0x10
    1548:	f8d80ee3          	beq	x16,x13,0x14e4
    154c:	0006a283          	lw	x5,0(x13)
    1550:	005787b3          	add	x15,x15,x5
    1554:	faf650e3          	bge	x12,x15,0x14f4
    1558:	0046af03          	lw	x30,4(x13)
    155c:	00000793          	addi	x15,x0,0
    1560:	00a50393          	addi	x7,x10,10
    1564:	01e78eb3          	add	x29,x15,x30
    1568:	00468693          	addi	x13,x13,4
    156c:	fbd640e3          	blt	x12,x29,0x150c
    1570:	0046a703          	lw	x14,4(x13)
    1574:	01e2afb3          	slt	x31,x5,x30
    1578:	01f38533          	add	x10,x7,x31
    157c:	00ee82b3          	add	x5,x29,x14
    1580:	fa5640e3          	blt	x12,x5,0x1520
    1584:	00ef25b3          	slt	x11,x30,x14
    1588:	00b503b3          	add	x7,x10,x11
    158c:	0086a583          	lw	x11,8(x13)
    1590:	00b287b3          	add	x15,x5,x11
    1594:	faf640e3          	blt	x12,x15,0x1534
    1598:	00b72f33          	slt	x30,x14,x11
    159c:	01e38eb3          	add	x29,x7,x30
    15a0:	f9dff06f          	jal	x0,0x153c
    15a4:	00beafb3          	slt	x31,x29,x11
    15a8:	01f50533          	add	x10,x10,x31
    15ac:	f29ff06f          	jal	x0,0x14d4
    15b0:	00b3af33          	slt	x30,x7,x11
    15b4:	01e50533          	add	x10,x10,x30
    15b8:	f01ff06f          	jal	x0,0x14b8
    15bc:	00b722b3          	slt	x5,x14,x11
    15c0:	00550533          	add	x10,x10,x5
    15c4:	ed9ff06f          	jal	x0,0x149c
    15c8:	00000513          	addi	x10,x0,0
    15cc:	00008067          	jalr	x0,0(x1)
    15d0:	18050663          	beq	x10,x0,0x175c
    15d4:	ff010113          	addi	x2,x2,-16
    15d8:	00151293          	slli	x5,x10,0x1
    15dc:	00812623          	sw	x8,12(x2)
    15e0:	00560833          	add	x16,x12,x5
    15e4:	00000413          	addi	x8,x0,0
    15e8:	00000393          	addi	x7,x0,0
    15ec:	ffe28613          	addi	x12,x5,-2
    15f0:	00165313          	srli	x6,x12,0x1
    15f4:	00130713          	addi	x14,x6,1
    15f8:	00777e13          	andi	x28,x14,7
    15fc:	00241793          	slli	x15,x8,0x2
    1600:	00f587b3          	add	x15,x11,x15
    1604:	40580733          	sub	x14,x16,x5
    1608:	0c0e0263          	beq	x28,x0,0x16cc
    160c:	00100893          	addi	x17,x0,1
    1610:	0b1e0263          	beq	x28,x17,0x16b4
    1614:	00200e93          	addi	x29,x0,2
    1618:	09de0463          	beq	x28,x29,0x16a0
    161c:	00300f13          	addi	x30,x0,3
    1620:	07ee0663          	beq	x28,x30,0x168c
    1624:	00400f93          	addi	x31,x0,4
    1628:	05fe0863          	beq	x28,x31,0x1678
    162c:	00500613          	addi	x12,x0,5
    1630:	02ce0a63          	beq	x28,x12,0x1664
    1634:	00600313          	addi	x6,x0,6
    1638:	006e0c63          	beq	x28,x6,0x1650
    163c:	00071e03          	lh	x28,0(x14)
    1640:	00478793          	addi	x15,x15,4
    1644:	00270713          	addi	x14,x14,2
    1648:	02de08b3          	mul	x17,x28,x13
    164c:	ff17ae23          	sw	x17,-4(x15)
    1650:	00071e83          	lh	x29,0(x14)
    1654:	00478793          	addi	x15,x15,4
    1658:	00270713          	addi	x14,x14,2
    165c:	02de8f33          	mul	x30,x29,x13
    1660:	ffe7ae23          	sw	x30,-4(x15)
    1664:	00071f83          	lh	x31,0(x14)
    1668:	00478793          	addi	x15,x15,4
    166c:	00270713          	addi	x14,x14,2
    1670:	02df8633          	mul	x12,x31,x13
    1674:	fec7ae23          	sw	x12,-4(x15)
    1678:	00071303          	lh	x6,0(x14)
    167c:	00478793          	addi	x15,x15,4
    1680:	00270713          	addi	x14,x14,2
    1684:	02d30e33          	mul	x28,x6,x13
    1688:	ffc7ae23          	sw	x28,-4(x15)
    168c:	00071883          	lh	x17,0(x14)
    1690:	00478793          	addi	x15,x15,4
    1694:	00270713          	addi	x14,x14,2
    1698:	02d88eb3          	mul	x29,x17,x13
    169c:	ffd7ae23          	sw	x29,-4(x15)
    16a0:	00071f03          	lh	x30,0(x14)
    16a4:	00478793          	addi	x15,x15,4
    16a8:	00270713          	addi	x14,x14,2
    16ac:	02df0fb3          	mul	x31,x30,x13
    16b0:	fff7ae23          	sw	x31,-4(x15)
    16b4:	00071603          	lh	x12,0(x14)
    16b8:	00270713          	addi	x14,x14,2
    16bc:	00478793          	addi	x15,x15,4
    16c0:	02d60333          	mul	x6,x12,x13
    16c4:	fe67ae23          	sw	x6,-4(x15)
    16c8:	06e80c63          	beq	x16,x14,0x1740
    16cc:	00912423          	sw	x9,8(x2)
    16d0:	00071483          	lh	x9,0(x14)
    16d4:	00271f83          	lh	x31,2(x14)
    16d8:	00471f03          	lh	x30,4(x14)
    16dc:	00671e83          	lh	x29,6(x14)
    16e0:	00871e03          	lh	x28,8(x14)
    16e4:	00a71303          	lh	x6,10(x14)
    16e8:	00c71883          	lh	x17,12(x14)
    16ec:	00e71603          	lh	x12,14(x14)
    16f0:	02d484b3          	mul	x9,x9,x13
    16f4:	01070713          	addi	x14,x14,16
    16f8:	02078793          	addi	x15,x15,32
    16fc:	02df8fb3          	mul	x31,x31,x13
    1700:	fe97a023          	sw	x9,-32(x15)
    1704:	02df0f33          	mul	x30,x30,x13
    1708:	fff7a223          	sw	x31,-28(x15)
    170c:	02de8eb3          	mul	x29,x29,x13
    1710:	ffe7a423          	sw	x30,-24(x15)
    1714:	02de0e33          	mul	x28,x28,x13
    1718:	ffd7a623          	sw	x29,-20(x15)
    171c:	02d30333          	mul	x6,x6,x13
    1720:	ffc7a823          	sw	x28,-16(x15)
    1724:	02d888b3          	mul	x17,x17,x13
    1728:	fe67aa23          	sw	x6,-12(x15)
    172c:	02d60633          	mul	x12,x12,x13
    1730:	ff17ac23          	sw	x17,-8(x15)
    1734:	fec7ae23          	sw	x12,-4(x15)
    1738:	f8e81ce3          	bne	x16,x14,0x16d0
    173c:	00812483          	lw	x9,8(x2)
    1740:	00138393          	addi	x7,x7,1
    1744:	00a40433          	add	x8,x8,x10
    1748:	00580833          	add	x16,x16,x5
    174c:	ea7510e3          	bne	x10,x7,0x15ec
    1750:	00c12403          	lw	x8,12(x2)
    1754:	01010113          	addi	x2,x2,16
    1758:	00008067          	jalr	x0,0(x1)
    175c:	00008067          	jalr	x0,0(x1)
    1760:	14050063          	beq	x10,x0,0x18a0
    1764:	00151f93          	slli	x31,x10,0x1
    1768:	01f586b3          	add	x13,x11,x31
    176c:	00000293          	addi	x5,x0,0
    1770:	ffef8713          	addi	x14,x31,-2
    1774:	00175313          	srli	x6,x14,0x1
    1778:	00130393          	addi	x7,x6,1
    177c:	0073f813          	andi	x16,x7,7
    1780:	41f687b3          	sub	x15,x13,x31
    1784:	0a080463          	beq	x16,x0,0x182c
    1788:	00100593          	addi	x11,x0,1
    178c:	08b80663          	beq	x16,x11,0x1818
    1790:	00200893          	addi	x17,x0,2
    1794:	07180a63          	beq	x16,x17,0x1808
    1798:	00300e13          	addi	x28,x0,3
    179c:	05c80e63          	beq	x16,x28,0x17f8
    17a0:	00400e93          	addi	x29,x0,4
    17a4:	05d80263          	beq	x16,x29,0x17e8
    17a8:	00500f13          	addi	x30,x0,5
    17ac:	03e80663          	beq	x16,x30,0x17d8
    17b0:	00600713          	addi	x14,x0,6
    17b4:	00e80a63          	beq	x16,x14,0x17c8
    17b8:	0007d303          	lhu	x6,0(x15)
    17bc:	00278793          	addi	x15,x15,2
    17c0:	006603b3          	add	x7,x12,x6
    17c4:	fe779f23          	sh	x7,-2(x15)
    17c8:	0007d803          	lhu	x16,0(x15)
    17cc:	00278793          	addi	x15,x15,2
    17d0:	010605b3          	add	x11,x12,x16
    17d4:	feb79f23          	sh	x11,-2(x15)
    17d8:	0007d883          	lhu	x17,0(x15)
    17dc:	00278793          	addi	x15,x15,2
    17e0:	01160e33          	add	x28,x12,x17
    17e4:	ffc79f23          	sh	x28,-2(x15)
    17e8:	0007de83          	lhu	x29,0(x15)
    17ec:	00278793          	addi	x15,x15,2
    17f0:	01d60f33          	add	x30,x12,x29
    17f4:	ffe79f23          	sh	x30,-2(x15)
    17f8:	0007d703          	lhu	x14,0(x15)
    17fc:	00278793          	addi	x15,x15,2
    1800:	00e60333          	add	x6,x12,x14
    1804:	fe679f23          	sh	x6,-2(x15)
    1808:	0007d383          	lhu	x7,0(x15)
    180c:	00278793          	addi	x15,x15,2
    1810:	00760833          	add	x16,x12,x7
    1814:	ff079f23          	sh	x16,-2(x15)
    1818:	0007d583          	lhu	x11,0(x15)
    181c:	00278793          	addi	x15,x15,2
    1820:	00b608b3          	add	x17,x12,x11
    1824:	ff179f23          	sh	x17,-2(x15)
    1828:	06f68663          	beq	x13,x15,0x1894
    182c:	0087d383          	lhu	x7,8(x15)
    1830:	00a7d803          	lhu	x16,10(x15)
    1834:	00c7d583          	lhu	x11,12(x15)
    1838:	0007df03          	lhu	x30,0(x15)
    183c:	0027de83          	lhu	x29,2(x15)
    1840:	0047de03          	lhu	x28,4(x15)
    1844:	0067d303          	lhu	x6,6(x15)
    1848:	00e7d703          	lhu	x14,14(x15)
    184c:	007608b3          	add	x17,x12,x7
    1850:	01e60f33          	add	x30,x12,x30
    1854:	010603b3          	add	x7,x12,x16
    1858:	01d60eb3          	add	x29,x12,x29
    185c:	00b60833          	add	x16,x12,x11
    1860:	01c60e33          	add	x28,x12,x28
    1864:	00660333          	add	x6,x12,x6
    1868:	00e605b3          	add	x11,x12,x14
    186c:	01e79023          	sh	x30,0(x15)
    1870:	01d79123          	sh	x29,2(x15)
    1874:	01c79223          	sh	x28,4(x15)
    1878:	00679323          	sh	x6,6(x15)
    187c:	01179423          	sh	x17,8(x15)
    1880:	00779523          	sh	x7,10(x15)
    1884:	01079623          	sh	x16,12(x15)
    1888:	00b79723          	sh	x11,14(x15)
    188c:	01078793          	addi	x15,x15,16
    1890:	f8f69ee3          	bne	x13,x15,0x182c
    1894:	00128293          	addi	x5,x5,1
    1898:	01f686b3          	add	x13,x13,x31
    189c:	ec551ae3          	bne	x10,x5,0x1770
    18a0:	00008067          	jalr	x0,0(x1)
    18a4:	20050463          	beq	x10,x0,0x1aac
    18a8:	00251f93          	slli	x31,x10,0x2
    18ac:	00151e93          	slli	x29,x10,0x1
    18b0:	fd010113          	addi	x2,x2,-48
    18b4:	01f58fb3          	add	x31,x11,x31
    18b8:	01d68eb3          	add	x29,x13,x29
    18bc:	00000f13          	addi	x30,x0,0
    18c0:	40de8833          	sub	x16,x29,x13
    18c4:	ffe80293          	addi	x5,x16,-2
    18c8:	0012d313          	srli	x6,x5,0x1
    18cc:	00130393          	addi	x7,x6,1
    18d0:	001f1793          	slli	x15,x30,0x1
    18d4:	0073fe13          	andi	x28,x7,7
    18d8:	00f607b3          	add	x15,x12,x15
    18dc:	00068713          	addi	x14,x13,0
    18e0:	00000893          	addi	x17,x0,0
    18e4:	0c0e0e63          	beq	x28,x0,0x19c0
    18e8:	00100813          	addi	x16,x0,1
    18ec:	0b0e0c63          	beq	x28,x16,0x19a4
    18f0:	00200293          	addi	x5,x0,2
    18f4:	085e0c63          	beq	x28,x5,0x198c
    18f8:	00300313          	addi	x6,x0,3
    18fc:	066e0c63          	beq	x28,x6,0x1974
    1900:	00400393          	addi	x7,x0,4
    1904:	047e0c63          	beq	x28,x7,0x195c
    1908:	00500813          	addi	x16,x0,5
    190c:	030e0c63          	beq	x28,x16,0x1944
    1910:	00600293          	addi	x5,x0,6
    1914:	005e0c63          	beq	x28,x5,0x192c
    1918:	00079883          	lh	x17,0(x15)
    191c:	00069e03          	lh	x28,0(x13)
    1920:	00278793          	addi	x15,x15,2
    1924:	00268713          	addi	x14,x13,2
    1928:	03c888b3          	mul	x17,x17,x28
    192c:	00079383          	lh	x7,0(x15)
    1930:	00071303          	lh	x6,0(x14)
    1934:	00278793          	addi	x15,x15,2
    1938:	00270713          	addi	x14,x14,2
    193c:	02638833          	mul	x16,x7,x6
    1940:	010888b3          	add	x17,x17,x16
    1944:	00079283          	lh	x5,0(x15)
    1948:	00071e03          	lh	x28,0(x14)
    194c:	00278793          	addi	x15,x15,2
    1950:	00270713          	addi	x14,x14,2
    1954:	03c283b3          	mul	x7,x5,x28
    1958:	007888b3          	add	x17,x17,x7
    195c:	00079803          	lh	x16,0(x15)
    1960:	00071303          	lh	x6,0(x14)
    1964:	00278793          	addi	x15,x15,2
    1968:	00270713          	addi	x14,x14,2
    196c:	026802b3          	mul	x5,x16,x6
    1970:	005888b3          	add	x17,x17,x5
    1974:	00079e03          	lh	x28,0(x15)
    1978:	00071383          	lh	x7,0(x14)
    197c:	00278793          	addi	x15,x15,2
    1980:	00270713          	addi	x14,x14,2
    1984:	027e0833          	mul	x16,x28,x7
    1988:	010888b3          	add	x17,x17,x16
    198c:	00079283          	lh	x5,0(x15)
    1990:	00071303          	lh	x6,0(x14)
    1994:	00278793          	addi	x15,x15,2
    1998:	00270713          	addi	x14,x14,2
    199c:	02628e33          	mul	x28,x5,x6
    19a0:	01c888b3          	add	x17,x17,x28
    19a4:	00079383          	lh	x7,0(x15)
    19a8:	00071803          	lh	x16,0(x14)
    19ac:	00270713          	addi	x14,x14,2
    19b0:	00278793          	addi	x15,x15,2
    19b4:	030382b3          	mul	x5,x7,x16
    19b8:	005888b3          	add	x17,x17,x5
    19bc:	0cee8c63          	beq	x29,x14,0x1a94
    19c0:	02812623          	sw	x8,44(x2)
    19c4:	02912423          	sw	x9,40(x2)
    19c8:	03212223          	sw	x18,36(x2)
    19cc:	03312023          	sw	x19,32(x2)
    19d0:	01412e23          	sw	x20,28(x2)
    19d4:	01512c23          	sw	x21,24(x2)
    19d8:	01612a23          	sw	x22,20(x2)
    19dc:	01712823          	sw	x23,16(x2)
    19e0:	01812623          	sw	x24,12(x2)
    19e4:	00079403          	lh	x8,0(x15)
    19e8:	00071983          	lh	x19,0(x14)
    19ec:	00271483          	lh	x9,2(x14)
    19f0:	00279a83          	lh	x21,2(x15)
    19f4:	00471c03          	lh	x24,4(x14)
    19f8:	00479903          	lh	x18,4(x15)
    19fc:	03340833          	mul	x16,x8,x19
    1a00:	00671b83          	lh	x23,6(x14)
    1a04:	00679403          	lh	x8,6(x15)
    1a08:	00879383          	lh	x7,8(x15)
    1a0c:	00871b03          	lh	x22,8(x14)
    1a10:	00a79283          	lh	x5,10(x15)
    1a14:	00a71a03          	lh	x20,10(x14)
    1a18:	00c79e03          	lh	x28,12(x15)
    1a1c:	00c71983          	lh	x19,12(x14)
    1a20:	00e79303          	lh	x6,14(x15)
    1a24:	029a8ab3          	mul	x21,x21,x9
    1a28:	00e71483          	lh	x9,14(x14)
    1a2c:	010888b3          	add	x17,x17,x16
    1a30:	01070713          	addi	x14,x14,16
    1a34:	01078793          	addi	x15,x15,16
    1a38:	03890933          	mul	x18,x18,x24
    1a3c:	01588c33          	add	x24,x17,x21
    1a40:	03740433          	mul	x8,x8,x23
    1a44:	012c0833          	add	x16,x24,x18
    1a48:	03638bb3          	mul	x23,x7,x22
    1a4c:	008803b3          	add	x7,x16,x8
    1a50:	03428b33          	mul	x22,x5,x20
    1a54:	017382b3          	add	x5,x7,x23
    1a58:	033e0a33          	mul	x20,x28,x19
    1a5c:	01628e33          	add	x28,x5,x22
    1a60:	029309b3          	mul	x19,x6,x9
    1a64:	014e0333          	add	x6,x28,x20
    1a68:	013308b3          	add	x17,x6,x19
    1a6c:	f6ee9ce3          	bne	x29,x14,0x19e4
    1a70:	02c12403          	lw	x8,44(x2)
    1a74:	02812483          	lw	x9,40(x2)
    1a78:	02412903          	lw	x18,36(x2)
    1a7c:	02012983          	lw	x19,32(x2)
    1a80:	01c12a03          	lw	x20,28(x2)
    1a84:	01812a83          	lw	x21,24(x2)
    1a88:	01412b03          	lw	x22,20(x2)
    1a8c:	01012b83          	lw	x23,16(x2)
    1a90:	00c12c03          	lw	x24,12(x2)
    1a94:	0115a023          	sw	x17,0(x11)
    1a98:	00458593          	addi	x11,x11,4
    1a9c:	00af0f33          	add	x30,x30,x10
    1aa0:	e2bf90e3          	bne	x31,x11,0x18c0
    1aa4:	03010113          	addi	x2,x2,48
    1aa8:	00008067          	jalr	x0,0(x1)
    1aac:	00008067          	jalr	x0,0(x1)
    1ab0:	26050663          	beq	x10,x0,0x1d1c
    1ab4:	fd010113          	addi	x2,x2,-48
    1ab8:	00151813          	slli	x16,x10,0x1
    1abc:	02812623          	sw	x8,44(x2)
    1ac0:	02912423          	sw	x9,40(x2)
    1ac4:	03212223          	sw	x18,36(x2)
    1ac8:	03312023          	sw	x19,32(x2)
    1acc:	01412e23          	sw	x20,28(x2)
    1ad0:	01512c23          	sw	x21,24(x2)
    1ad4:	01612a23          	sw	x22,20(x2)
    1ad8:	01712823          	sw	x23,16(x2)
    1adc:	01812623          	sw	x24,12(x2)
    1ae0:	01912423          	sw	x25,8(x2)
    1ae4:	01a12223          	sw	x26,4(x2)
    1ae8:	01b12023          	sw	x27,0(x2)
    1aec:	00060e93          	addi	x29,x12,0
    1af0:	01060e33          	add	x28,x12,x16
    1af4:	00000f93          	addi	x31,x0,0
    1af8:	00000293          	addi	x5,x0,0
    1afc:	002f9313          	slli	x6,x31,0x2
    1b00:	00658333          	add	x6,x11,x6
    1b04:	00068893          	addi	x17,x13,0
    1b08:	00000f13          	addi	x30,x0,0
    1b0c:	41de0633          	sub	x12,x28,x29
    1b10:	ffe60393          	addi	x7,x12,-2
    1b14:	0013d413          	srli	x8,x7,0x1
    1b18:	00140493          	addi	x9,x8,1
    1b1c:	0074f913          	andi	x18,x9,7
    1b20:	00088793          	addi	x15,x17,0
    1b24:	000e8713          	addi	x14,x29,0
    1b28:	00000393          	addi	x7,x0,0
    1b2c:	0c090e63          	beq	x18,x0,0x1c08
    1b30:	00100993          	addi	x19,x0,1
    1b34:	0b390c63          	beq	x18,x19,0x1bec
    1b38:	00200a13          	addi	x20,x0,2
    1b3c:	09490c63          	beq	x18,x20,0x1bd4
    1b40:	00300a93          	addi	x21,x0,3
    1b44:	07590c63          	beq	x18,x21,0x1bbc
    1b48:	00400b13          	addi	x22,x0,4
    1b4c:	05690c63          	beq	x18,x22,0x1ba4
    1b50:	00500b93          	addi	x23,x0,5
    1b54:	03790c63          	beq	x18,x23,0x1b8c
    1b58:	00600c13          	addi	x24,x0,6
    1b5c:	01890c63          	beq	x18,x24,0x1b74
    1b60:	000e9c83          	lh	x25,0(x29)
    1b64:	00089d03          	lh	x26,0(x17)
    1b68:	002e8713          	addi	x14,x29,2
    1b6c:	010887b3          	add	x15,x17,x16
    1b70:	03ac83b3          	mul	x7,x25,x26
    1b74:	00071d83          	lh	x27,0(x14)
    1b78:	00079603          	lh	x12,0(x15)
    1b7c:	00270713          	addi	x14,x14,2
    1b80:	010787b3          	add	x15,x15,x16
    1b84:	02cd8433          	mul	x8,x27,x12
    1b88:	008383b3          	add	x7,x7,x8
    1b8c:	00071483          	lh	x9,0(x14)
    1b90:	00079903          	lh	x18,0(x15)
    1b94:	00270713          	addi	x14,x14,2
    1b98:	010787b3          	add	x15,x15,x16
    1b9c:	032489b3          	mul	x19,x9,x18
    1ba0:	013383b3          	add	x7,x7,x19
    1ba4:	00071a03          	lh	x20,0(x14)
    1ba8:	00079a83          	lh	x21,0(x15)
    1bac:	00270713          	addi	x14,x14,2
    1bb0:	010787b3          	add	x15,x15,x16
    1bb4:	035a0b33          	mul	x22,x20,x21
    1bb8:	016383b3          	add	x7,x7,x22
    1bbc:	00071b83          	lh	x23,0(x14)
    1bc0:	00079c03          	lh	x24,0(x15)
    1bc4:	00270713          	addi	x14,x14,2
    1bc8:	010787b3          	add	x15,x15,x16
    1bcc:	038b8cb3          	mul	x25,x23,x24
    1bd0:	019383b3          	add	x7,x7,x25
    1bd4:	00071d03          	lh	x26,0(x14)
    1bd8:	00079d83          	lh	x27,0(x15)
    1bdc:	00270713          	addi	x14,x14,2
    1be0:	010787b3          	add	x15,x15,x16
    1be4:	03bd0633          	mul	x12,x26,x27
    1be8:	00c383b3          	add	x7,x7,x12
    1bec:	00071483          	lh	x9,0(x14)
    1bf0:	00079403          	lh	x8,0(x15)
    1bf4:	00270713          	addi	x14,x14,2
    1bf8:	010787b3          	add	x15,x15,x16
    1bfc:	02848933          	mul	x18,x9,x8
    1c00:	012383b3          	add	x7,x7,x18
    1c04:	0aee0663          	beq	x28,x14,0x1cb0
    1c08:	00071a03          	lh	x20,0(x14)
    1c0c:	00079b83          	lh	x23,0(x15)
    1c10:	010789b3          	add	x19,x15,x16
    1c14:	00271d03          	lh	x26,2(x14)
    1c18:	00099b03          	lh	x22,0(x19)
    1c1c:	037a0db3          	mul	x27,x20,x23
    1c20:	01098c33          	add	x24,x19,x16
    1c24:	010c0cb3          	add	x25,x24,x16
    1c28:	00471903          	lh	x18,4(x14)
    1c2c:	000c1a83          	lh	x21,0(x24)
    1c30:	010c8633          	add	x12,x25,x16
    1c34:	00671483          	lh	x9,6(x14)
    1c38:	000c9a03          	lh	x20,0(x25)
    1c3c:	00871403          	lh	x8,8(x14)
    1c40:	010607b3          	add	x15,x12,x16
    1c44:	036d09b3          	mul	x19,x26,x22
    1c48:	00061b83          	lh	x23,0(x12)
    1c4c:	00a71c83          	lh	x25,10(x14)
    1c50:	01078633          	add	x12,x15,x16
    1c54:	00079c03          	lh	x24,0(x15)
    1c58:	00061b03          	lh	x22,0(x12)
    1c5c:	00c71d03          	lh	x26,12(x14)
    1c60:	010607b3          	add	x15,x12,x16
    1c64:	01b38633          	add	x12,x7,x27
    1c68:	00079383          	lh	x7,0(x15)
    1c6c:	03590ab3          	mul	x21,x18,x21
    1c70:	00e71d83          	lh	x27,14(x14)
    1c74:	01360933          	add	x18,x12,x19
    1c78:	01070713          	addi	x14,x14,16
    1c7c:	010787b3          	add	x15,x15,x16
    1c80:	03448a33          	mul	x20,x9,x20
    1c84:	015904b3          	add	x9,x18,x21
    1c88:	03740bb3          	mul	x23,x8,x23
    1c8c:	01448433          	add	x8,x9,x20
    1c90:	038c8c33          	mul	x24,x25,x24
    1c94:	01740cb3          	add	x25,x8,x23
    1c98:	036d09b3          	mul	x19,x26,x22
    1c9c:	018c8b33          	add	x22,x25,x24
    1ca0:	027d8d33          	mul	x26,x27,x7
    1ca4:	013b0633          	add	x12,x22,x19
    1ca8:	01a603b3          	add	x7,x12,x26
    1cac:	f4ee1ee3          	bne	x28,x14,0x1c08
    1cb0:	00732023          	sw	x7,0(x6)
    1cb4:	001f0713          	addi	x14,x30,1
    1cb8:	00430313          	addi	x6,x6,4
    1cbc:	00288893          	addi	x17,x17,2
    1cc0:	00e50663          	beq	x10,x14,0x1ccc
    1cc4:	00070f13          	addi	x30,x14,0
    1cc8:	e45ff06f          	jal	x0,0x1b0c
    1ccc:	010e8eb3          	add	x29,x29,x16
    1cd0:	00af8fb3          	add	x31,x31,x10
    1cd4:	010e0e33          	add	x28,x28,x16
    1cd8:	01e28663          	beq	x5,x30,0x1ce4
    1cdc:	00128293          	addi	x5,x5,1
    1ce0:	e1dff06f          	jal	x0,0x1afc
    1ce4:	02c12403          	lw	x8,44(x2)
    1ce8:	02812483          	lw	x9,40(x2)
    1cec:	02412903          	lw	x18,36(x2)
    1cf0:	02012983          	lw	x19,32(x2)
    1cf4:	01c12a03          	lw	x20,28(x2)
    1cf8:	01812a83          	lw	x21,24(x2)
    1cfc:	01412b03          	lw	x22,20(x2)
    1d00:	01012b83          	lw	x23,16(x2)
    1d04:	00c12c03          	lw	x24,12(x2)
    1d08:	00812c83          	lw	x25,8(x2)
    1d0c:	00412d03          	lw	x26,4(x2)
    1d10:	00012d83          	lw	x27,0(x2)
    1d14:	03010113          	addi	x2,x2,48
    1d18:	00008067          	jalr	x0,0(x1)
    1d1c:	00008067          	jalr	x0,0(x1)
    1d20:	1e050e63          	beq	x10,x0,0x1f1c
    1d24:	fe010113          	addi	x2,x2,-32
    1d28:	00151313          	slli	x6,x10,0x1
    1d2c:	00812e23          	sw	x8,28(x2)
    1d30:	00912c23          	sw	x9,24(x2)
    1d34:	00068413          	addi	x8,x13,0
    1d38:	01212a23          	sw	x18,20(x2)
    1d3c:	01312823          	sw	x19,16(x2)
    1d40:	01412623          	sw	x20,12(x2)
    1d44:	01512423          	sw	x21,8(x2)
    1d48:	00060f93          	addi	x31,x12,0
    1d4c:	00660e33          	add	x28,x12,x6
    1d50:	00000393          	addi	x7,x0,0
    1d54:	00000693          	addi	x13,x0,0
    1d58:	00239f13          	slli	x30,x7,0x2
    1d5c:	01e58f33          	add	x30,x11,x30
    1d60:	00040e93          	addi	x29,x8,0
    1d64:	00000293          	addi	x5,x0,0
    1d68:	41fe0733          	sub	x14,x28,x31
    1d6c:	ffe70493          	addi	x9,x14,-2
    1d70:	0014d613          	srli	x12,x9,0x1
    1d74:	00160793          	addi	x15,x12,1
    1d78:	0037f893          	andi	x17,x15,3
    1d7c:	000f8813          	addi	x16,x31,0
    1d80:	000e8793          	addi	x15,x29,0
    1d84:	00000493          	addi	x9,x0,0
    1d88:	08088c63          	beq	x17,x0,0x1e20
    1d8c:	00100913          	addi	x18,x0,1
    1d90:	07288063          	beq	x17,x18,0x1df0
    1d94:	00200993          	addi	x19,x0,2
    1d98:	03388663          	beq	x17,x19,0x1dc4
    1d9c:	000f9a03          	lh	x20,0(x31)
    1da0:	000e9a83          	lh	x21,0(x29)
    1da4:	002f8813          	addi	x16,x31,2
    1da8:	006e87b3          	add	x15,x29,x6
    1dac:	035a0733          	mul	x14,x20,x21
    1db0:	40275493          	srai	x9,x14,0x2
    1db4:	40575613          	srai	x12,x14,0x5
    1db8:	00f4f893          	andi	x17,x9,15
    1dbc:	07f67913          	andi	x18,x12,127
    1dc0:	032884b3          	mul	x9,x17,x18
    1dc4:	00081983          	lh	x19,0(x16)
    1dc8:	00079a03          	lh	x20,0(x15)
    1dcc:	00280813          	addi	x16,x16,2
    1dd0:	006787b3          	add	x15,x15,x6
    1dd4:	03498ab3          	mul	x21,x19,x20
    1dd8:	402ad613          	srai	x12,x21,0x2
    1ddc:	405ad713          	srai	x14,x21,0x5
    1de0:	00f67893          	andi	x17,x12,15
    1de4:	07f77913          	andi	x18,x14,127
    1de8:	032889b3          	mul	x19,x17,x18
    1dec:	013484b3          	add	x9,x9,x19
    1df0:	00081a03          	lh	x20,0(x16)
    1df4:	00079a83          	lh	x21,0(x15)
    1df8:	00280813          	addi	x16,x16,2
    1dfc:	006787b3          	add	x15,x15,x6
    1e00:	035a0733          	mul	x14,x20,x21
    1e04:	40275613          	srai	x12,x14,0x2
    1e08:	40575893          	srai	x17,x14,0x5
    1e0c:	00f67913          	andi	x18,x12,15
    1e10:	07f8f993          	andi	x19,x17,127
    1e14:	03390a33          	mul	x20,x18,x19
    1e18:	014484b3          	add	x9,x9,x20
    1e1c:	0b0e0663          	beq	x28,x16,0x1ec8
    1e20:	00081a83          	lh	x21,0(x16)
    1e24:	00079603          	lh	x12,0(x15)
    1e28:	006787b3          	add	x15,x15,x6
    1e2c:	00079703          	lh	x14,0(x15)
    1e30:	006788b3          	add	x17,x15,x6
    1e34:	00281903          	lh	x18,2(x16)
    1e38:	00089a03          	lh	x20,0(x17)
    1e3c:	006887b3          	add	x15,x17,x6
    1e40:	00481883          	lh	x17,4(x16)
    1e44:	02ca89b3          	mul	x19,x21,x12
    1e48:	00079a83          	lh	x21,0(x15)
    1e4c:	00681603          	lh	x12,6(x16)
    1e50:	00880813          	addi	x16,x16,8
    1e54:	006787b3          	add	x15,x15,x6
    1e58:	02e90933          	mul	x18,x18,x14
    1e5c:	4029d713          	srai	x14,x19,0x2
    1e60:	4059d993          	srai	x19,x19,0x5
    1e64:	07f9f993          	andi	x19,x19,127
    1e68:	00f77713          	andi	x14,x14,15
    1e6c:	034888b3          	mul	x17,x17,x20
    1e70:	40295a13          	srai	x20,x18,0x2
    1e74:	40595913          	srai	x18,x18,0x5
    1e78:	07f97913          	andi	x18,x18,127
    1e7c:	00fa7a13          	andi	x20,x20,15
    1e80:	03560633          	mul	x12,x12,x21
    1e84:	4028da93          	srai	x21,x17,0x2
    1e88:	4058d893          	srai	x17,x17,0x5
    1e8c:	00fafa93          	andi	x21,x21,15
    1e90:	07f8f893          	andi	x17,x17,127
    1e94:	03370733          	mul	x14,x14,x19
    1e98:	40265993          	srai	x19,x12,0x2
    1e9c:	40565613          	srai	x12,x12,0x5
    1ea0:	00f9f993          	andi	x19,x19,15
    1ea4:	07f67613          	andi	x12,x12,127
    1ea8:	032a0a33          	mul	x20,x20,x18
    1eac:	00e484b3          	add	x9,x9,x14
    1eb0:	031a8933          	mul	x18,x21,x17
    1eb4:	01448ab3          	add	x21,x9,x20
    1eb8:	02c988b3          	mul	x17,x19,x12
    1ebc:	012a8733          	add	x14,x21,x18
    1ec0:	011704b3          	add	x9,x14,x17
    1ec4:	f50e1ee3          	bne	x28,x16,0x1e20
    1ec8:	009f2023          	sw	x9,0(x30)
    1ecc:	00128813          	addi	x16,x5,1
    1ed0:	004f0f13          	addi	x30,x30,4
    1ed4:	002e8e93          	addi	x29,x29,2
    1ed8:	01050663          	beq	x10,x16,0x1ee4
    1edc:	00080293          	addi	x5,x16,0
    1ee0:	e89ff06f          	jal	x0,0x1d68
    1ee4:	006f8fb3          	add	x31,x31,x6
    1ee8:	00a383b3          	add	x7,x7,x10
    1eec:	006e0e33          	add	x28,x28,x6
    1ef0:	00568663          	beq	x13,x5,0x1efc
    1ef4:	00168693          	addi	x13,x13,1
    1ef8:	e61ff06f          	jal	x0,0x1d58
    1efc:	01c12403          	lw	x8,28(x2)
    1f00:	01812483          	lw	x9,24(x2)
    1f04:	01412903          	lw	x18,20(x2)
    1f08:	01012983          	lw	x19,16(x2)
    1f0c:	00c12a03          	lw	x20,12(x2)
    1f10:	00812a83          	lw	x21,8(x2)
    1f14:	02010113          	addi	x2,x2,32
    1f18:	00008067          	jalr	x0,0(x1)
    1f1c:	00008067          	jalr	x0,0(x1)
    1f20:	fd010113          	addi	x2,x2,-48
    1f24:	03212023          	sw	x18,32(x2)
    1f28:	01312e23          	sw	x19,28(x2)
    1f2c:	01412c23          	sw	x20,24(x2)
    1f30:	02112623          	sw	x1,44(x2)
    1f34:	02812423          	sw	x8,40(x2)
    1f38:	00058a13          	addi	x20,x11,0
    1f3c:	00060913          	addi	x18,x12,0
    1f40:	00068993          	addi	x19,x13,0
    1f44:	3a0506e3          	beq	x10,x0,0x2af0
    1f48:	00151613          	slli	x12,x10,0x1
    1f4c:	00c905b3          	add	x11,x18,x12
    1f50:	fffff2b7          	lui	x5,0xfffff
    1f54:	02912223          	sw	x9,36(x2)
    1f58:	01712623          	sw	x23,12(x2)
    1f5c:	01512a23          	sw	x21,20(x2)
    1f60:	01612823          	sw	x22,16(x2)
    1f64:	01812423          	sw	x24,8(x2)
    1f68:	01912223          	sw	x25,4(x2)
    1f6c:	00070493          	addi	x9,x14,0
    1f70:	00058693          	addi	x13,x11,0
    1f74:	00576433          	or	x8,x14,x5
    1f78:	00000b93          	addi	x23,x0,0
    1f7c:	ffe60713          	addi	x14,x12,-2
    1f80:	00175313          	srli	x6,x14,0x1
    1f84:	00130393          	addi	x7,x6,1
    1f88:	0073f893          	andi	x17,x7,7
    1f8c:	40c687b3          	sub	x15,x13,x12
    1f90:	0a088463          	beq	x17,x0,0x2038
    1f94:	00100813          	addi	x16,x0,1
    1f98:	09088663          	beq	x17,x16,0x2024
    1f9c:	00200a93          	addi	x21,x0,2
    1fa0:	07588a63          	beq	x17,x21,0x2014
    1fa4:	00300b13          	addi	x22,x0,3
    1fa8:	05688e63          	beq	x17,x22,0x2004
    1fac:	00400c13          	addi	x24,x0,4
    1fb0:	05888263          	beq	x17,x24,0x1ff4
    1fb4:	00500c93          	addi	x25,x0,5
    1fb8:	03988663          	beq	x17,x25,0x1fe4
    1fbc:	00600e13          	addi	x28,x0,6
    1fc0:	01c88a63          	beq	x17,x28,0x1fd4
    1fc4:	0007de83          	lhu	x29,0(x15)
    1fc8:	00278793          	addi	x15,x15,2
    1fcc:	01d48f33          	add	x30,x9,x29
    1fd0:	ffe79f23          	sh	x30,-2(x15)
    1fd4:	0007df83          	lhu	x31,0(x15)
    1fd8:	00278793          	addi	x15,x15,2
    1fdc:	01f482b3          	add	x5,x9,x31
    1fe0:	fe579f23          	sh	x5,-2(x15)
    1fe4:	0007d703          	lhu	x14,0(x15)
    1fe8:	00278793          	addi	x15,x15,2
    1fec:	00e48333          	add	x6,x9,x14
    1ff0:	fe679f23          	sh	x6,-2(x15)
    1ff4:	0007d383          	lhu	x7,0(x15)
    1ff8:	00278793          	addi	x15,x15,2
    1ffc:	007488b3          	add	x17,x9,x7
    2000:	ff179f23          	sh	x17,-2(x15)
    2004:	0007d803          	lhu	x16,0(x15)
    2008:	00278793          	addi	x15,x15,2
    200c:	01048ab3          	add	x21,x9,x16
    2010:	ff579f23          	sh	x21,-2(x15)
    2014:	0007db03          	lhu	x22,0(x15)
    2018:	00278793          	addi	x15,x15,2
    201c:	01648c33          	add	x24,x9,x22
    2020:	ff879f23          	sh	x24,-2(x15)
    2024:	0007dc83          	lhu	x25,0(x15)
    2028:	00278793          	addi	x15,x15,2
    202c:	01948e33          	add	x28,x9,x25
    2030:	ffc79f23          	sh	x28,-2(x15)
    2034:	06d78663          	beq	x15,x13,0x20a0
    2038:	0007df83          	lhu	x31,0(x15)
    203c:	0027df03          	lhu	x30,2(x15)
    2040:	0047de83          	lhu	x29,4(x15)
    2044:	0067d283          	lhu	x5,6(x15)
    2048:	0087d303          	lhu	x6,8(x15)
    204c:	00a7d383          	lhu	x7,10(x15)
    2050:	00c7d803          	lhu	x16,12(x15)
    2054:	00e7d703          	lhu	x14,14(x15)
    2058:	01f48ab3          	add	x21,x9,x31
    205c:	01e48b33          	add	x22,x9,x30
    2060:	01d48c33          	add	x24,x9,x29
    2064:	00548cb3          	add	x25,x9,x5
    2068:	00648e33          	add	x28,x9,x6
    206c:	007488b3          	add	x17,x9,x7
    2070:	01048fb3          	add	x31,x9,x16
    2074:	00e48f33          	add	x30,x9,x14
    2078:	01579023          	sh	x21,0(x15)
    207c:	01679123          	sh	x22,2(x15)
    2080:	01879223          	sh	x24,4(x15)
    2084:	01979323          	sh	x25,6(x15)
    2088:	01c79423          	sh	x28,8(x15)
    208c:	01179523          	sh	x17,10(x15)
    2090:	01f79623          	sh	x31,12(x15)
    2094:	01e79723          	sh	x30,14(x15)
    2098:	01078793          	addi	x15,x15,16
    209c:	f8d79ee3          	bne	x15,x13,0x2038
    20a0:	001b8a93          	addi	x21,x23,1
    20a4:	00c786b3          	add	x13,x15,x12
    20a8:	01550663          	beq	x10,x21,0x20b4
    20ac:	000a8b93          	addi	x23,x21,0
    20b0:	ecdff06f          	jal	x0,0x1f7c
    20b4:	00000e13          	addi	x28,x0,0
    20b8:	00000e93          	addi	x29,x0,0
    20bc:	ffe60513          	addi	x10,x12,-2
    20c0:	00155793          	srli	x15,x10,0x1
    20c4:	00178293          	addi	x5,x15,1
    20c8:	002e1393          	slli	x7,x28,0x2
    20cc:	0072f313          	andi	x6,x5,7
    20d0:	007a0733          	add	x14,x20,x7
    20d4:	40c586b3          	sub	x13,x11,x12
    20d8:	0c030263          	beq	x6,x0,0x219c
    20dc:	00100813          	addi	x16,x0,1
    20e0:	0b030263          	beq	x6,x16,0x2184
    20e4:	00200b13          	addi	x22,x0,2
    20e8:	09630463          	beq	x6,x22,0x2170
    20ec:	00300c13          	addi	x24,x0,3
    20f0:	07830663          	beq	x6,x24,0x215c
    20f4:	00400c93          	addi	x25,x0,4
    20f8:	05930863          	beq	x6,x25,0x2148
    20fc:	00500893          	addi	x17,x0,5
    2100:	03130a63          	beq	x6,x17,0x2134
    2104:	00600f93          	addi	x31,x0,6
    2108:	01f30c63          	beq	x6,x31,0x2120
    210c:	00069f03          	lh	x30,0(x13)
    2110:	00470713          	addi	x14,x14,4
    2114:	00268693          	addi	x13,x13,2
    2118:	029f0533          	mul	x10,x30,x9
    211c:	fea72e23          	sw	x10,-4(x14)
    2120:	00069783          	lh	x15,0(x13)
    2124:	00470713          	addi	x14,x14,4
    2128:	00268693          	addi	x13,x13,2
    212c:	029782b3          	mul	x5,x15,x9
    2130:	fe572e23          	sw	x5,-4(x14)
    2134:	00069303          	lh	x6,0(x13)
    2138:	00470713          	addi	x14,x14,4
    213c:	00268693          	addi	x13,x13,2
    2140:	029303b3          	mul	x7,x6,x9
    2144:	fe772e23          	sw	x7,-4(x14)
    2148:	00069803          	lh	x16,0(x13)
    214c:	00470713          	addi	x14,x14,4
    2150:	00268693          	addi	x13,x13,2
    2154:	02980b33          	mul	x22,x16,x9
    2158:	ff672e23          	sw	x22,-4(x14)
    215c:	00069c03          	lh	x24,0(x13)
    2160:	00470713          	addi	x14,x14,4
    2164:	00268693          	addi	x13,x13,2
    2168:	029c0cb3          	mul	x25,x24,x9
    216c:	ff972e23          	sw	x25,-4(x14)
    2170:	00069883          	lh	x17,0(x13)
    2174:	00470713          	addi	x14,x14,4
    2178:	00268693          	addi	x13,x13,2
    217c:	02988fb3          	mul	x31,x17,x9
    2180:	fff72e23          	sw	x31,-4(x14)
    2184:	00069f03          	lh	x30,0(x13)
    2188:	00268693          	addi	x13,x13,2
    218c:	00470713          	addi	x14,x14,4
    2190:	029f0533          	mul	x10,x30,x9
    2194:	fea72e23          	sw	x10,-4(x14)
    2198:	06d58863          	beq	x11,x13,0x2208
    219c:	00069283          	lh	x5,0(x13)
    21a0:	00269383          	lh	x7,2(x13)
    21a4:	00469b03          	lh	x22,4(x13)
    21a8:	00669303          	lh	x6,6(x13)
    21ac:	00869c03          	lh	x24,8(x13)
    21b0:	00a69803          	lh	x16,10(x13)
    21b4:	00c69c83          	lh	x25,12(x13)
    21b8:	00e69783          	lh	x15,14(x13)
    21bc:	029288b3          	mul	x17,x5,x9
    21c0:	01068693          	addi	x13,x13,16
    21c4:	02070713          	addi	x14,x14,32
    21c8:	02938fb3          	mul	x31,x7,x9
    21cc:	ff172023          	sw	x17,-32(x14)
    21d0:	029b0f33          	mul	x30,x22,x9
    21d4:	fff72223          	sw	x31,-28(x14)
    21d8:	02930533          	mul	x10,x6,x9
    21dc:	ffe72423          	sw	x30,-24(x14)
    21e0:	029c02b3          	mul	x5,x24,x9
    21e4:	fea72623          	sw	x10,-20(x14)
    21e8:	029803b3          	mul	x7,x16,x9
    21ec:	fe572823          	sw	x5,-16(x14)
    21f0:	029c8b33          	mul	x22,x25,x9
    21f4:	fe772a23          	sw	x7,-12(x14)
    21f8:	02978333          	mul	x6,x15,x9
    21fc:	ff672c23          	sw	x22,-8(x14)
    2200:	fe672e23          	sw	x6,-4(x14)
    2204:	f8d59ce3          	bne	x11,x13,0x219c
    2208:	015e0e33          	add	x28,x28,x21
    220c:	00c585b3          	add	x11,x11,x12
    2210:	017e8663          	beq	x29,x23,0x221c
    2214:	001e8e93          	addi	x29,x29,1
    2218:	ea5ff06f          	jal	x0,0x20bc
    221c:	002a9b13          	slli	x22,x21,0x2
    2220:	016a0c33          	add	x24,x20,x22
    2224:	000c0593          	addi	x11,x24,0
    2228:	00000893          	addi	x17,x0,0
    222c:	00000793          	addi	x15,x0,0
    2230:	00000513          	addi	x10,x0,0
    2234:	00000813          	addi	x16,x0,0
    2238:	ffcb0e93          	addi	x29,x22,-4
    223c:	002ed693          	srli	x13,x29,0x2
    2240:	00168713          	addi	x14,x13,1
    2244:	00377c93          	andi	x25,x14,3
    2248:	41658733          	sub	x14,x11,x22
    224c:	0e0c8063          	beq	x25,x0,0x232c
    2250:	00100613          	addi	x12,x0,1
    2254:	04cc8463          	beq	x25,x12,0x229c
    2258:	00200f93          	addi	x31,x0,2
    225c:	03fc8063          	beq	x25,x31,0x227c
    2260:	00088f13          	addi	x30,x17,0
    2264:	00072883          	lw	x17,0(x14)
    2268:	011787b3          	add	x15,x15,x17
    226c:	12f45863          	bge	x8,x15,0x239c
    2270:	00a50513          	addi	x10,x10,10
    2274:	00000793          	addi	x15,x0,0
    2278:	00470713          	addi	x14,x14,4
    227c:	00088393          	addi	x7,x17,0
    2280:	00072883          	lw	x17,0(x14)
    2284:	011787b3          	add	x15,x15,x17
    2288:	10f45463          	bge	x8,x15,0x2390
    228c:	00a50e13          	addi	x28,x10,10
    2290:	00000793          	addi	x15,x0,0
    2294:	000e0513          	addi	x10,x28,0
    2298:	00470713          	addi	x14,x14,4
    229c:	00088e93          	addi	x29,x17,0
    22a0:	00072883          	lw	x17,0(x14)
    22a4:	011787b3          	add	x15,x15,x17
    22a8:	0cf45e63          	bge	x8,x15,0x2384
    22ac:	00a50c93          	addi	x25,x10,10
    22b0:	00000793          	addi	x15,x0,0
    22b4:	010c9613          	slli	x12,x25,0x10
    22b8:	00470713          	addi	x14,x14,4
    22bc:	41065513          	srai	x10,x12,0x10
    22c0:	06e59663          	bne	x11,x14,0x232c
    22c4:	016585b3          	add	x11,x11,x22
    22c8:	0f0b8063          	beq	x23,x16,0x23a8
    22cc:	00180813          	addi	x16,x16,1
    22d0:	f69ff06f          	jal	x0,0x2238
    22d4:	00472283          	lw	x5,4(x14)
    22d8:	01f8a8b3          	slt	x17,x17,x31
    22dc:	01150f33          	add	x30,x10,x17
    22e0:	00578533          	add	x10,x15,x5
    22e4:	00470713          	addi	x14,x14,4
    22e8:	06a45463          	bge	x8,x10,0x2350
    22ec:	00472e03          	lw	x28,4(x14)
    22f0:	00000513          	addi	x10,x0,0
    22f4:	00af0313          	addi	x6,x30,10
    22f8:	01c50eb3          	add	x29,x10,x28
    22fc:	07d45463          	bge	x8,x29,0x2364
    2300:	00872883          	lw	x17,8(x14)
    2304:	00000e93          	addi	x29,x0,0
    2308:	00a30c93          	addi	x25,x6,10
    230c:	011e87b3          	add	x15,x29,x17
    2310:	06f45463          	bge	x8,x15,0x2378
    2314:	00ac8f93          	addi	x31,x25,10
    2318:	00000793          	addi	x15,x0,0
    231c:	010f9f13          	slli	x30,x31,0x10
    2320:	00c70713          	addi	x14,x14,12
    2324:	410f5513          	srai	x10,x30,0x10
    2328:	f8e58ee3          	beq	x11,x14,0x22c4
    232c:	00072f83          	lw	x31,0(x14)
    2330:	01f787b3          	add	x15,x15,x31
    2334:	faf450e3          	bge	x8,x15,0x22d4
    2338:	00472283          	lw	x5,4(x14)
    233c:	00000793          	addi	x15,x0,0
    2340:	00a50f13          	addi	x30,x10,10
    2344:	00578533          	add	x10,x15,x5
    2348:	00470713          	addi	x14,x14,4
    234c:	faa440e3          	blt	x8,x10,0x22ec
    2350:	00472e03          	lw	x28,4(x14)
    2354:	005fa3b3          	slt	x7,x31,x5
    2358:	007f0333          	add	x6,x30,x7
    235c:	01c50eb3          	add	x29,x10,x28
    2360:	fbd440e3          	blt	x8,x29,0x2300
    2364:	00872883          	lw	x17,8(x14)
    2368:	01c2a6b3          	slt	x13,x5,x28
    236c:	00d30cb3          	add	x25,x6,x13
    2370:	011e87b3          	add	x15,x29,x17
    2374:	faf440e3          	blt	x8,x15,0x2314
    2378:	011e2633          	slt	x12,x28,x17
    237c:	00cc8fb3          	add	x31,x25,x12
    2380:	f9dff06f          	jal	x0,0x231c
    2384:	011ea6b3          	slt	x13,x29,x17
    2388:	00d50cb3          	add	x25,x10,x13
    238c:	f29ff06f          	jal	x0,0x22b4
    2390:	0113a333          	slt	x6,x7,x17
    2394:	00650e33          	add	x28,x10,x6
    2398:	efdff06f          	jal	x0,0x2294
    239c:	011f22b3          	slt	x5,x30,x17
    23a0:	00550533          	add	x10,x10,x5
    23a4:	ed5ff06f          	jal	x0,0x2278
    23a8:	00000593          	addi	x11,x0,0
    23ac:	6b4010ef          	jal	x1,0x3a60
    23b0:	000a0593          	addi	x11,x20,0
    23b4:	00050c93          	addi	x25,x10,0
    23b8:	00098693          	addi	x13,x19,0
    23bc:	000a8513          	addi	x10,x21,0
    23c0:	00090613          	addi	x12,x18,0
    23c4:	ce0ff0ef          	jal	x1,0x18a4
    23c8:	00000813          	addi	x16,x0,0
    23cc:	00000793          	addi	x15,x0,0
    23d0:	00000513          	addi	x10,x0,0
    23d4:	00000593          	addi	x11,x0,0
    23d8:	ffcb0293          	addi	x5,x22,-4
    23dc:	0022d393          	srli	x7,x5,0x2
    23e0:	00138313          	addi	x6,x7,1
    23e4:	00337e13          	andi	x28,x6,3
    23e8:	416c0733          	sub	x14,x24,x22
    23ec:	0e0e0063          	beq	x28,x0,0x24cc
    23f0:	00100e93          	addi	x29,x0,1
    23f4:	05de0463          	beq	x28,x29,0x243c
    23f8:	00200693          	addi	x13,x0,2
    23fc:	02de0063          	beq	x28,x13,0x241c
    2400:	00080893          	addi	x17,x16,0
    2404:	00072803          	lw	x16,0(x14)
    2408:	010787b3          	add	x15,x15,x16
    240c:	12f45863          	bge	x8,x15,0x253c
    2410:	00a50513          	addi	x10,x10,10
    2414:	00000793          	addi	x15,x0,0
    2418:	00470713          	addi	x14,x14,4
    241c:	00080f93          	addi	x31,x16,0
    2420:	00072803          	lw	x16,0(x14)
    2424:	010787b3          	add	x15,x15,x16
    2428:	10f45463          	bge	x8,x15,0x2530
    242c:	00a50293          	addi	x5,x10,10
    2430:	00000793          	addi	x15,x0,0
    2434:	00028513          	addi	x10,x5,0 # 0xfffff000
    2438:	00470713          	addi	x14,x14,4
    243c:	00080393          	addi	x7,x16,0
    2440:	00072803          	lw	x16,0(x14)
    2444:	010787b3          	add	x15,x15,x16
    2448:	0cf45e63          	bge	x8,x15,0x2524
    244c:	00a50e13          	addi	x28,x10,10
    2450:	00000793          	addi	x15,x0,0
    2454:	010e1e93          	slli	x29,x28,0x10
    2458:	00470713          	addi	x14,x14,4
    245c:	410ed513          	srai	x10,x29,0x10
    2460:	07871663          	bne	x14,x24,0x24cc
    2464:	01670c33          	add	x24,x14,x22
    2468:	0f758063          	beq	x11,x23,0x2548
    246c:	00158593          	addi	x11,x11,1
    2470:	f69ff06f          	jal	x0,0x23d8
    2474:	01182833          	slt	x16,x16,x17
    2478:	010506b3          	add	x13,x10,x16
    247c:	00472503          	lw	x10,4(x14)
    2480:	00470713          	addi	x14,x14,4
    2484:	00a78fb3          	add	x31,x15,x10
    2488:	07f45463          	bge	x8,x31,0x24f0
    248c:	00472283          	lw	x5,4(x14)
    2490:	00000f93          	addi	x31,x0,0
    2494:	00a68f13          	addi	x30,x13,10
    2498:	005f83b3          	add	x7,x31,x5
    249c:	06745463          	bge	x8,x7,0x2504
    24a0:	00872803          	lw	x16,8(x14)
    24a4:	00000393          	addi	x7,x0,0
    24a8:	00af0e13          	addi	x28,x30,10
    24ac:	010387b3          	add	x15,x7,x16
    24b0:	06f45463          	bge	x8,x15,0x2518
    24b4:	00ae0893          	addi	x17,x28,10
    24b8:	00000793          	addi	x15,x0,0
    24bc:	01089693          	slli	x13,x17,0x10
    24c0:	00c70713          	addi	x14,x14,12
    24c4:	4106d513          	srai	x10,x13,0x10
    24c8:	f9870ee3          	beq	x14,x24,0x2464
    24cc:	00072883          	lw	x17,0(x14)
    24d0:	011787b3          	add	x15,x15,x17
    24d4:	faf450e3          	bge	x8,x15,0x2474
    24d8:	00a50693          	addi	x13,x10,10
    24dc:	00472503          	lw	x10,4(x14)
    24e0:	00000793          	addi	x15,x0,0
    24e4:	00470713          	addi	x14,x14,4
    24e8:	00a78fb3          	add	x31,x15,x10
    24ec:	fbf440e3          	blt	x8,x31,0x248c
    24f0:	00472283          	lw	x5,4(x14)
    24f4:	00a8a633          	slt	x12,x17,x10
    24f8:	00c68f33          	add	x30,x13,x12
    24fc:	005f83b3          	add	x7,x31,x5
    2500:	fa7440e3          	blt	x8,x7,0x24a0
    2504:	00872803          	lw	x16,8(x14)
    2508:	00552333          	slt	x6,x10,x5
    250c:	006f0e33          	add	x28,x30,x6
    2510:	010387b3          	add	x15,x7,x16
    2514:	faf440e3          	blt	x8,x15,0x24b4
    2518:	0102aeb3          	slt	x29,x5,x16
    251c:	01de08b3          	add	x17,x28,x29
    2520:	f9dff06f          	jal	x0,0x24bc
    2524:	0103a333          	slt	x6,x7,x16
    2528:	00650e33          	add	x28,x10,x6
    252c:	f29ff06f          	jal	x0,0x2454
    2530:	010faf33          	slt	x30,x31,x16
    2534:	01e502b3          	add	x5,x10,x30
    2538:	efdff06f          	jal	x0,0x2434
    253c:	0108a633          	slt	x12,x17,x16
    2540:	00c50533          	add	x10,x10,x12
    2544:	ed5ff06f          	jal	x0,0x2418
    2548:	000c8593          	addi	x11,x25,0
    254c:	514010ef          	jal	x1,0x3a60
    2550:	000a0593          	addi	x11,x20,0
    2554:	00050b13          	addi	x22,x10,0
    2558:	00098693          	addi	x13,x19,0
    255c:	000a8513          	addi	x10,x21,0
    2560:	00090613          	addi	x12,x18,0
    2564:	d4cff0ef          	jal	x1,0x1ab0
    2568:	00000893          	addi	x17,x0,0
    256c:	00000593          	addi	x11,x0,0
    2570:	00000793          	addi	x15,x0,0
    2574:	00000513          	addi	x10,x0,0
    2578:	00000813          	addi	x16,x0,0
    257c:	00289f93          	slli	x31,x17,0x2
    2580:	01fa0f33          	add	x30,x20,x31
    2584:	00058613          	addi	x12,x11,0
    2588:	000f2583          	lw	x11,0(x30)
    258c:	fffa8293          	addi	x5,x21,-1
    2590:	0032f393          	andi	x7,x5,3
    2594:	00b787b3          	add	x15,x15,x11
    2598:	50f45263          	bge	x8,x15,0x2a9c
    259c:	00a50513          	addi	x10,x10,10
    25a0:	00000793          	addi	x15,x0,0
    25a4:	01051e13          	slli	x28,x10,0x10
    25a8:	00100693          	addi	x13,x0,1
    25ac:	410e5513          	srai	x10,x28,0x10
    25b0:	004f0613          	addi	x12,x30,4
    25b4:	1556fc63          	bgeu	x13,x21,0x270c
    25b8:	0e038463          	beq	x7,x0,0x26a0
    25bc:	04d38a63          	beq	x7,x13,0x2610
    25c0:	00200e93          	addi	x29,x0,2
    25c4:	03d38463          	beq	x7,x29,0x25ec
    25c8:	00058713          	addi	x14,x11,0
    25cc:	004f2583          	lw	x11,4(x30)
    25d0:	00b787b3          	add	x15,x15,x11
    25d4:	50f45863          	bge	x8,x15,0x2ae4
    25d8:	00a50c93          	addi	x25,x10,10
    25dc:	00000793          	addi	x15,x0,0
    25e0:	000c8513          	addi	x10,x25,0
    25e4:	00168693          	addi	x13,x13,1
    25e8:	00460613          	addi	x12,x12,4
    25ec:	00058c13          	addi	x24,x11,0
    25f0:	00062583          	lw	x11,0(x12)
    25f4:	00b787b3          	add	x15,x15,x11
    25f8:	4cf45a63          	bge	x8,x15,0x2acc
    25fc:	00a50f13          	addi	x30,x10,10
    2600:	00000793          	addi	x15,x0,0
    2604:	000f0513          	addi	x10,x30,0
    2608:	00168693          	addi	x13,x13,1
    260c:	00460613          	addi	x12,x12,4
    2610:	00058293          	addi	x5,x11,0
    2614:	00062583          	lw	x11,0(x12)
    2618:	00b787b3          	add	x15,x15,x11
    261c:	48f45c63          	bge	x8,x15,0x2ab4
    2620:	00a50313          	addi	x6,x10,10
    2624:	00000793          	addi	x15,x0,0
    2628:	01031513          	slli	x10,x6,0x10
    262c:	00168693          	addi	x13,x13,1
    2630:	41055513          	srai	x10,x10,0x10
    2634:	00460613          	addi	x12,x12,4
    2638:	0756e463          	bltu	x13,x21,0x26a0
    263c:	0d00006f          	jal	x0,0x270c
    2640:	00462b83          	lw	x23,4(x12)
    2644:	01c5a5b3          	slt	x11,x11,x28
    2648:	00b50eb3          	add	x29,x10,x11
    264c:	01778cb3          	add	x25,x15,x23
    2650:	00168693          	addi	x13,x13,1
    2654:	00460613          	addi	x12,x12,4
    2658:	07945863          	bge	x8,x25,0x26c8
    265c:	00462f83          	lw	x31,4(x12)
    2660:	00000c93          	addi	x25,x0,0
    2664:	00ae8c13          	addi	x24,x29,10
    2668:	01fc8f33          	add	x30,x25,x31
    266c:	07e45863          	bge	x8,x30,0x26dc
    2670:	00862583          	lw	x11,8(x12)
    2674:	00000f13          	addi	x30,x0,0
    2678:	00ac0393          	addi	x7,x24,10
    267c:	00bf07b3          	add	x15,x30,x11
    2680:	06f45863          	bge	x8,x15,0x26f0
    2684:	00a38513          	addi	x10,x7,10
    2688:	01051e13          	slli	x28,x10,0x10
    268c:	00368693          	addi	x13,x13,3
    2690:	00000793          	addi	x15,x0,0
    2694:	410e5513          	srai	x10,x28,0x10
    2698:	00c60613          	addi	x12,x12,12
    269c:	0756f863          	bgeu	x13,x21,0x270c
    26a0:	00062e03          	lw	x28,0(x12)
    26a4:	01c787b3          	add	x15,x15,x28
    26a8:	f8f45ce3          	bge	x8,x15,0x2640
    26ac:	00462b83          	lw	x23,4(x12)
    26b0:	00000793          	addi	x15,x0,0
    26b4:	00a50e93          	addi	x29,x10,10
    26b8:	01778cb3          	add	x25,x15,x23
    26bc:	00168693          	addi	x13,x13,1
    26c0:	00460613          	addi	x12,x12,4
    26c4:	f9944ce3          	blt	x8,x25,0x265c
    26c8:	00462f83          	lw	x31,4(x12)
    26cc:	017e2733          	slt	x14,x28,x23
    26d0:	00ee8c33          	add	x24,x29,x14
    26d4:	01fc8f33          	add	x30,x25,x31
    26d8:	f9e44ce3          	blt	x8,x30,0x2670
    26dc:	00862583          	lw	x11,8(x12)
    26e0:	01fba2b3          	slt	x5,x23,x31
    26e4:	005c03b3          	add	x7,x24,x5
    26e8:	00bf07b3          	add	x15,x30,x11
    26ec:	f8f44ce3          	blt	x8,x15,0x2684
    26f0:	00bfa333          	slt	x6,x31,x11
    26f4:	00638533          	add	x10,x7,x6
    26f8:	01051e13          	slli	x28,x10,0x10
    26fc:	00368693          	addi	x13,x13,3
    2700:	410e5513          	srai	x10,x28,0x10
    2704:	00c60613          	addi	x12,x12,12
    2708:	f956ece3          	bltu	x13,x21,0x26a0
    270c:	00180813          	addi	x16,x16,1
    2710:	015888b3          	add	x17,x17,x21
    2714:	e75864e3          	bltu	x16,x21,0x257c
    2718:	000b0593          	addi	x11,x22,0
    271c:	344010ef          	jal	x1,0x3a60
    2720:	000a0593          	addi	x11,x20,0
    2724:	00050b13          	addi	x22,x10,0
    2728:	00098693          	addi	x13,x19,0
    272c:	000a8513          	addi	x10,x21,0
    2730:	00090613          	addi	x12,x18,0
    2734:	decff0ef          	jal	x1,0x1d20
    2738:	00000313          	addi	x6,x0,0
    273c:	00000593          	addi	x11,x0,0
    2740:	00000793          	addi	x15,x0,0
    2744:	00000513          	addi	x10,x0,0
    2748:	00000893          	addi	x17,x0,0
    274c:	00231e93          	slli	x29,x6,0x2
    2750:	01da0bb3          	add	x23,x20,x29
    2754:	00058c93          	addi	x25,x11,0
    2758:	000ba583          	lw	x11,0(x23)
    275c:	fffa8713          	addi	x14,x21,-1
    2760:	00377c13          	andi	x24,x14,3
    2764:	00b787b3          	add	x15,x15,x11
    2768:	32f45463          	bge	x8,x15,0x2a90
    276c:	00a50f13          	addi	x30,x10,10
    2770:	00000793          	addi	x15,x0,0
    2774:	010f1293          	slli	x5,x30,0x10
    2778:	00100613          	addi	x12,x0,1
    277c:	4102d513          	srai	x10,x5,0x10
    2780:	004b8713          	addi	x14,x23,4
    2784:	15567a63          	bgeu	x12,x21,0x28d8
    2788:	0e0c0263          	beq	x24,x0,0x286c
    278c:	04cc0863          	beq	x24,x12,0x27dc
    2790:	00200393          	addi	x7,x0,2
    2794:	027c0263          	beq	x24,x7,0x27b8
    2798:	00058693          	addi	x13,x11,0
    279c:	004ba583          	lw	x11,4(x23)
    27a0:	00b787b3          	add	x15,x15,x11
    27a4:	32f45a63          	bge	x8,x15,0x2ad8
    27a8:	00a50513          	addi	x10,x10,10
    27ac:	00000793          	addi	x15,x0,0
    27b0:	00160613          	addi	x12,x12,1
    27b4:	00470713          	addi	x14,x14,4
    27b8:	00058993          	addi	x19,x11,0
    27bc:	00072583          	lw	x11,0(x14)
    27c0:	00b787b3          	add	x15,x15,x11
    27c4:	2ef45e63          	bge	x8,x15,0x2ac0
    27c8:	00a50e93          	addi	x29,x10,10
    27cc:	00000793          	addi	x15,x0,0
    27d0:	000e8513          	addi	x10,x29,0
    27d4:	00160613          	addi	x12,x12,1
    27d8:	00470713          	addi	x14,x14,4
    27dc:	00058b93          	addi	x23,x11,0
    27e0:	00072583          	lw	x11,0(x14)
    27e4:	00b787b3          	add	x15,x15,x11
    27e8:	2cf45063          	bge	x8,x15,0x2aa8
    27ec:	00a50c13          	addi	x24,x10,10
    27f0:	00000793          	addi	x15,x0,0
    27f4:	010c1f93          	slli	x31,x24,0x10
    27f8:	00160613          	addi	x12,x12,1
    27fc:	410fd513          	srai	x10,x31,0x10
    2800:	00470713          	addi	x14,x14,4
    2804:	07566463          	bltu	x12,x21,0x286c
    2808:	0d00006f          	jal	x0,0x28d8
    280c:	00472383          	lw	x7,4(x14)
    2810:	01e5a5b3          	slt	x11,x11,x30
    2814:	00b502b3          	add	x5,x10,x11
    2818:	00778e33          	add	x28,x15,x7
    281c:	00160613          	addi	x12,x12,1
    2820:	00470713          	addi	x14,x14,4
    2824:	07c45863          	bge	x8,x28,0x2894
    2828:	00472503          	lw	x10,4(x14)
    282c:	00000e13          	addi	x28,x0,0
    2830:	00a28993          	addi	x19,x5,10
    2834:	00ae0833          	add	x16,x28,x10
    2838:	07045863          	bge	x8,x16,0x28a8
    283c:	00872583          	lw	x11,8(x14)
    2840:	00000813          	addi	x16,x0,0
    2844:	00a98b93          	addi	x23,x19,10
    2848:	00b807b3          	add	x15,x16,x11
    284c:	06f45863          	bge	x8,x15,0x28bc
    2850:	00ab8c13          	addi	x24,x23,10
    2854:	010c1f93          	slli	x31,x24,0x10
    2858:	00360613          	addi	x12,x12,3
    285c:	00000793          	addi	x15,x0,0
    2860:	410fd513          	srai	x10,x31,0x10
    2864:	00c70713          	addi	x14,x14,12
    2868:	07567863          	bgeu	x12,x21,0x28d8
    286c:	00072f03          	lw	x30,0(x14)
    2870:	01e787b3          	add	x15,x15,x30
    2874:	f8f45ce3          	bge	x8,x15,0x280c
    2878:	00472383          	lw	x7,4(x14)
    287c:	00000793          	addi	x15,x0,0
    2880:	00a50293          	addi	x5,x10,10
    2884:	00778e33          	add	x28,x15,x7
    2888:	00160613          	addi	x12,x12,1
    288c:	00470713          	addi	x14,x14,4
    2890:	f9c44ce3          	blt	x8,x28,0x2828
    2894:	00472503          	lw	x10,4(x14)
    2898:	007f26b3          	slt	x13,x30,x7
    289c:	00d289b3          	add	x19,x5,x13
    28a0:	00ae0833          	add	x16,x28,x10
    28a4:	f9044ce3          	blt	x8,x16,0x283c
    28a8:	00872583          	lw	x11,8(x14)
    28ac:	00a3aeb3          	slt	x29,x7,x10
    28b0:	01d98bb3          	add	x23,x19,x29
    28b4:	00b807b3          	add	x15,x16,x11
    28b8:	f8f44ce3          	blt	x8,x15,0x2850
    28bc:	00b52cb3          	slt	x25,x10,x11
    28c0:	019b8c33          	add	x24,x23,x25
    28c4:	010c1f93          	slli	x31,x24,0x10
    28c8:	00360613          	addi	x12,x12,3
    28cc:	410fd513          	srai	x10,x31,0x10
    28d0:	00c70713          	addi	x14,x14,12
    28d4:	f9566ce3          	bltu	x12,x21,0x286c
    28d8:	00188893          	addi	x17,x17,1
    28dc:	01530333          	add	x6,x6,x21
    28e0:	e758e6e3          	bltu	x17,x21,0x274c
    28e4:	000b0593          	addi	x11,x22,0
    28e8:	178010ef          	jal	x1,0x3a60
    28ec:	00000813          	addi	x16,x0,0
    28f0:	00000593          	addi	x11,x0,0
    28f4:	00181f13          	slli	x30,x16,0x1
    28f8:	01e902b3          	add	x5,x18,x30
    28fc:	0002d383          	lhu	x7,0(x5)
    2900:	fffa8e13          	addi	x28,x21,-1
    2904:	00100613          	addi	x12,x0,1
    2908:	409386b3          	sub	x13,x7,x9
    290c:	00d29023          	sh	x13,0(x5)
    2910:	00228793          	addi	x15,x5,2
    2914:	007e7993          	andi	x19,x28,7
    2918:	13567863          	bgeu	x12,x21,0x2a48
    291c:	0c098063          	beq	x19,x0,0x29dc
    2920:	0ac98263          	beq	x19,x12,0x29c4
    2924:	00200e93          	addi	x29,x0,2
    2928:	09d98463          	beq	x19,x29,0x29b0
    292c:	00300b93          	addi	x23,x0,3
    2930:	07798663          	beq	x19,x23,0x299c
    2934:	00400c93          	addi	x25,x0,4
    2938:	05998863          	beq	x19,x25,0x2988
    293c:	00500c13          	addi	x24,x0,5
    2940:	03898a63          	beq	x19,x24,0x2974
    2944:	00600f93          	addi	x31,x0,6
    2948:	01f98c63          	beq	x19,x31,0x2960
    294c:	0022d703          	lhu	x14,2(x5)
    2950:	000e8613          	addi	x12,x29,0
    2954:	00428793          	addi	x15,x5,4
    2958:	40970433          	sub	x8,x14,x9
    295c:	00829123          	sh	x8,2(x5)
    2960:	0007da03          	lhu	x20,0(x15)
    2964:	00160613          	addi	x12,x12,1
    2968:	00278793          	addi	x15,x15,2
    296c:	409a0b33          	sub	x22,x20,x9
    2970:	ff679f23          	sh	x22,-2(x15)
    2974:	0007d883          	lhu	x17,0(x15)
    2978:	00160613          	addi	x12,x12,1
    297c:	00278793          	addi	x15,x15,2
    2980:	40988333          	sub	x6,x17,x9
    2984:	fe679f23          	sh	x6,-2(x15)
    2988:	0007df03          	lhu	x30,0(x15)
    298c:	00160613          	addi	x12,x12,1
    2990:	00278793          	addi	x15,x15,2
    2994:	409f02b3          	sub	x5,x30,x9
    2998:	fe579f23          	sh	x5,-2(x15)
    299c:	0007d383          	lhu	x7,0(x15)
    29a0:	00160613          	addi	x12,x12,1
    29a4:	00278793          	addi	x15,x15,2
    29a8:	40938e33          	sub	x28,x7,x9
    29ac:	ffc79f23          	sh	x28,-2(x15)
    29b0:	0007d683          	lhu	x13,0(x15)
    29b4:	00160613          	addi	x12,x12,1
    29b8:	00278793          	addi	x15,x15,2
    29bc:	409689b3          	sub	x19,x13,x9
    29c0:	ff379f23          	sh	x19,-2(x15)
    29c4:	0007de83          	lhu	x29,0(x15)
    29c8:	00160613          	addi	x12,x12,1
    29cc:	00278793          	addi	x15,x15,2
    29d0:	409e8bb3          	sub	x23,x29,x9
    29d4:	ff779f23          	sh	x23,-2(x15)
    29d8:	07567863          	bgeu	x12,x21,0x2a48
    29dc:	0007dc83          	lhu	x25,0(x15)
    29e0:	0027dc03          	lhu	x24,2(x15)
    29e4:	0047d403          	lhu	x8,4(x15)
    29e8:	0067da03          	lhu	x20,6(x15)
    29ec:	0087db03          	lhu	x22,8(x15)
    29f0:	00a7d883          	lhu	x17,10(x15)
    29f4:	00c7d283          	lhu	x5,12(x15)
    29f8:	00e7d703          	lhu	x14,14(x15)
    29fc:	409c8fb3          	sub	x31,x25,x9
    2a00:	409c0f33          	sub	x30,x24,x9
    2a04:	409403b3          	sub	x7,x8,x9
    2a08:	409a0e33          	sub	x28,x20,x9
    2a0c:	409b0333          	sub	x6,x22,x9
    2a10:	409889b3          	sub	x19,x17,x9
    2a14:	409286b3          	sub	x13,x5,x9
    2a18:	40970eb3          	sub	x29,x14,x9
    2a1c:	01f79023          	sh	x31,0(x15)
    2a20:	01e79123          	sh	x30,2(x15)
    2a24:	00779223          	sh	x7,4(x15)
    2a28:	01c79323          	sh	x28,6(x15)
    2a2c:	00679423          	sh	x6,8(x15)
    2a30:	01379523          	sh	x19,10(x15)
    2a34:	00d79623          	sh	x13,12(x15)
    2a38:	01d79723          	sh	x29,14(x15)
    2a3c:	00860613          	addi	x12,x12,8
    2a40:	01078793          	addi	x15,x15,16
    2a44:	f9566ce3          	bltu	x12,x21,0x29dc
    2a48:	00158593          	addi	x11,x11,1
    2a4c:	01580833          	add	x16,x16,x21
    2a50:	eb55e2e3          	bltu	x11,x21,0x28f4
    2a54:	02412483          	lw	x9,36(x2)
    2a58:	01412a83          	lw	x21,20(x2)
    2a5c:	01012b03          	lw	x22,16(x2)
    2a60:	00c12b83          	lw	x23,12(x2)
    2a64:	00812c03          	lw	x24,8(x2)
    2a68:	00412c83          	lw	x25,4(x2)
    2a6c:	02c12083          	lw	x1,44(x2)
    2a70:	02812403          	lw	x8,40(x2)
    2a74:	01051513          	slli	x10,x10,0x10
    2a78:	02012903          	lw	x18,32(x2)
    2a7c:	01c12983          	lw	x19,28(x2)
    2a80:	01812a03          	lw	x20,24(x2)
    2a84:	41055513          	srai	x10,x10,0x10
    2a88:	03010113          	addi	x2,x2,48
    2a8c:	00008067          	jalr	x0,0(x1)
    2a90:	00bcafb3          	slt	x31,x25,x11
    2a94:	01f50f33          	add	x30,x10,x31
    2a98:	cddff06f          	jal	x0,0x2774
    2a9c:	00b62333          	slt	x6,x12,x11
    2aa0:	00650533          	add	x10,x10,x6
    2aa4:	b01ff06f          	jal	x0,0x25a4
    2aa8:	00bbacb3          	slt	x25,x23,x11
    2aac:	01950c33          	add	x24,x10,x25
    2ab0:	d45ff06f          	jal	x0,0x27f4
    2ab4:	00b2a3b3          	slt	x7,x5,x11
    2ab8:	00750333          	add	x6,x10,x7
    2abc:	b6dff06f          	jal	x0,0x2628
    2ac0:	00b9a833          	slt	x16,x19,x11
    2ac4:	01050eb3          	add	x29,x10,x16
    2ac8:	d09ff06f          	jal	x0,0x27d0
    2acc:	00bc2fb3          	slt	x31,x24,x11
    2ad0:	01f50f33          	add	x30,x10,x31
    2ad4:	b31ff06f          	jal	x0,0x2604
    2ad8:	00b6ae33          	slt	x28,x13,x11
    2adc:	01c50533          	add	x10,x10,x28
    2ae0:	cd1ff06f          	jal	x0,0x27b0
    2ae4:	00b72bb3          	slt	x23,x14,x11
    2ae8:	01750cb3          	add	x25,x10,x23
    2aec:	af5ff06f          	jal	x0,0x25e0
    2af0:	00000593          	addi	x11,x0,0
    2af4:	76d000ef          	jal	x1,0x3a60
    2af8:	00098693          	addi	x13,x19,0
    2afc:	00090613          	addi	x12,x18,0
    2b00:	00050413          	addi	x8,x10,0
    2b04:	000a0593          	addi	x11,x20,0
    2b08:	00000513          	addi	x10,x0,0
    2b0c:	d99fe0ef          	jal	x1,0x18a4
    2b10:	00040593          	addi	x11,x8,0
    2b14:	00000513          	addi	x10,x0,0
    2b18:	749000ef          	jal	x1,0x3a60
    2b1c:	00098693          	addi	x13,x19,0
    2b20:	00090613          	addi	x12,x18,0
    2b24:	00050413          	addi	x8,x10,0
    2b28:	000a0593          	addi	x11,x20,0
    2b2c:	00000513          	addi	x10,x0,0
    2b30:	f81fe0ef          	jal	x1,0x1ab0
    2b34:	00040593          	addi	x11,x8,0
    2b38:	00000513          	addi	x10,x0,0
    2b3c:	725000ef          	jal	x1,0x3a60
    2b40:	00050413          	addi	x8,x10,0
    2b44:	000a0593          	addi	x11,x20,0
    2b48:	00098693          	addi	x13,x19,0
    2b4c:	00090613          	addi	x12,x18,0
    2b50:	00000513          	addi	x10,x0,0
    2b54:	9ccff0ef          	jal	x1,0x1d20
    2b58:	00040593          	addi	x11,x8,0
    2b5c:	00000513          	addi	x10,x0,0
    2b60:	701000ef          	jal	x1,0x3a60
    2b64:	f09ff06f          	jal	x0,0x2a6c
    2b68:	ff010113          	addi	x2,x2,-16
    2b6c:	00812423          	sw	x8,8(x2)
    2b70:	00852683          	lw	x13,8(x10)
    2b74:	00060413          	addi	x8,x12,0
    2b78:	00058713          	addi	x14,x11,0
    2b7c:	00452603          	lw	x12,4(x10)
    2b80:	00c52583          	lw	x11,12(x10)
    2b84:	00052503          	lw	x10,0(x10)
    2b88:	00112623          	sw	x1,12(x2)
    2b8c:	b94ff0ef          	jal	x1,0x1f20
    2b90:	00040593          	addi	x11,x8,0
    2b94:	00812403          	lw	x8,8(x2)
    2b98:	00c12083          	lw	x1,12(x2)
    2b9c:	01010113          	addi	x2,x2,16
    2ba0:	6c10006f          	jal	x0,0x3a60
    2ba4:	00b52023          	sw	x11,0(x10)
    2ba8:	00008067          	jalr	x0,0(x1)
    2bac:	900007b7          	lui	x15,0x90000
    2bb0:	0aa00713          	addi	x14,x0,170
    2bb4:	fee7a823          	sw	x14,-16(x15) # 0x8ffffff0
    2bb8:	00008067          	jalr	x0,0(x1)
    2bbc:	800007b7          	lui	x15,0x80000
    2bc0:	00478293          	addi	x5,x15,4 # 0x80000004
    2bc4:	80000637          	lui	x12,0x80000
    2bc8:	0002a683          	lw	x13,0(x5)
    2bcc:	00062503          	lw	x10,0(x12) # 0x80000000
    2bd0:	0002a703          	lw	x14,0(x5)
    2bd4:	fee69ae3          	bne	x13,x14,0x2bc8
    2bd8:	00008067          	jalr	x0,0(x1)
    2bdc:	800007b7          	lui	x15,0x80000
    2be0:	00478293          	addi	x5,x15,4 # 0x80000004
    2be4:	800005b7          	lui	x11,0x80000
    2be8:	0002a683          	lw	x13,0(x5)
    2bec:	0005a603          	lw	x12,0(x11) # 0x80000000
    2bf0:	0002a703          	lw	x14,0(x5)
    2bf4:	fee69ae3          	bne	x13,x14,0x2be8
    2bf8:	00010337          	lui	x6,0x10
    2bfc:	06c32623          	sw	x12,108(x6) # 0x1006c
    2c00:	00008067          	jalr	x0,0(x1)
    2c04:	800007b7          	lui	x15,0x80000
    2c08:	00478293          	addi	x5,x15,4 # 0x80000004
    2c0c:	800005b7          	lui	x11,0x80000
    2c10:	0002a683          	lw	x13,0(x5)
    2c14:	0005a603          	lw	x12,0(x11) # 0x80000000
    2c18:	0002a703          	lw	x14,0(x5)
    2c1c:	fee69ae3          	bne	x13,x14,0x2c10
    2c20:	00010337          	lui	x6,0x10
    2c24:	06c32423          	sw	x12,104(x6) # 0x10068
    2c28:	00008067          	jalr	x0,0(x1)
    2c2c:	00010737          	lui	x14,0x10
    2c30:	000107b7          	lui	x15,0x10
    2c34:	06872503          	lw	x10,104(x14) # 0x10068
    2c38:	06c7a283          	lw	x5,108(x15) # 0x1006c
    2c3c:	40550533          	sub	x10,x10,x5
    2c40:	00008067          	jalr	x0,0(x1)
    2c44:	ff010113          	addi	x2,x2,-16
    2c48:	00112623          	sw	x1,12(x2)
    2c4c:	4b5040ef          	jal	x1,0x7900
    2c50:	000197b7          	lui	x15,0x19
    2c54:	ba87a603          	lw	x12,-1112(x15) # 0x18ba8
    2c58:	bac7a683          	lw	x13,-1108(x15)
    2c5c:	57c030ef          	jal	x1,0x61d8
    2c60:	00c12083          	lw	x1,12(x2)
    2c64:	01010113          	addi	x2,x2,16
    2c68:	00008067          	jalr	x0,0(x1)
    2c6c:	00100793          	addi	x15,x0,1
    2c70:	00f50023          	sb	x15,0(x10)
    2c74:	00008067          	jalr	x0,0(x1)
    2c78:	00050023          	sb	x0,0(x10)
    2c7c:	00008067          	jalr	x0,0(x1)
    2c80:	fff50e13          	addi	x28,x10,-1
    2c84:	00100e93          	addi	x29,x0,1
    2c88:	00060813          	addi	x16,x12,0
    2c8c:	15cef263          	bgeu	x29,x28,0x2dd0
    2c90:	01d586b3          	add	x13,x11,x29
    2c94:	01069293          	slli	x5,x13,0x10
    2c98:	0102d693          	srli	x13,x5,0x10
    2c9c:	00018337          	lui	x6,0x18
    2ca0:	01b69393          	slli	x7,x13,0x1b
    2ca4:	00700f13          	addi	x30,x0,7
    2ca8:	0076f613          	andi	x12,x13,7
    2cac:	0a030313          	addi	x6,x6,160 # 0x180a0
    2cb0:	00000713          	addi	x14,x0,0
    2cb4:	00400893          	addi	x17,x0,4
    2cb8:	02c00f93          	addi	x31,x0,44
    2cbc:	01e3d793          	srli	x15,x7,0x1e
    2cc0:	0be60463          	beq	x12,x30,0x2d68
    2cc4:	0ec8e263          	bltu	x17,x12,0x2da8
    2cc8:	ffd60293          	addi	x5,x12,-3
    2ccc:	01029613          	slli	x12,x5,0x10
    2cd0:	00279793          	slli	x15,x15,0x2
    2cd4:	01065393          	srli	x7,x12,0x10
    2cd8:	00f305b3          	add	x11,x6,x15
    2cdc:	0c7ee063          	bltu	x29,x7,0x2d9c
    2ce0:	0105a783          	lw	x15,16(x11)
    2ce4:	00800613          	addi	x12,x0,8
    2ce8:	00170593          	addi	x11,x14,1
    2cec:	00b602b3          	add	x5,x12,x11
    2cf0:	09c2fa63          	bgeu	x5,x28,0x2d84
    2cf4:	0007c383          	lbu	x7,0(x15)
    2cf8:	00e80733          	add	x14,x16,x14
    2cfc:	00b805b3          	add	x11,x16,x11
    2d00:	00770023          	sb	x7,0(x14)
    2d04:	0017c383          	lbu	x7,1(x15)
    2d08:	00168693          	addi	x13,x13,1
    2d0c:	01069693          	slli	x13,x13,0x10
    2d10:	00758023          	sb	x7,0(x11)
    2d14:	0027c583          	lbu	x11,2(x15)
    2d18:	0106d693          	srli	x13,x13,0x10
    2d1c:	00b70123          	sb	x11,2(x14)
    2d20:	0037c383          	lbu	x7,3(x15)
    2d24:	007701a3          	sb	x7,3(x14)
    2d28:	03160263          	beq	x12,x17,0x2d4c
    2d2c:	0047c583          	lbu	x11,4(x15)
    2d30:	00b70223          	sb	x11,4(x14)
    2d34:	0057c383          	lbu	x7,5(x15)
    2d38:	007702a3          	sb	x7,5(x14)
    2d3c:	0067c583          	lbu	x11,6(x15)
    2d40:	00b70323          	sb	x11,6(x14)
    2d44:	0077c783          	lbu	x15,7(x15)
    2d48:	00f703a3          	sb	x15,7(x14)
    2d4c:	00c70633          	add	x12,x14,x12
    2d50:	01f60023          	sb	x31,0(x12)
    2d54:	01b69393          	slli	x7,x13,0x1b
    2d58:	0076f613          	andi	x12,x13,7
    2d5c:	00028713          	addi	x14,x5,0
    2d60:	01e3d793          	srli	x15,x7,0x1e
    2d64:	f7e610e3          	bne	x12,x30,0x2cc4
    2d68:	00279593          	slli	x11,x15,0x2
    2d6c:	00b302b3          	add	x5,x6,x11
    2d70:	00800613          	addi	x12,x0,8
    2d74:	00170593          	addi	x11,x14,1
    2d78:	0302a783          	lw	x15,48(x5)
    2d7c:	00b602b3          	add	x5,x12,x11
    2d80:	f7c2eae3          	bltu	x5,x28,0x2cf4
    2d84:	04a77463          	bgeu	x14,x10,0x2dcc
    2d88:	00100613          	addi	x12,x0,1
    2d8c:	02b57863          	bgeu	x10,x11,0x2dbc
    2d90:	00e80533          	add	x10,x16,x14
    2d94:	00000593          	addi	x11,x0,0
    2d98:	4190206f          	jal	x0,0x59b0
    2d9c:	0005a783          	lw	x15,0(x11)
    2da0:	00400613          	addi	x12,x0,4
    2da4:	f45ff06f          	jal	x0,0x2ce8
    2da8:	00279393          	slli	x7,x15,0x2
    2dac:	007305b3          	add	x11,x6,x7
    2db0:	0205a783          	lw	x15,32(x11)
    2db4:	00800613          	addi	x12,x0,8
    2db8:	f31ff06f          	jal	x0,0x2ce8
    2dbc:	40e50633          	sub	x12,x10,x14
    2dc0:	00000593          	addi	x11,x0,0
    2dc4:	00e80533          	add	x10,x16,x14
    2dc8:	3e90206f          	jal	x0,0x59b0
    2dcc:	00008067          	jalr	x0,0(x1)
    2dd0:	000e8593          	addi	x11,x29,0
    2dd4:	00000713          	addi	x14,x0,0
    2dd8:	fb1ff06f          	jal	x0,0x2d88
    2ddc:	00052683          	lw	x13,0(x10)
    2de0:	0006ce03          	lbu	x28,0(x13)
    2de4:	040e0263          	beq	x28,x0,0x2e28
    2de8:	02c00713          	addi	x14,x0,44
    2dec:	20ee0263          	beq	x28,x14,0x2ff0
    2df0:	02e00813          	addi	x16,x0,46
    2df4:	1d0e0c63          	beq	x28,x16,0x2fcc
    2df8:	03c86e63          	bltu	x16,x28,0x2e34
    2dfc:	fd5e0e93          	addi	x29,x28,-43
    2e00:	0fdeff13          	andi	x30,x29,253
    2e04:	1e0f0c63          	beq	x30,x0,0x2ffc
    2e08:	0045af83          	lw	x31,4(x11)
    2e0c:	0005a283          	lw	x5,0(x11)
    2e10:	00168693          	addi	x13,x13,1
    2e14:	001f8613          	addi	x12,x31,1
    2e18:	00128313          	addi	x6,x5,1
    2e1c:	00c5a223          	sw	x12,4(x11)
    2e20:	0065a023          	sw	x6,0(x11)
    2e24:	00100e13          	addi	x28,x0,1
    2e28:	00d52023          	sw	x13,0(x10)
    2e2c:	000e0513          	addi	x10,x28,0
    2e30:	00008067          	jalr	x0,0(x1)
    2e34:	fd0e0793          	addi	x15,x28,-48
    2e38:	0ff7f313          	andi	x6,x15,255
    2e3c:	00900393          	addi	x7,x0,9
    2e40:	fc63e4e3          	bltu	x7,x6,0x2e08
    2e44:	0005a883          	lw	x17,0(x11)
    2e48:	00168793          	addi	x15,x13,1
    2e4c:	00188e13          	addi	x28,x17,1
    2e50:	01c5a023          	sw	x28,0(x11)
    2e54:	0016c683          	lbu	x13,1(x13)
    2e58:	1e068a63          	beq	x13,x0,0x304c
    2e5c:	20e68663          	beq	x13,x14,0x3068
    2e60:	02e00813          	addi	x16,x0,46
    2e64:	05068663          	beq	x13,x16,0x2eb0
    2e68:	fd068e93          	addi	x29,x13,-48
    2e6c:	0ffeff13          	andi	x30,x29,255
    2e70:	00900f93          	addi	x31,x0,9
    2e74:	03eff463          	bgeu	x31,x30,0x2e9c
    2e78:	0105a603          	lw	x12,16(x11)
    2e7c:	00100e13          	addi	x28,x0,1
    2e80:	00178693          	addi	x13,x15,1
    2e84:	01c602b3          	add	x5,x12,x28
    2e88:	0055a823          	sw	x5,16(x11)
    2e8c:	00d52023          	sw	x13,0(x10)
    2e90:	000e0513          	addi	x10,x28,0
    2e94:	00008067          	jalr	x0,0(x1)
    2e98:	01c5a423          	sw	x28,8(x11)
    2e9c:	0017c683          	lbu	x13,1(x15)
    2ea0:	00178793          	addi	x15,x15,1
    2ea4:	1a068463          	beq	x13,x0,0x304c
    2ea8:	02c00713          	addi	x14,x0,44
    2eac:	fb1ff06f          	jal	x0,0x2e5c
    2eb0:	0105a303          	lw	x6,16(x11)
    2eb4:	00130713          	addi	x14,x6,1
    2eb8:	00e5a823          	sw	x14,16(x11)
    2ebc:	0017c383          	lbu	x7,1(x15)
    2ec0:	00178793          	addi	x15,x15,1
    2ec4:	12038063          	beq	x7,x0,0x2fe4
    2ec8:	02c00713          	addi	x14,x0,44
    2ecc:	18e38663          	beq	x7,x14,0x3058
    2ed0:	0df3f893          	andi	x17,x7,223
    2ed4:	04500e13          	addi	x28,x0,69
    2ed8:	0dc89663          	bne	x17,x28,0x2fa4
    2edc:	0145a283          	lw	x5,20(x11)
    2ee0:	00178693          	addi	x13,x15,1
    2ee4:	00128313          	addi	x6,x5,1
    2ee8:	0065aa23          	sw	x6,20(x11)
    2eec:	0017c383          	lbu	x7,1(x15)
    2ef0:	18038863          	beq	x7,x0,0x3080
    2ef4:	02c00893          	addi	x17,x0,44
    2ef8:	19138863          	beq	x7,x17,0x3088
    2efc:	00c5a683          	lw	x13,12(x11)
    2f00:	fd538713          	addi	x14,x7,-43
    2f04:	0fd77e13          	andi	x28,x14,253
    2f08:	00168813          	addi	x16,x13,1
    2f0c:	0105a623          	sw	x16,12(x11)
    2f10:	080e1463          	bne	x28,x0,0x2f98
    2f14:	0027ce83          	lbu	x29,2(x15)
    2f18:	00278693          	addi	x13,x15,2
    2f1c:	140e8e63          	beq	x29,x0,0x3078
    2f20:	191e8463          	beq	x29,x17,0x30a8
    2f24:	0185af03          	lw	x30,24(x11)
    2f28:	fd0e8f93          	addi	x31,x29,-48
    2f2c:	0ffff293          	andi	x5,x31,255
    2f30:	001f0613          	addi	x12,x30,1
    2f34:	00900813          	addi	x16,x0,9
    2f38:	00c5ac23          	sw	x12,24(x11)
    2f3c:	00587c63          	bgeu	x16,x5,0x2f54
    2f40:	00378693          	addi	x13,x15,3
    2f44:	00100e13          	addi	x28,x0,1
    2f48:	00d52023          	sw	x13,0(x10)
    2f4c:	000e0513          	addi	x10,x28,0
    2f50:	00008067          	jalr	x0,0(x1)
    2f54:	00068313          	addi	x6,x13,0
    2f58:	0016c383          	lbu	x7,1(x13)
    2f5c:	00168693          	addi	x13,x13,1
    2f60:	02c00893          	addi	x17,x0,44
    2f64:	fd038793          	addi	x15,x7,-48
    2f68:	0ff7f713          	andi	x14,x15,255
    2f6c:	12038463          	beq	x7,x0,0x3094
    2f70:	13138663          	beq	x7,x17,0x309c
    2f74:	fee870e3          	bgeu	x16,x14,0x2f54
    2f78:	0045ae83          	lw	x29,4(x11)
    2f7c:	00100e13          	addi	x28,x0,1
    2f80:	00230693          	addi	x13,x6,2
    2f84:	01ce8f33          	add	x30,x29,x28
    2f88:	01e5a223          	sw	x30,4(x11)
    2f8c:	00d52023          	sw	x13,0(x10)
    2f90:	000e0513          	addi	x10,x28,0
    2f94:	00008067          	jalr	x0,0(x1)
    2f98:	00278693          	addi	x13,x15,2
    2f9c:	00100e13          	addi	x28,x0,1
    2fa0:	e89ff06f          	jal	x0,0x2e28
    2fa4:	fd038813          	addi	x16,x7,-48
    2fa8:	0ff87e93          	andi	x29,x16,255
    2fac:	00900f13          	addi	x30,x0,9
    2fb0:	f1df76e3          	bgeu	x30,x29,0x2ebc
    2fb4:	0145af83          	lw	x31,20(x11)
    2fb8:	00100e13          	addi	x28,x0,1
    2fbc:	00178693          	addi	x13,x15,1
    2fc0:	01cf8633          	add	x12,x31,x28
    2fc4:	00c5aa23          	sw	x12,20(x11)
    2fc8:	e61ff06f          	jal	x0,0x2e28
    2fcc:	0005a603          	lw	x12,0(x11)
    2fd0:	00168793          	addi	x15,x13,1
    2fd4:	00160293          	addi	x5,x12,1
    2fd8:	0055a023          	sw	x5,0(x11)
    2fdc:	0016c383          	lbu	x7,1(x13)
    2fe0:	ee0396e3          	bne	x7,x0,0x2ecc
    2fe4:	00078693          	addi	x13,x15,0
    2fe8:	00500e13          	addi	x28,x0,5
    2fec:	e3dff06f          	jal	x0,0x2e28
    2ff0:	00000e13          	addi	x28,x0,0
    2ff4:	00168693          	addi	x13,x13,1
    2ff8:	e31ff06f          	jal	x0,0x2e28
    2ffc:	0005af83          	lw	x31,0(x11)
    3000:	00168793          	addi	x15,x13,1
    3004:	001f8613          	addi	x12,x31,1
    3008:	00c5a023          	sw	x12,0(x11)
    300c:	0016c283          	lbu	x5,1(x13)
    3010:	0a028a63          	beq	x5,x0,0x30c4
    3014:	0ae28063          	beq	x5,x14,0x30b4
    3018:	0085a303          	lw	x6,8(x11)
    301c:	fd028713          	addi	x14,x5,-48
    3020:	0ff77393          	andi	x7,x14,255
    3024:	00900893          	addi	x17,x0,9
    3028:	00130e13          	addi	x28,x6,1
    302c:	e678f6e3          	bgeu	x17,x7,0x2e98
    3030:	01028a63          	beq	x5,x16,0x3044
    3034:	01c5a423          	sw	x28,8(x11)
    3038:	00268693          	addi	x13,x13,2
    303c:	00100e13          	addi	x28,x0,1
    3040:	de9ff06f          	jal	x0,0x2e28
    3044:	01c5a423          	sw	x28,8(x11)
    3048:	e75ff06f          	jal	x0,0x2ebc
    304c:	00078693          	addi	x13,x15,0
    3050:	00400e13          	addi	x28,x0,4
    3054:	dd5ff06f          	jal	x0,0x2e28
    3058:	00078693          	addi	x13,x15,0
    305c:	00500e13          	addi	x28,x0,5
    3060:	00168693          	addi	x13,x13,1
    3064:	dc5ff06f          	jal	x0,0x2e28
    3068:	00078693          	addi	x13,x15,0
    306c:	00400e13          	addi	x28,x0,4
    3070:	00168693          	addi	x13,x13,1
    3074:	db5ff06f          	jal	x0,0x2e28
    3078:	00600e13          	addi	x28,x0,6
    307c:	dadff06f          	jal	x0,0x2e28
    3080:	00300e13          	addi	x28,x0,3
    3084:	da5ff06f          	jal	x0,0x2e28
    3088:	00300e13          	addi	x28,x0,3
    308c:	00168693          	addi	x13,x13,1
    3090:	d99ff06f          	jal	x0,0x2e28
    3094:	00700e13          	addi	x28,x0,7
    3098:	d91ff06f          	jal	x0,0x2e28
    309c:	00700e13          	addi	x28,x0,7
    30a0:	00168693          	addi	x13,x13,1
    30a4:	d85ff06f          	jal	x0,0x2e28
    30a8:	00600e13          	addi	x28,x0,6
    30ac:	00168693          	addi	x13,x13,1
    30b0:	d79ff06f          	jal	x0,0x2e28
    30b4:	00078693          	addi	x13,x15,0
    30b8:	00200e13          	addi	x28,x0,2
    30bc:	00168693          	addi	x13,x13,1
    30c0:	d69ff06f          	jal	x0,0x2e28
    30c4:	00078693          	addi	x13,x15,0
    30c8:	00200e13          	addi	x28,x0,2
    30cc:	d5dff06f          	jal	x0,0x2e28
    30d0:	f8010113          	addi	x2,x2,-128
    30d4:	06812c23          	sw	x8,120(x2)
    30d8:	06912a23          	sw	x9,116(x2)
    30dc:	07212823          	sw	x18,112(x2)
    30e0:	07312623          	sw	x19,108(x2)
    30e4:	07412423          	sw	x20,104(x2)
    30e8:	07512223          	sw	x21,100(x2)
    30ec:	07612023          	sw	x22,96(x2)
    30f0:	05712e23          	sw	x23,92(x2)
    30f4:	05812c23          	sw	x24,88(x2)
    30f8:	06112e23          	sw	x1,124(x2)
    30fc:	00058493          	addi	x9,x11,0
    3100:	0005c583          	lbu	x11,0(x11)
    3104:	03010993          	addi	x19,x2,48
    3108:	01010413          	addi	x8,x2,16
    310c:	02012823          	sw	x0,48(x2)
    3110:	00012823          	sw	x0,16(x2)
    3114:	00912623          	sw	x9,12(x2)
    3118:	0009a223          	sw	x0,4(x19)
    311c:	0009a423          	sw	x0,8(x19)
    3120:	0009a623          	sw	x0,12(x19)
    3124:	0009a823          	sw	x0,16(x19)
    3128:	0009aa23          	sw	x0,20(x19)
    312c:	0009ac23          	sw	x0,24(x19)
    3130:	0009ae23          	sw	x0,28(x19)
    3134:	00042223          	sw	x0,4(x8)
    3138:	00042423          	sw	x0,8(x8)
    313c:	00042623          	sw	x0,12(x8)
    3140:	00042823          	sw	x0,16(x8)
    3144:	00042a23          	sw	x0,20(x8)
    3148:	00042c23          	sw	x0,24(x8)
    314c:	00042e23          	sw	x0,28(x8)
    3150:	00078913          	addi	x18,x15,0
    3154:	00050c13          	addi	x24,x10,0
    3158:	00060b93          	addi	x23,x12,0
    315c:	00068b13          	addi	x22,x13,0
    3160:	00070a93          	addi	x21,x14,0
    3164:	00c10a13          	addi	x20,x2,12
    3168:	10058863          	beq	x11,x0,0x3278
    316c:	00098593          	addi	x11,x19,0
    3170:	000a0513          	addi	x10,x20,0
    3174:	c69ff0ef          	jal	x1,0x2ddc
    3178:	00251713          	slli	x14,x10,0x2
    317c:	008702b3          	add	x5,x14,x8
    3180:	00c12683          	lw	x13,12(x2)
    3184:	0002a783          	lw	x15,0(x5)
    3188:	0006c303          	lbu	x6,0(x13)
    318c:	00178393          	addi	x7,x15,1
    3190:	0072a023          	sw	x7,0(x5)
    3194:	fc031ce3          	bne	x6,x0,0x316c
    3198:	00912623          	sw	x9,12(x2)
    319c:	01848c33          	add	x24,x9,x24
    31a0:	0384f863          	bgeu	x9,x24,0x31d0
    31a4:	00048893          	addi	x17,x9,0
    31a8:	02c00613          	addi	x12,x0,44
    31ac:	0008c503          	lbu	x10,0(x17)
    31b0:	01754833          	xor	x16,x10,x23
    31b4:	00c50463          	beq	x10,x12,0x31bc
    31b8:	01088023          	sb	x16,0(x17)
    31bc:	015888b3          	add	x17,x17,x21
    31c0:	ff88e6e3          	bltu	x17,x24,0x31ac
    31c4:	0004ce03          	lbu	x28,0(x9)
    31c8:	00c10a13          	addi	x20,x2,12
    31cc:	020e0863          	beq	x28,x0,0x31fc
    31d0:	00098593          	addi	x11,x19,0
    31d4:	000a0513          	addi	x10,x20,0
    31d8:	c05ff0ef          	jal	x1,0x2ddc
    31dc:	00251e93          	slli	x29,x10,0x2
    31e0:	008e8f33          	add	x30,x29,x8
    31e4:	00c12f83          	lw	x31,12(x2)
    31e8:	000f2583          	lw	x11,0(x30)
    31ec:	000fc703          	lbu	x14,0(x31)
    31f0:	00158293          	addi	x5,x11,1
    31f4:	005f2023          	sw	x5,0(x30)
    31f8:	fc071ce3          	bne	x14,x0,0x31d0
    31fc:	02c00693          	addi	x13,x0,44
    3200:	0184fe63          	bgeu	x9,x24,0x321c
    3204:	0004c783          	lbu	x15,0(x9)
    3208:	0167c333          	xor	x6,x15,x22
    320c:	00d78463          	beq	x15,x13,0x3214
    3210:	00648023          	sb	x6,0(x9)
    3214:	015484b3          	add	x9,x9,x21
    3218:	ff84e6e3          	bltu	x9,x24,0x3204
    321c:	00098a93          	addi	x21,x19,0
    3220:	00042503          	lw	x10,0(x8)
    3224:	00090593          	addi	x11,x18,0
    3228:	00440413          	addi	x8,x8,4
    322c:	414000ef          	jal	x1,0x3640
    3230:	00050593          	addi	x11,x10,0
    3234:	000aa503          	lw	x10,0(x21)
    3238:	004a8a93          	addi	x21,x21,4
    323c:	404000ef          	jal	x1,0x3640
    3240:	00050913          	addi	x18,x10,0
    3244:	fc899ee3          	bne	x19,x8,0x3220
    3248:	07c12083          	lw	x1,124(x2)
    324c:	07812403          	lw	x8,120(x2)
    3250:	07412483          	lw	x9,116(x2)
    3254:	07012903          	lw	x18,112(x2)
    3258:	06c12983          	lw	x19,108(x2)
    325c:	06812a03          	lw	x20,104(x2)
    3260:	06412a83          	lw	x21,100(x2)
    3264:	06012b03          	lw	x22,96(x2)
    3268:	05c12b83          	lw	x23,92(x2)
    326c:	05812c03          	lw	x24,88(x2)
    3270:	08010113          	addi	x2,x2,128
    3274:	00008067          	jalr	x0,0(x1)
    3278:	00a48c33          	add	x24,x9,x10
    327c:	f384e4e3          	bltu	x9,x24,0x31a4
    3280:	f9dff06f          	jal	x0,0x321c
    3284:	00500793          	addi	x15,x0,5
    3288:	04a7ec63          	bltu	x15,x10,0x32e0
    328c:	000182b7          	lui	x5,0x18
    3290:	00251513          	slli	x10,x10,0x2
    3294:	0e028313          	addi	x6,x5,224 # 0x180e0
    3298:	006503b3          	add	x7,x10,x6
    329c:	0003a583          	lw	x11,0(x7)
    32a0:	00058067          	jalr	x0,0(x11)
    32a4:	00010637          	lui	x12,0x10
    32a8:	07062503          	lw	x10,112(x12) # 0x10070
    32ac:	00008067          	jalr	x0,0(x1)
    32b0:	000108b7          	lui	x17,0x10
    32b4:	0788a503          	lw	x10,120(x17) # 0x10078
    32b8:	00008067          	jalr	x0,0(x1)
    32bc:	00010837          	lui	x16,0x10
    32c0:	07482503          	lw	x10,116(x16) # 0x10074
    32c4:	00008067          	jalr	x0,0(x1)
    32c8:	00010737          	lui	x14,0x10
    32cc:	01472503          	lw	x10,20(x14) # 0x10014
    32d0:	00008067          	jalr	x0,0(x1)
    32d4:	000106b7          	lui	x13,0x10
    32d8:	0106a503          	lw	x10,16(x13) # 0x10010
    32dc:	00008067          	jalr	x0,0(x1)
    32e0:	00000513          	addi	x10,x0,0
    32e4:	00008067          	jalr	x0,0(x1)
    32e8:	0ff5f713          	andi	x14,x11,255
    32ec:	00871293          	slli	x5,x14,0x8
    32f0:	0085d593          	srli	x11,x11,0x8
    32f4:	000017b7          	lui	x15,0x1
    32f8:	fffff337          	lui	x6,0xfffff
    32fc:	00b2e3b3          	or	x7,x5,x11
    3300:	f0f78f13          	addi	x30,x15,-241 # 0xf0f
    3304:	0f030f93          	addi	x31,x6,240 # 0xfffff0f0
    3308:	01e3f633          	and	x12,x7,x30
    330c:	01f3f6b3          	and	x13,x7,x31
    3310:	00461813          	slli	x16,x12,0x4
    3314:	0046d893          	srli	x17,x13,0x4
    3318:	00f57e93          	andi	x29,x10,15
    331c:	00003737          	lui	x14,0x3
    3320:	ffffd5b7          	lui	x11,0xffffd
    3324:	01186e33          	or	x28,x16,x17
    3328:	33370293          	addi	x5,x14,819 # 0x3333
    332c:	ccc58393          	addi	x7,x11,-820 # 0xffffcccc
    3330:	004e9793          	slli	x15,x29,0x4
    3334:	00455513          	srli	x10,x10,0x4
    3338:	00a7e6b3          	or	x13,x15,x10
    333c:	005e7333          	and	x6,x28,x5
    3340:	007e7633          	and	x12,x28,x7
    3344:	00231813          	slli	x16,x6,0x2
    3348:	00265893          	srli	x17,x12,0x2
    334c:	0336fe13          	andi	x28,x13,51
    3350:	0cc6f713          	andi	x14,x13,204
    3354:	000055b7          	lui	x11,0x5
    3358:	ffffb7b7          	lui	x15,0xffffb
    335c:	01186eb3          	or	x29,x16,x17
    3360:	55558513          	addi	x10,x11,1365 # 0x5555
    3364:	aaa78313          	addi	x6,x15,-1366 # 0xffffaaaa
    3368:	00275813          	srli	x16,x14,0x2
    336c:	002e1613          	slli	x12,x28,0x2
    3370:	01066e33          	or	x28,x12,x16
    3374:	00aef6b3          	and	x13,x29,x10
    3378:	006ef8b3          	and	x17,x29,x6
    337c:	0018d593          	srli	x11,x17,0x1
    3380:	00169713          	slli	x14,x13,0x1
    3384:	055e7e93          	andi	x29,x28,85
    3388:	0aae7793          	andi	x15,x28,170
    338c:	00b76833          	or	x16,x14,x11
    3390:	001e9693          	slli	x13,x29,0x1
    3394:	0017d613          	srli	x12,x15,0x1
    3398:	00c6ee33          	or	x28,x13,x12
    339c:	00885893          	srli	x17,x16,0x8
    33a0:	01c8ceb3          	xor	x29,x17,x28
    33a4:	000187b7          	lui	x15,0x18
    33a8:	001e9813          	slli	x16,x29,0x1
    33ac:	0f878693          	addi	x13,x15,248 # 0x180f8
    33b0:	00d80633          	add	x12,x16,x13
    33b4:	00065883          	lhu	x17,0(x12)
    33b8:	00b76733          	or	x14,x14,x11
    33bc:	00871593          	slli	x11,x14,0x8
    33c0:	00b8ce33          	xor	x28,x17,x11
    33c4:	0ff8fe93          	andi	x29,x17,255
    33c8:	010e1793          	slli	x15,x28,0x10
    33cc:	0187d813          	srli	x16,x15,0x18
    33d0:	008e9693          	slli	x13,x29,0x8
    33d4:	0106e633          	or	x12,x13,x16
    33d8:	01e67f33          	and	x30,x12,x30
    33dc:	01f67fb3          	and	x31,x12,x31
    33e0:	004f1893          	slli	x17,x30,0x4
    33e4:	004fd713          	srli	x14,x31,0x4
    33e8:	00e8e5b3          	or	x11,x17,x14
    33ec:	0055f2b3          	and	x5,x11,x5
    33f0:	0075f3b3          	and	x7,x11,x7
    33f4:	00229e13          	slli	x28,x5,0x2
    33f8:	0023de93          	srli	x29,x7,0x2
    33fc:	01de67b3          	or	x15,x28,x29
    3400:	00a7f533          	and	x10,x15,x10
    3404:	0067f333          	and	x6,x15,x6
    3408:	00151813          	slli	x16,x10,0x1
    340c:	00135693          	srli	x13,x6,0x1
    3410:	00d86533          	or	x10,x16,x13
    3414:	00008067          	jalr	x0,0(x1)
    3418:	0ff5f793          	andi	x15,x11,255
    341c:	00879293          	slli	x5,x15,0x8
    3420:	0085d593          	srli	x11,x11,0x8
    3424:	00001737          	lui	x14,0x1
    3428:	fffff337          	lui	x6,0xfffff
    342c:	00b2e3b3          	or	x7,x5,x11
    3430:	f0f70f93          	addi	x31,x14,-241 # 0xf0f
    3434:	0f030293          	addi	x5,x6,240 # 0xfffff0f0
    3438:	01f3f633          	and	x12,x7,x31
    343c:	0053f6b3          	and	x13,x7,x5
    3440:	00461813          	slli	x16,x12,0x4
    3444:	0046d893          	srli	x17,x13,0x4
    3448:	00f57e93          	andi	x29,x10,15
    344c:	0f057f13          	andi	x30,x10,240
    3450:	000037b7          	lui	x15,0x3
    3454:	ffffd5b7          	lui	x11,0xffffd
    3458:	33378393          	addi	x7,x15,819 # 0x3333
    345c:	ccc58313          	addi	x6,x11,-820 # 0xffffcccc
    3460:	01186e33          	or	x28,x16,x17
    3464:	004e9713          	slli	x14,x29,0x4
    3468:	004f5693          	srli	x13,x30,0x4
    346c:	006e7833          	and	x16,x28,x6
    3470:	00d768b3          	or	x17,x14,x13
    3474:	007e7633          	and	x12,x28,x7
    3478:	00261e13          	slli	x28,x12,0x2
    347c:	00285e93          	srli	x29,x16,0x2
    3480:	0338f793          	andi	x15,x17,51
    3484:	0cc8f713          	andi	x14,x17,204
    3488:	000055b7          	lui	x11,0x5
    348c:	ffffb6b7          	lui	x13,0xffffb
    3490:	01de6f33          	or	x30,x28,x29
    3494:	55558893          	addi	x17,x11,1365 # 0x5555
    3498:	aaa68813          	addi	x16,x13,-1366 # 0xffffaaaa
    349c:	00279e13          	slli	x28,x15,0x2
    34a0:	00275e93          	srli	x29,x14,0x2
    34a4:	011f77b3          	and	x15,x30,x17
    34a8:	010f7633          	and	x12,x30,x16
    34ac:	01de6733          	or	x14,x28,x29
    34b0:	00165693          	srli	x13,x12,0x1
    34b4:	00179593          	slli	x11,x15,0x1
    34b8:	05577f13          	andi	x30,x14,85
    34bc:	0aa77e13          	andi	x28,x14,170
    34c0:	00d5eeb3          	or	x29,x11,x13
    34c4:	001e5613          	srli	x12,x28,0x1
    34c8:	001f1793          	slli	x15,x30,0x1
    34cc:	00c7ef33          	or	x30,x15,x12
    34d0:	008ed713          	srli	x14,x29,0x8
    34d4:	01e74eb3          	xor	x29,x14,x30
    34d8:	00018e37          	lui	x28,0x18
    34dc:	00d5e5b3          	or	x11,x11,x13
    34e0:	0f8e0793          	addi	x15,x28,248 # 0x180f8
    34e4:	001e9693          	slli	x13,x29,0x1
    34e8:	00f68633          	add	x12,x13,x15
    34ec:	00065703          	lhu	x14,0(x12)
    34f0:	00859f13          	slli	x30,x11,0x8
    34f4:	00855513          	srli	x10,x10,0x8
    34f8:	01e74eb3          	xor	x29,x14,x30
    34fc:	0ff77593          	andi	x11,x14,255
    3500:	010e9e13          	slli	x28,x29,0x10
    3504:	018e5613          	srli	x12,x28,0x18
    3508:	00859693          	slli	x13,x11,0x8
    350c:	00c6e733          	or	x14,x13,x12
    3510:	01f77f33          	and	x30,x14,x31
    3514:	00577eb3          	and	x29,x14,x5
    3518:	004f1593          	slli	x11,x30,0x4
    351c:	004ede13          	srli	x28,x29,0x4
    3520:	01c5e633          	or	x12,x11,x28
    3524:	007676b3          	and	x13,x12,x7
    3528:	00667733          	and	x14,x12,x6
    352c:	00269f13          	slli	x30,x13,0x2
    3530:	00275e93          	srli	x29,x14,0x2
    3534:	01df65b3          	or	x11,x30,x29
    3538:	0115fe33          	and	x28,x11,x17
    353c:	0105f6b3          	and	x13,x11,x16
    3540:	001e1613          	slli	x12,x28,0x1
    3544:	0016d713          	srli	x14,x13,0x1
    3548:	00e66f33          	or	x30,x12,x14
    354c:	0fff7e93          	andi	x29,x30,255
    3550:	008e9593          	slli	x11,x29,0x8
    3554:	008f5e13          	srli	x28,x30,0x8
    3558:	01c5e633          	or	x12,x11,x28
    355c:	01f676b3          	and	x13,x12,x31
    3560:	00567733          	and	x14,x12,x5
    3564:	00f57f13          	andi	x30,x10,15
    3568:	00475e93          	srli	x29,x14,0x4
    356c:	00469593          	slli	x11,x13,0x4
    3570:	01d5e6b3          	or	x13,x11,x29
    3574:	004f1e13          	slli	x28,x30,0x4
    3578:	00455513          	srli	x10,x10,0x4
    357c:	00ae6633          	or	x12,x28,x10
    3580:	0076f733          	and	x14,x13,x7
    3584:	0066ff33          	and	x30,x13,x6
    3588:	03367593          	andi	x11,x12,51
    358c:	002f5e93          	srli	x29,x30,0x2
    3590:	0cc67e13          	andi	x28,x12,204
    3594:	00271513          	slli	x10,x14,0x2
    3598:	01d56733          	or	x14,x10,x29
    359c:	002e5613          	srli	x12,x28,0x2
    35a0:	00259693          	slli	x13,x11,0x2
    35a4:	00c6e5b3          	or	x11,x13,x12
    35a8:	01177e33          	and	x28,x14,x17
    35ac:	01077533          	and	x10,x14,x16
    35b0:	0aa5fe93          	andi	x29,x11,170
    35b4:	00155713          	srli	x14,x10,0x1
    35b8:	0555ff13          	andi	x30,x11,85
    35bc:	001e1613          	slli	x12,x28,0x1
    35c0:	00e66e33          	or	x28,x12,x14
    35c4:	001f1593          	slli	x11,x30,0x1
    35c8:	001ed693          	srli	x13,x29,0x1
    35cc:	00d5e533          	or	x10,x11,x13
    35d0:	008e5f13          	srli	x30,x28,0x8
    35d4:	00af4eb3          	xor	x29,x30,x10
    35d8:	001e9613          	slli	x12,x29,0x1
    35dc:	00f607b3          	add	x15,x12,x15
    35e0:	0007d703          	lhu	x14,0(x15)
    35e4:	008e1593          	slli	x11,x28,0x8
    35e8:	00b74e33          	xor	x28,x14,x11
    35ec:	0ff77693          	andi	x13,x14,255
    35f0:	010e1513          	slli	x10,x28,0x10
    35f4:	01855f13          	srli	x30,x10,0x18
    35f8:	00869e93          	slli	x29,x13,0x8
    35fc:	01eee633          	or	x12,x29,x30
    3600:	01f67fb3          	and	x31,x12,x31
    3604:	005672b3          	and	x5,x12,x5
    3608:	004f9793          	slli	x15,x31,0x4
    360c:	0042d713          	srli	x14,x5,0x4
    3610:	00e7e5b3          	or	x11,x15,x14
    3614:	0075f3b3          	and	x7,x11,x7
    3618:	0065f333          	and	x6,x11,x6
    361c:	00239e13          	slli	x28,x7,0x2
    3620:	00235693          	srli	x13,x6,0x2
    3624:	00de6f33          	or	x30,x28,x13
    3628:	011f78b3          	and	x17,x30,x17
    362c:	010f7833          	and	x16,x30,x16
    3630:	00189513          	slli	x10,x17,0x1
    3634:	00185e93          	srli	x29,x16,0x1
    3638:	01d56533          	or	x10,x10,x29
    363c:	00008067          	jalr	x0,0(x1)
    3640:	0ff5f793          	andi	x15,x11,255
    3644:	00879293          	slli	x5,x15,0x8
    3648:	0085d593          	srli	x11,x11,0x8
    364c:	00001737          	lui	x14,0x1
    3650:	fffff8b7          	lui	x17,0xfffff
    3654:	f0f70393          	addi	x7,x14,-241 # 0xf0f
    3658:	00b2e333          	or	x6,x5,x11
    365c:	0f088293          	addi	x5,x17,240 # 0xfffff0f0
    3660:	007376b3          	and	x13,x6,x7
    3664:	00537633          	and	x12,x6,x5
    3668:	00469813          	slli	x16,x13,0x4
    366c:	00465e13          	srli	x28,x12,0x4
    3670:	00f57f13          	andi	x30,x10,15
    3674:	0f057f93          	andi	x31,x10,240
    3678:	000037b7          	lui	x15,0x3
    367c:	ffffd5b7          	lui	x11,0xffffd
    3680:	33378893          	addi	x17,x15,819 # 0x3333
    3684:	01c86eb3          	or	x29,x16,x28
    3688:	004f1713          	slli	x14,x30,0x4
    368c:	ccc58813          	addi	x16,x11,-820 # 0xffffcccc
    3690:	004fd613          	srli	x12,x31,0x4
    3694:	011ef333          	and	x6,x29,x17
    3698:	010ef6b3          	and	x13,x29,x16
    369c:	00c76eb3          	or	x29,x14,x12
    36a0:	00231e13          	slli	x28,x6,0x2
    36a4:	0026df13          	srli	x30,x13,0x2
    36a8:	033ef793          	andi	x15,x29,51
    36ac:	0ccef713          	andi	x14,x29,204
    36b0:	000055b7          	lui	x11,0x5
    36b4:	ffffb637          	lui	x12,0xffffb
    36b8:	55558693          	addi	x13,x11,1365 # 0x5555
    36bc:	01ee6fb3          	or	x31,x28,x30
    36c0:	aaa60593          	addi	x11,x12,-1366 # 0xffffaaaa
    36c4:	00279e13          	slli	x28,x15,0x2
    36c8:	00275e93          	srli	x29,x14,0x2
    36cc:	00dfff33          	and	x30,x31,x13
    36d0:	00bff333          	and	x6,x31,x11
    36d4:	01de6fb3          	or	x31,x28,x29
    36d8:	00135713          	srli	x14,x6,0x1
    36dc:	001f1793          	slli	x15,x30,0x1
    36e0:	055ff613          	andi	x12,x31,85
    36e4:	0aaffe13          	andi	x28,x31,170
    36e8:	00e7eeb3          	or	x29,x15,x14
    36ec:	001e5313          	srli	x6,x28,0x1
    36f0:	00161f13          	slli	x30,x12,0x1
    36f4:	006f6633          	or	x12,x30,x6
    36f8:	008edf93          	srli	x31,x29,0x8
    36fc:	00cfceb3          	xor	x29,x31,x12
    3700:	00e7e7b3          	or	x15,x15,x14
    3704:	00018737          	lui	x14,0x18
    3708:	0f870313          	addi	x6,x14,248 # 0x180f8
    370c:	001e9e13          	slli	x28,x29,0x1
    3710:	006e0f33          	add	x30,x28,x6
    3714:	000f5f83          	lhu	x31,0(x30)
    3718:	00879613          	slli	x12,x15,0x8
    371c:	00855793          	srli	x15,x10,0x8
    3720:	00cfceb3          	xor	x29,x31,x12
    3724:	010e9e13          	slli	x28,x29,0x10
    3728:	0ffff713          	andi	x14,x31,255
    372c:	018e5f13          	srli	x30,x28,0x18
    3730:	00871f93          	slli	x31,x14,0x8
    3734:	01efe633          	or	x12,x31,x30
    3738:	00767eb3          	and	x29,x12,x7
    373c:	00567733          	and	x14,x12,x5
    3740:	004e9e13          	slli	x28,x29,0x4
    3744:	00475f13          	srli	x30,x14,0x4
    3748:	01ee6fb3          	or	x31,x28,x30
    374c:	011ff633          	and	x12,x31,x17
    3750:	010ffeb3          	and	x29,x31,x16
    3754:	00261713          	slli	x14,x12,0x2
    3758:	002ede13          	srli	x28,x29,0x2
    375c:	01c76f33          	or	x30,x14,x28
    3760:	00df7fb3          	and	x31,x30,x13
    3764:	00bf7633          	and	x12,x30,x11
    3768:	001f9e93          	slli	x29,x31,0x1
    376c:	00165713          	srli	x14,x12,0x1
    3770:	00eeee33          	or	x28,x29,x14
    3774:	0ffe7f13          	andi	x30,x28,255
    3778:	008f1f93          	slli	x31,x30,0x8
    377c:	008e5613          	srli	x12,x28,0x8
    3780:	00cfe733          	or	x14,x31,x12
    3784:	00777eb3          	and	x29,x14,x7
    3788:	00577e33          	and	x28,x14,x5
    378c:	004e9f13          	slli	x30,x29,0x4
    3790:	004e5f93          	srli	x31,x28,0x4
    3794:	00f7f613          	andi	x12,x15,15
    3798:	0f07f793          	andi	x15,x15,240
    379c:	01ff6733          	or	x14,x30,x31
    37a0:	00461f93          	slli	x31,x12,0x4
    37a4:	0047df13          	srli	x30,x15,0x4
    37a8:	01177e33          	and	x28,x14,x17
    37ac:	01077eb3          	and	x29,x14,x16
    37b0:	01efe733          	or	x14,x31,x30
    37b4:	002e1613          	slli	x12,x28,0x2
    37b8:	002ed793          	srli	x15,x29,0x2
    37bc:	03377f13          	andi	x30,x14,51
    37c0:	0cc77e13          	andi	x28,x14,204
    37c4:	00f66fb3          	or	x31,x12,x15
    37c8:	002e5713          	srli	x14,x28,0x2
    37cc:	002f1e93          	slli	x29,x30,0x2
    37d0:	00dff633          	and	x12,x31,x13
    37d4:	00bff7b3          	and	x15,x31,x11
    37d8:	00eeef33          	or	x30,x29,x14
    37dc:	0017de13          	srli	x28,x15,0x1
    37e0:	055f7f93          	andi	x31,x30,85
    37e4:	0aaf7e93          	andi	x29,x30,170
    37e8:	00161713          	slli	x14,x12,0x1
    37ec:	01c76633          	or	x12,x14,x28
    37f0:	001f9793          	slli	x15,x31,0x1
    37f4:	001edf93          	srli	x31,x29,0x1
    37f8:	01f7eeb3          	or	x29,x15,x31
    37fc:	00865f13          	srli	x30,x12,0x8
    3800:	01df4633          	xor	x12,x30,x29
    3804:	01c76733          	or	x14,x14,x28
    3808:	00161e13          	slli	x28,x12,0x1
    380c:	006e07b3          	add	x15,x28,x6
    3810:	0007df83          	lhu	x31,0(x15)
    3814:	00871f13          	slli	x30,x14,0x8
    3818:	01055e93          	srli	x29,x10,0x10
    381c:	01efc733          	xor	x14,x31,x30
    3820:	01071e13          	slli	x28,x14,0x10
    3824:	0ffff613          	andi	x12,x31,255
    3828:	018e5793          	srli	x15,x28,0x18
    382c:	00861f93          	slli	x31,x12,0x8
    3830:	00ffef33          	or	x30,x31,x15
    3834:	007f7733          	and	x14,x30,x7
    3838:	005f7633          	and	x12,x30,x5
    383c:	00471e13          	slli	x28,x14,0x4
    3840:	00465793          	srli	x15,x12,0x4
    3844:	00fe6fb3          	or	x31,x28,x15
    3848:	011fff33          	and	x30,x31,x17
    384c:	010ff733          	and	x14,x31,x16
    3850:	002f1613          	slli	x12,x30,0x2
    3854:	00275e13          	srli	x28,x14,0x2
    3858:	01c667b3          	or	x15,x12,x28
    385c:	00d7ffb3          	and	x31,x15,x13
    3860:	00b7ff33          	and	x30,x15,x11
    3864:	001f9713          	slli	x14,x31,0x1
    3868:	001f5613          	srli	x12,x30,0x1
    386c:	00c767b3          	or	x15,x14,x12
    3870:	0ff7fe13          	andi	x28,x15,255
    3874:	008e1f93          	slli	x31,x28,0x8
    3878:	0087df13          	srli	x30,x15,0x8
    387c:	01efe733          	or	x14,x31,x30
    3880:	00777633          	and	x12,x14,x7
    3884:	005777b3          	and	x15,x14,x5
    3888:	00461f93          	slli	x31,x12,0x4
    388c:	0047de13          	srli	x28,x15,0x4
    3890:	00feff13          	andi	x30,x29,15
    3894:	0f0efe93          	andi	x29,x29,240
    3898:	01cfe733          	or	x14,x31,x28
    389c:	004f1793          	slli	x15,x30,0x4
    38a0:	004edf93          	srli	x31,x29,0x4
    38a4:	01077633          	and	x12,x14,x16
    38a8:	01f7ee33          	or	x28,x15,x31
    38ac:	01177f33          	and	x30,x14,x17
    38b0:	002f1713          	slli	x14,x30,0x2
    38b4:	00265e93          	srli	x29,x12,0x2
    38b8:	033e7f93          	andi	x31,x28,51
    38bc:	0cce7f13          	andi	x30,x28,204
    38c0:	01d767b3          	or	x15,x14,x29
    38c4:	002f9613          	slli	x12,x31,0x2
    38c8:	002f5713          	srli	x14,x30,0x2
    38cc:	00d7fe33          	and	x28,x15,x13
    38d0:	00b7feb3          	and	x29,x15,x11
    38d4:	00e667b3          	or	x15,x12,x14
    38d8:	0557ff93          	andi	x31,x15,85
    38dc:	001e1713          	slli	x14,x28,0x1
    38e0:	0aa7f613          	andi	x12,x15,170
    38e4:	001ede13          	srli	x28,x29,0x1
    38e8:	01c76f33          	or	x30,x14,x28
    38ec:	001f9e93          	slli	x29,x31,0x1
    38f0:	00165793          	srli	x15,x12,0x1
    38f4:	00fee633          	or	x12,x29,x15
    38f8:	008f5f93          	srli	x31,x30,0x8
    38fc:	00cfcf33          	xor	x30,x31,x12
    3900:	001f1e93          	slli	x29,x30,0x1
    3904:	006e87b3          	add	x15,x29,x6
    3908:	0007df83          	lhu	x31,0(x15)
    390c:	01c76733          	or	x14,x14,x28
    3910:	00871e13          	slli	x28,x14,0x8
    3914:	01cfcf33          	xor	x30,x31,x28
    3918:	010f1e93          	slli	x29,x30,0x10
    391c:	0ffff613          	andi	x12,x31,255
    3920:	018ed793          	srli	x15,x29,0x18
    3924:	00861f93          	slli	x31,x12,0x8
    3928:	00ffe733          	or	x14,x31,x15
    392c:	00777e33          	and	x28,x14,x7
    3930:	00577f33          	and	x30,x14,x5
    3934:	004e1e93          	slli	x29,x28,0x4
    3938:	004f5613          	srli	x12,x30,0x4
    393c:	00cee7b3          	or	x15,x29,x12
    3940:	0117ffb3          	and	x31,x15,x17
    3944:	0107f733          	and	x14,x15,x16
    3948:	002f9f13          	slli	x30,x31,0x2
    394c:	00275e13          	srli	x28,x14,0x2
    3950:	01cf6eb3          	or	x29,x30,x28
    3954:	00def7b3          	and	x15,x29,x13
    3958:	00bef633          	and	x12,x29,x11
    395c:	00179f93          	slli	x31,x15,0x1
    3960:	00165713          	srli	x14,x12,0x1
    3964:	00efef33          	or	x30,x31,x14
    3968:	0fff7e13          	andi	x28,x30,255
    396c:	008e1e93          	slli	x29,x28,0x8
    3970:	008f5793          	srli	x15,x30,0x8
    3974:	00fee633          	or	x12,x29,x15
    3978:	00767fb3          	and	x31,x12,x7
    397c:	00567733          	and	x14,x12,x5
    3980:	01855513          	srli	x10,x10,0x18
    3984:	00f57f13          	andi	x30,x10,15
    3988:	00475e13          	srli	x28,x14,0x4
    398c:	004f9e93          	slli	x29,x31,0x4
    3990:	01ceefb3          	or	x31,x29,x28
    3994:	004f1793          	slli	x15,x30,0x4
    3998:	00455613          	srli	x12,x10,0x4
    399c:	00c7e533          	or	x10,x15,x12
    39a0:	011ff733          	and	x14,x31,x17
    39a4:	010fff33          	and	x30,x31,x16
    39a8:	03357793          	andi	x15,x10,51
    39ac:	002f5e93          	srli	x29,x30,0x2
    39b0:	0cc57f93          	andi	x31,x10,204
    39b4:	00271e13          	slli	x28,x14,0x2
    39b8:	01de6733          	or	x14,x28,x29
    39bc:	002fd513          	srli	x10,x31,0x2
    39c0:	00279613          	slli	x12,x15,0x2
    39c4:	00a667b3          	or	x15,x12,x10
    39c8:	00d77fb3          	and	x31,x14,x13
    39cc:	00b77e33          	and	x28,x14,x11
    39d0:	0aa7fe93          	andi	x29,x15,170
    39d4:	001e5713          	srli	x14,x28,0x1
    39d8:	0557ff13          	andi	x30,x15,85
    39dc:	001f9513          	slli	x10,x31,0x1
    39e0:	00e56fb3          	or	x31,x10,x14
    39e4:	001f1793          	slli	x15,x30,0x1
    39e8:	001ed613          	srli	x12,x29,0x1
    39ec:	00c7ee33          	or	x28,x15,x12
    39f0:	008fdf13          	srli	x30,x31,0x8
    39f4:	01cf4eb3          	xor	x29,x30,x28
    39f8:	001e9513          	slli	x10,x29,0x1
    39fc:	00650333          	add	x6,x10,x6
    3a00:	00035703          	lhu	x14,0(x6)
    3a04:	008f9793          	slli	x15,x31,0x8
    3a08:	00f74fb3          	xor	x31,x14,x15
    3a0c:	0ff77613          	andi	x12,x14,255
    3a10:	010f9e13          	slli	x28,x31,0x10
    3a14:	018e5f13          	srli	x30,x28,0x18
    3a18:	00861e93          	slli	x29,x12,0x8
    3a1c:	01eee533          	or	x10,x29,x30
    3a20:	007573b3          	and	x7,x10,x7
    3a24:	005572b3          	and	x5,x10,x5
    3a28:	00439313          	slli	x6,x7,0x4
    3a2c:	0042d713          	srli	x14,x5,0x4
    3a30:	00e36fb3          	or	x31,x6,x14
    3a34:	011ff8b3          	and	x17,x31,x17
    3a38:	010ff833          	and	x16,x31,x16
    3a3c:	00289793          	slli	x15,x17,0x2
    3a40:	00285613          	srli	x12,x16,0x2
    3a44:	00c7ee33          	or	x28,x15,x12
    3a48:	00de76b3          	and	x13,x28,x13
    3a4c:	00be75b3          	and	x11,x28,x11
    3a50:	00169f13          	slli	x30,x13,0x1
    3a54:	0015de93          	srli	x29,x11,0x1
    3a58:	01df6533          	or	x10,x30,x29
    3a5c:	00008067          	jalr	x0,0(x1)
    3a60:	0ff5f793          	andi	x15,x11,255
    3a64:	00879293          	slli	x5,x15,0x8
    3a68:	0085d593          	srli	x11,x11,0x8
    3a6c:	00001737          	lui	x14,0x1
    3a70:	fffff337          	lui	x6,0xfffff
    3a74:	00b2e3b3          	or	x7,x5,x11
    3a78:	f0f70f93          	addi	x31,x14,-241 # 0xf0f
    3a7c:	0f030293          	addi	x5,x6,240 # 0xfffff0f0
    3a80:	01f3f633          	and	x12,x7,x31
    3a84:	0053f6b3          	and	x13,x7,x5
    3a88:	00461813          	slli	x16,x12,0x4
    3a8c:	0046d893          	srli	x17,x13,0x4
    3a90:	00f57e93          	andi	x29,x10,15
    3a94:	0f057f13          	andi	x30,x10,240
    3a98:	000037b7          	lui	x15,0x3
    3a9c:	ffffd5b7          	lui	x11,0xffffd
    3aa0:	33378393          	addi	x7,x15,819 # 0x3333
    3aa4:	ccc58313          	addi	x6,x11,-820 # 0xffffcccc
    3aa8:	01186e33          	or	x28,x16,x17
    3aac:	004e9713          	slli	x14,x29,0x4
    3ab0:	004f5693          	srli	x13,x30,0x4
    3ab4:	006e7833          	and	x16,x28,x6
    3ab8:	00d768b3          	or	x17,x14,x13
    3abc:	007e7633          	and	x12,x28,x7
    3ac0:	00261e13          	slli	x28,x12,0x2
    3ac4:	00285e93          	srli	x29,x16,0x2
    3ac8:	0338f793          	andi	x15,x17,51
    3acc:	0cc8f713          	andi	x14,x17,204
    3ad0:	000055b7          	lui	x11,0x5
    3ad4:	ffffb6b7          	lui	x13,0xffffb
    3ad8:	01de6f33          	or	x30,x28,x29
    3adc:	55558893          	addi	x17,x11,1365 # 0x5555
    3ae0:	aaa68813          	addi	x16,x13,-1366 # 0xffffaaaa
    3ae4:	00279e13          	slli	x28,x15,0x2
    3ae8:	00275e93          	srli	x29,x14,0x2
    3aec:	011f77b3          	and	x15,x30,x17
    3af0:	010f7633          	and	x12,x30,x16
    3af4:	01de6733          	or	x14,x28,x29
    3af8:	00165693          	srli	x13,x12,0x1
    3afc:	00179593          	slli	x11,x15,0x1
    3b00:	05577f13          	andi	x30,x14,85
    3b04:	0aa77e13          	andi	x28,x14,170
    3b08:	00d5eeb3          	or	x29,x11,x13
    3b0c:	001e5613          	srli	x12,x28,0x1
    3b10:	001f1793          	slli	x15,x30,0x1
    3b14:	00c7ef33          	or	x30,x15,x12
    3b18:	008ed713          	srli	x14,x29,0x8
    3b1c:	01e74eb3          	xor	x29,x14,x30
    3b20:	00018e37          	lui	x28,0x18
    3b24:	00d5e5b3          	or	x11,x11,x13
    3b28:	0f8e0793          	addi	x15,x28,248 # 0x180f8
    3b2c:	001e9693          	slli	x13,x29,0x1
    3b30:	00f68633          	add	x12,x13,x15
    3b34:	00065703          	lhu	x14,0(x12)
    3b38:	00859f13          	slli	x30,x11,0x8
    3b3c:	00855513          	srli	x10,x10,0x8
    3b40:	01e74eb3          	xor	x29,x14,x30
    3b44:	0ff77593          	andi	x11,x14,255
    3b48:	010e9e13          	slli	x28,x29,0x10
    3b4c:	018e5613          	srli	x12,x28,0x18
    3b50:	00859693          	slli	x13,x11,0x8
    3b54:	00c6e733          	or	x14,x13,x12
    3b58:	01f77f33          	and	x30,x14,x31
    3b5c:	00577eb3          	and	x29,x14,x5
    3b60:	004f1593          	slli	x11,x30,0x4
    3b64:	004ede13          	srli	x28,x29,0x4
    3b68:	01c5e633          	or	x12,x11,x28
    3b6c:	007676b3          	and	x13,x12,x7
    3b70:	00667733          	and	x14,x12,x6
    3b74:	00269f13          	slli	x30,x13,0x2
    3b78:	00275e93          	srli	x29,x14,0x2
    3b7c:	01df65b3          	or	x11,x30,x29
    3b80:	0115fe33          	and	x28,x11,x17
    3b84:	0105f6b3          	and	x13,x11,x16
    3b88:	001e1613          	slli	x12,x28,0x1
    3b8c:	0016d713          	srli	x14,x13,0x1
    3b90:	00e66f33          	or	x30,x12,x14
    3b94:	0fff7e93          	andi	x29,x30,255
    3b98:	008e9593          	slli	x11,x29,0x8
    3b9c:	008f5e13          	srli	x28,x30,0x8
    3ba0:	01c5e633          	or	x12,x11,x28
    3ba4:	01f676b3          	and	x13,x12,x31
    3ba8:	00567733          	and	x14,x12,x5
    3bac:	00f57f13          	andi	x30,x10,15
    3bb0:	00475e93          	srli	x29,x14,0x4
    3bb4:	0f057513          	andi	x10,x10,240
    3bb8:	00469593          	slli	x11,x13,0x4
    3bbc:	01d5e6b3          	or	x13,x11,x29
    3bc0:	004f1e13          	slli	x28,x30,0x4
    3bc4:	00455613          	srli	x12,x10,0x4
    3bc8:	0076ff33          	and	x30,x13,x7
    3bcc:	0066f5b3          	and	x11,x13,x6
    3bd0:	00ce6733          	or	x14,x28,x12
    3bd4:	03377e13          	andi	x28,x14,51
    3bd8:	0025de93          	srli	x29,x11,0x2
    3bdc:	0cc77613          	andi	x12,x14,204
    3be0:	002f1513          	slli	x10,x30,0x2
    3be4:	01d56f33          	or	x30,x10,x29
    3be8:	002e1693          	slli	x13,x28,0x2
    3bec:	00265713          	srli	x14,x12,0x2
    3bf0:	00e6e5b3          	or	x11,x13,x14
    3bf4:	011f7e33          	and	x28,x30,x17
    3bf8:	010f7533          	and	x10,x30,x16
    3bfc:	0555fe93          	andi	x29,x11,85
    3c00:	00155713          	srli	x14,x10,0x1
    3c04:	0aa5f693          	andi	x13,x11,170
    3c08:	001e1613          	slli	x12,x28,0x1
    3c0c:	00e66e33          	or	x28,x12,x14
    3c10:	001e9f13          	slli	x30,x29,0x1
    3c14:	0016d593          	srli	x11,x13,0x1
    3c18:	00bf6533          	or	x10,x30,x11
    3c1c:	008e5e93          	srli	x29,x28,0x8
    3c20:	00aec6b3          	xor	x13,x29,x10
    3c24:	00169613          	slli	x12,x13,0x1
    3c28:	00f607b3          	add	x15,x12,x15
    3c2c:	0007d703          	lhu	x14,0(x15)
    3c30:	008e1f13          	slli	x30,x28,0x8
    3c34:	01e745b3          	xor	x11,x14,x30
    3c38:	0ff77e13          	andi	x28,x14,255
    3c3c:	01059513          	slli	x10,x11,0x10
    3c40:	01855e93          	srli	x29,x10,0x18
    3c44:	008e1693          	slli	x13,x28,0x8
    3c48:	01d6e633          	or	x12,x13,x29
    3c4c:	01f67fb3          	and	x31,x12,x31
    3c50:	005672b3          	and	x5,x12,x5
    3c54:	004f9793          	slli	x15,x31,0x4
    3c58:	0042d713          	srli	x14,x5,0x4
    3c5c:	00e7ef33          	or	x30,x15,x14
    3c60:	007f73b3          	and	x7,x30,x7
    3c64:	006f7333          	and	x6,x30,x6
    3c68:	00239593          	slli	x11,x7,0x2
    3c6c:	00235e13          	srli	x28,x6,0x2
    3c70:	01c5eeb3          	or	x29,x11,x28
    3c74:	011ef8b3          	and	x17,x29,x17
    3c78:	010ef833          	and	x16,x29,x16
    3c7c:	00189513          	slli	x10,x17,0x1
    3c80:	00185693          	srli	x13,x16,0x1
    3c84:	00d56533          	or	x10,x10,x13
    3c88:	00008067          	jalr	x0,0(x1)
    3c8c:	00000513          	addi	x10,x0,0
    3c90:	00008067          	jalr	x0,0(x1)
    3c94:	fa010113          	addi	x2,x2,-96
    3c98:	04812c23          	sw	x8,88(x2)
    3c9c:	04912a23          	sw	x9,84(x2)
    3ca0:	05212823          	sw	x18,80(x2)
    3ca4:	05312623          	sw	x19,76(x2)
    3ca8:	05412423          	sw	x20,72(x2)
    3cac:	05612023          	sw	x22,64(x2)
    3cb0:	03912a23          	sw	x25,52(x2)
    3cb4:	04e00893          	addi	x17,x0,78
    3cb8:	04112e23          	sw	x1,92(x2)
    3cbc:	05512223          	sw	x21,68(x2)
    3cc0:	03712e23          	sw	x23,60(x2)
    3cc4:	03812c23          	sw	x24,56(x2)
    3cc8:	03a12823          	sw	x26,48(x2)
    3ccc:	03b12623          	sw	x27,44(x2)
    3cd0:	00058413          	addi	x8,x11,0
    3cd4:	00050913          	addi	x18,x10,0
    3cd8:	00068a13          	addi	x20,x13,0
    3cdc:	00070993          	addi	x19,x14,0
    3ce0:	00078493          	addi	x9,x15,0
    3ce4:	00080b13          	addi	x22,x16,0
    3ce8:	00088c93          	addi	x25,x17,0
    3cec:	00c8c863          	blt	x17,x12,0x3cfc
    3cf0:	fff64793          	xori	x15,x12,-1
    3cf4:	41f7d293          	srai	x5,x15,0x1f
    3cf8:	00567cb3          	and	x25,x12,x5
    3cfc:	00090513          	addi	x10,x18,0
    3d00:	00040593          	addi	x11,x8,0
    3d04:	00000613          	addi	x12,x0,0
    3d08:	00000693          	addi	x13,x0,0
    3d0c:	4e1020ef          	jal	x1,0x69ec
    3d10:	00000393          	addi	x7,x0,0
    3d14:	00055863          	bge	x10,x0,0x3d24
    3d18:	80000337          	lui	x6,0x80000
    3d1c:	00644433          	xor	x8,x8,x6
    3d20:	00100393          	addi	x7,x0,1
    3d24:	01010613          	addi	x12,x2,16
    3d28:	0079a023          	sw	x7,0(x19)
    3d2c:	00090513          	addi	x10,x18,0
    3d30:	00040593          	addi	x11,x8,0
    3d34:	778040ef          	jal	x1,0x84ac
    3d38:	01012d03          	lw	x26,16(x2)
    3d3c:	01412d83          	lw	x27,20(x2)
    3d40:	00058c13          	addi	x24,x11,0
    3d44:	00050b93          	addi	x23,x10,0
    3d48:	00000613          	addi	x12,x0,0
    3d4c:	00000693          	addi	x13,x0,0
    3d50:	000d0513          	addi	x10,x26,0
    3d54:	000d8593          	addi	x11,x27,0
    3d58:	339020ef          	jal	x1,0x6890
    3d5c:	42050e63          	beq	x10,x0,0x4198
    3d60:	000195b7          	lui	x11,0x19
    3d64:	00019737          	lui	x14,0x19
    3d68:	bb45a683          	lw	x13,-1100(x11) # 0x18bb4
    3d6c:	bb05ae03          	lw	x28,-1104(x11)
    3d70:	ba072903          	lw	x18,-1120(x14) # 0x18ba0
    3d74:	ba472983          	lw	x19,-1116(x14)
    3d78:	05048a93          	addi	x21,x9,80
    3d7c:	01c12423          	sw	x28,8(x2)
    3d80:	00d12623          	sw	x13,12(x2)
    3d84:	000a8413          	addi	x8,x21,0
    3d88:	00098693          	addi	x13,x19,0
    3d8c:	000d0513          	addi	x10,x26,0
    3d90:	000d8593          	addi	x11,x27,0
    3d94:	00090613          	addi	x12,x18,0
    3d98:	440020ef          	jal	x1,0x61d8
    3d9c:	01010613          	addi	x12,x2,16
    3da0:	70c040ef          	jal	x1,0x84ac
    3da4:	00812603          	lw	x12,8(x2)
    3da8:	00c12683          	lw	x13,12(x2)
    3dac:	00a12c23          	sw	x10,24(x2)
    3db0:	00b12e23          	sw	x11,28(x2)
    3db4:	4d9010ef          	jal	x1,0x5a8c
    3db8:	00090613          	addi	x12,x18,0
    3dbc:	00098693          	addi	x13,x19,0
    3dc0:	505020ef          	jal	x1,0x6ac4
    3dc4:	249030ef          	jal	x1,0x780c
    3dc8:	01012d03          	lw	x26,16(x2)
    3dcc:	01412d83          	lw	x27,20(x2)
    3dd0:	03050f93          	addi	x31,x10,48
    3dd4:	00000613          	addi	x12,x0,0
    3dd8:	00000693          	addi	x13,x0,0
    3ddc:	000d0513          	addi	x10,x26,0
    3de0:	000d8593          	addi	x11,x27,0
    3de4:	fff40fa3          	sb	x31,-1(x8)
    3de8:	fff40413          	addi	x8,x8,-1
    3dec:	2a5020ef          	jal	x1,0x6890
    3df0:	f8051ce3          	bne	x10,x0,0x3d88
    3df4:	408488b3          	sub	x17,x9,x8
    3df8:	05088d93          	addi	x27,x17,80
    3dfc:	00048793          	addi	x15,x9,0
    3e00:	4f547663          	bgeu	x8,x21,0x42ec
    3e04:	408a82b3          	sub	x5,x21,x8
    3e08:	0072f313          	andi	x6,x5,7
    3e0c:	0a030463          	beq	x6,x0,0x3eb4
    3e10:	00100393          	addi	x7,x0,1
    3e14:	08730663          	beq	x6,x7,0x3ea0
    3e18:	00200613          	addi	x12,x0,2
    3e1c:	06c30a63          	beq	x6,x12,0x3e90
    3e20:	00300513          	addi	x10,x0,3
    3e24:	04a30e63          	beq	x6,x10,0x3e80
    3e28:	00400813          	addi	x16,x0,4
    3e2c:	05030263          	beq	x6,x16,0x3e70
    3e30:	00500713          	addi	x14,x0,5
    3e34:	02e30663          	beq	x6,x14,0x3e60
    3e38:	00600593          	addi	x11,x0,6
    3e3c:	00b30a63          	beq	x6,x11,0x3e50
    3e40:	00044903          	lbu	x18,0(x8)
    3e44:	00148793          	addi	x15,x9,1
    3e48:	00140413          	addi	x8,x8,1
    3e4c:	01248023          	sb	x18,0(x9)
    3e50:	00044983          	lbu	x19,0(x8)
    3e54:	00178793          	addi	x15,x15,1
    3e58:	00140413          	addi	x8,x8,1
    3e5c:	ff378fa3          	sb	x19,-1(x15)
    3e60:	00044683          	lbu	x13,0(x8)
    3e64:	00178793          	addi	x15,x15,1
    3e68:	00140413          	addi	x8,x8,1
    3e6c:	fed78fa3          	sb	x13,-1(x15)
    3e70:	00044e03          	lbu	x28,0(x8)
    3e74:	00178793          	addi	x15,x15,1
    3e78:	00140413          	addi	x8,x8,1
    3e7c:	ffc78fa3          	sb	x28,-1(x15)
    3e80:	00044e83          	lbu	x29,0(x8)
    3e84:	00178793          	addi	x15,x15,1
    3e88:	00140413          	addi	x8,x8,1
    3e8c:	ffd78fa3          	sb	x29,-1(x15)
    3e90:	00044f03          	lbu	x30,0(x8)
    3e94:	00178793          	addi	x15,x15,1
    3e98:	00140413          	addi	x8,x8,1
    3e9c:	ffe78fa3          	sb	x30,-1(x15)
    3ea0:	00044d03          	lbu	x26,0(x8)
    3ea4:	00140413          	addi	x8,x8,1
    3ea8:	00178793          	addi	x15,x15,1
    3eac:	ffa78fa3          	sb	x26,-1(x15)
    3eb0:	048a8863          	beq	x21,x8,0x3f00
    3eb4:	00044f83          	lbu	x31,0(x8)
    3eb8:	00840413          	addi	x8,x8,8
    3ebc:	00878793          	addi	x15,x15,8
    3ec0:	fff78c23          	sb	x31,-8(x15)
    3ec4:	ff944883          	lbu	x17,-7(x8)
    3ec8:	ff178ca3          	sb	x17,-7(x15)
    3ecc:	ffa44283          	lbu	x5,-6(x8)
    3ed0:	fe578d23          	sb	x5,-6(x15)
    3ed4:	ffb44303          	lbu	x6,-5(x8)
    3ed8:	fe678da3          	sb	x6,-5(x15)
    3edc:	ffc44383          	lbu	x7,-4(x8)
    3ee0:	fe778e23          	sb	x7,-4(x15)
    3ee4:	ffd44603          	lbu	x12,-3(x8)
    3ee8:	fec78ea3          	sb	x12,-3(x15)
    3eec:	ffe44503          	lbu	x10,-2(x8)
    3ef0:	fea78f23          	sb	x10,-2(x15)
    3ef4:	fff44803          	lbu	x16,-1(x8)
    3ef8:	ff078fa3          	sb	x16,-1(x15)
    3efc:	fa8a9ce3          	bne	x21,x8,0x3eb4
    3f00:	01948cb3          	add	x25,x9,x25
    3f04:	01b48433          	add	x8,x9,x27
    3f08:	340b0263          	beq	x22,x0,0x424c
    3f0c:	01ba2023          	sw	x27,0(x20)
    3f10:	349ce463          	bltu	x25,x9,0x4258
    3f14:	05048a93          	addi	x21,x9,80
    3f18:	1e8cea63          	bltu	x25,x8,0x410c
    3f1c:	408a8db3          	sub	x27,x21,x8
    3f20:	00019737          	lui	x14,0x19
    3f24:	003dfd13          	andi	x26,x27,3
    3f28:	ba072903          	lw	x18,-1120(x14) # 0x18ba0
    3f2c:	ba472983          	lw	x19,-1116(x14)
    3f30:	0c0d0c63          	beq	x26,x0,0x4008
    3f34:	1d547c63          	bgeu	x8,x21,0x410c
    3f38:	00098693          	addi	x13,x19,0
    3f3c:	000b8513          	addi	x10,x23,0
    3f40:	000c0593          	addi	x11,x24,0
    3f44:	00090613          	addi	x12,x18,0
    3f48:	37d020ef          	jal	x1,0x6ac4
    3f4c:	01810613          	addi	x12,x2,24
    3f50:	55c040ef          	jal	x1,0x84ac
    3f54:	00050b93          	addi	x23,x10,0
    3f58:	00058c13          	addi	x24,x11,0
    3f5c:	01812503          	lw	x10,24(x2)
    3f60:	01c12583          	lw	x11,28(x2)
    3f64:	00140413          	addi	x8,x8,1
    3f68:	0a5030ef          	jal	x1,0x780c
    3f6c:	03050593          	addi	x11,x10,48
    3f70:	feb40fa3          	sb	x11,-1(x8)
    3f74:	188cec63          	bltu	x25,x8,0x410c
    3f78:	00100693          	addi	x13,x0,1
    3f7c:	08dd0663          	beq	x26,x13,0x4008
    3f80:	00200e13          	addi	x28,x0,2
    3f84:	05cd0263          	beq	x26,x28,0x3fc8
    3f88:	00098693          	addi	x13,x19,0
    3f8c:	000b8513          	addi	x10,x23,0
    3f90:	000c0593          	addi	x11,x24,0
    3f94:	00090613          	addi	x12,x18,0
    3f98:	32d020ef          	jal	x1,0x6ac4
    3f9c:	01810613          	addi	x12,x2,24
    3fa0:	50c040ef          	jal	x1,0x84ac
    3fa4:	00050b93          	addi	x23,x10,0
    3fa8:	00058c13          	addi	x24,x11,0
    3fac:	01812503          	lw	x10,24(x2)
    3fb0:	01c12583          	lw	x11,28(x2)
    3fb4:	00140413          	addi	x8,x8,1
    3fb8:	055030ef          	jal	x1,0x780c
    3fbc:	03050e93          	addi	x29,x10,48
    3fc0:	ffd40fa3          	sb	x29,-1(x8)
    3fc4:	148ce463          	bltu	x25,x8,0x410c
    3fc8:	00098693          	addi	x13,x19,0
    3fcc:	000b8513          	addi	x10,x23,0
    3fd0:	000c0593          	addi	x11,x24,0
    3fd4:	00090613          	addi	x12,x18,0
    3fd8:	2ed020ef          	jal	x1,0x6ac4
    3fdc:	01810613          	addi	x12,x2,24
    3fe0:	4cc040ef          	jal	x1,0x84ac
    3fe4:	00050b93          	addi	x23,x10,0
    3fe8:	00058c13          	addi	x24,x11,0
    3fec:	01812503          	lw	x10,24(x2)
    3ff0:	01c12583          	lw	x11,28(x2)
    3ff4:	00140413          	addi	x8,x8,1
    3ff8:	015030ef          	jal	x1,0x780c
    3ffc:	03050f13          	addi	x30,x10,48
    4000:	ffe40fa3          	sb	x30,-1(x8)
    4004:	108ce463          	bltu	x25,x8,0x410c
    4008:	000b8513          	addi	x10,x23,0
    400c:	000c0593          	addi	x11,x24,0
    4010:	00090613          	addi	x12,x18,0
    4014:	00098693          	addi	x13,x19,0
    4018:	0f547a63          	bgeu	x8,x21,0x410c
    401c:	2a9020ef          	jal	x1,0x6ac4
    4020:	01810613          	addi	x12,x2,24
    4024:	488040ef          	jal	x1,0x84ac
    4028:	00050b93          	addi	x23,x10,0
    402c:	00058c13          	addi	x24,x11,0
    4030:	01812503          	lw	x10,24(x2)
    4034:	01c12583          	lw	x11,28(x2)
    4038:	7d4030ef          	jal	x1,0x780c
    403c:	03050f93          	addi	x31,x10,48
    4040:	00140793          	addi	x15,x8,1
    4044:	fff78fa3          	sb	x31,-1(x15)
    4048:	00090613          	addi	x12,x18,0
    404c:	00098693          	addi	x13,x19,0
    4050:	000b8513          	addi	x10,x23,0
    4054:	000c0593          	addi	x11,x24,0
    4058:	0afcea63          	bltu	x25,x15,0x410c
    405c:	269020ef          	jal	x1,0x6ac4
    4060:	01810613          	addi	x12,x2,24
    4064:	448040ef          	jal	x1,0x84ac
    4068:	00050d13          	addi	x26,x10,0
    406c:	00058d93          	addi	x27,x11,0
    4070:	01812503          	lw	x10,24(x2)
    4074:	01c12583          	lw	x11,28(x2)
    4078:	794030ef          	jal	x1,0x780c
    407c:	03050893          	addi	x17,x10,48
    4080:	00240293          	addi	x5,x8,2
    4084:	ff128fa3          	sb	x17,-1(x5)
    4088:	00090613          	addi	x12,x18,0
    408c:	00098693          	addi	x13,x19,0
    4090:	000d0513          	addi	x10,x26,0
    4094:	000d8593          	addi	x11,x27,0
    4098:	065cea63          	bltu	x25,x5,0x410c
    409c:	229020ef          	jal	x1,0x6ac4
    40a0:	01810613          	addi	x12,x2,24
    40a4:	408040ef          	jal	x1,0x84ac
    40a8:	00050b93          	addi	x23,x10,0
    40ac:	00058c13          	addi	x24,x11,0
    40b0:	01812503          	lw	x10,24(x2)
    40b4:	01c12583          	lw	x11,28(x2)
    40b8:	754030ef          	jal	x1,0x780c
    40bc:	03050313          	addi	x6,x10,48
    40c0:	00340393          	addi	x7,x8,3
    40c4:	fe638fa3          	sb	x6,-1(x7)
    40c8:	00090613          	addi	x12,x18,0
    40cc:	00098693          	addi	x13,x19,0
    40d0:	000b8513          	addi	x10,x23,0
    40d4:	000c0593          	addi	x11,x24,0
    40d8:	027cea63          	bltu	x25,x7,0x410c
    40dc:	1e9020ef          	jal	x1,0x6ac4
    40e0:	01810613          	addi	x12,x2,24
    40e4:	3c8040ef          	jal	x1,0x84ac
    40e8:	00050b93          	addi	x23,x10,0
    40ec:	00058c13          	addi	x24,x11,0
    40f0:	01812503          	lw	x10,24(x2)
    40f4:	01c12583          	lw	x11,28(x2)
    40f8:	00440413          	addi	x8,x8,4
    40fc:	710030ef          	jal	x1,0x780c
    4100:	03050613          	addi	x12,x10,48
    4104:	fec40fa3          	sb	x12,-1(x8)
    4108:	f08cf0e3          	bgeu	x25,x8,0x4008
    410c:	195cf663          	bgeu	x25,x21,0x4298
    4110:	000cc503          	lbu	x10,0(x25)
    4114:	03900813          	addi	x16,x0,57
    4118:	00550713          	addi	x14,x10,5
    411c:	0ff77913          	andi	x18,x14,255
    4120:	012c8023          	sb	x18,0(x25)
    4124:	03287863          	bgeu	x16,x18,0x4154
    4128:	000c8993          	addi	x19,x25,0
    412c:	03000693          	addi	x13,x0,48
    4130:	03100593          	addi	x11,x0,49
    4134:	1334f663          	bgeu	x9,x19,0x4260
    4138:	fff9ca83          	lbu	x21,-1(x19)
    413c:	00d98023          	sb	x13,0(x19)
    4140:	fff98993          	addi	x19,x19,-1
    4144:	001a8f93          	addi	x31,x21,1
    4148:	0fffff13          	andi	x30,x31,255
    414c:	01e98023          	sb	x30,0(x19)
    4150:	ffe862e3          	bltu	x16,x30,0x4134
    4154:	000c8023          	sb	x0,0(x25)
    4158:	05c12083          	lw	x1,92(x2)
    415c:	05812403          	lw	x8,88(x2)
    4160:	05012903          	lw	x18,80(x2)
    4164:	04c12983          	lw	x19,76(x2)
    4168:	04812a03          	lw	x20,72(x2)
    416c:	04412a83          	lw	x21,68(x2)
    4170:	04012b03          	lw	x22,64(x2)
    4174:	03c12b83          	lw	x23,60(x2)
    4178:	03812c03          	lw	x24,56(x2)
    417c:	03412c83          	lw	x25,52(x2)
    4180:	03012d03          	lw	x26,48(x2)
    4184:	02c12d83          	lw	x27,44(x2)
    4188:	00048513          	addi	x10,x9,0
    418c:	05412483          	lw	x9,84(x2)
    4190:	06010113          	addi	x2,x2,96
    4194:	00008067          	jalr	x0,0(x1)
    4198:	000b8513          	addi	x10,x23,0
    419c:	000c0593          	addi	x11,x24,0
    41a0:	00000613          	addi	x12,x0,0
    41a4:	00000693          	addi	x13,x0,0
    41a8:	76c020ef          	jal	x1,0x6914
    41ac:	0ea05a63          	bge	x0,x10,0x42a0
    41b0:	00019d37          	lui	x26,0x19
    41b4:	ba0d2603          	lw	x12,-1120(x26) # 0x18ba0
    41b8:	ba4d2683          	lw	x13,-1116(x26)
    41bc:	000b8513          	addi	x10,x23,0
    41c0:	000c0593          	addi	x11,x24,0
    41c4:	101020ef          	jal	x1,0x6ac4
    41c8:	00019637          	lui	x12,0x19
    41cc:	b9c62983          	lw	x19,-1124(x12) # 0x18b9c
    41d0:	b9862903          	lw	x18,-1128(x12)
    41d4:	00050a93          	addi	x21,x10,0
    41d8:	00098693          	addi	x13,x19,0
    41dc:	00090613          	addi	x12,x18,0
    41e0:	00058413          	addi	x8,x11,0
    41e4:	009020ef          	jal	x1,0x69ec
    41e8:	00000d93          	addi	x27,x0,0
    41ec:	0e055063          	bge	x10,x0,0x42cc
    41f0:	ba0d2503          	lw	x10,-1120(x26)
    41f4:	ba4d2803          	lw	x16,-1116(x26)
    41f8:	00a12423          	sw	x10,8(x2)
    41fc:	01012623          	sw	x16,12(x2)
    4200:	00812603          	lw	x12,8(x2)
    4204:	00c12683          	lw	x13,12(x2)
    4208:	000a8513          	addi	x10,x21,0
    420c:	00040593          	addi	x11,x8,0
    4210:	0b5020ef          	jal	x1,0x6ac4
    4214:	00090613          	addi	x12,x18,0
    4218:	00098693          	addi	x13,x19,0
    421c:	000a8b93          	addi	x23,x21,0
    4220:	00040c13          	addi	x24,x8,0
    4224:	fffd8d93          	addi	x27,x27,-1
    4228:	00050a93          	addi	x21,x10,0
    422c:	00058413          	addi	x8,x11,0
    4230:	7bc020ef          	jal	x1,0x69ec
    4234:	fc0546e3          	blt	x10,x0,0x4200
    4238:	01512c23          	sw	x21,24(x2)
    423c:	00812e23          	sw	x8,28(x2)
    4240:	01948cb3          	add	x25,x9,x25
    4244:	060b1a63          	bne	x22,x0,0x42b8
    4248:	00048413          	addi	x8,x9,0
    424c:	01bc8cb3          	add	x25,x25,x27
    4250:	01ba2023          	sw	x27,0(x20)
    4254:	cc9cf0e3          	bgeu	x25,x9,0x3f14
    4258:	00048023          	sb	x0,0(x9)
    425c:	efdff06f          	jal	x0,0x4158
    4260:	00b98023          	sb	x11,0(x19)
    4264:	000a2e03          	lw	x28,0(x20)
    4268:	001e0e93          	addi	x29,x28,1
    426c:	01da2023          	sw	x29,0(x20)
    4270:	000b0863          	beq	x22,x0,0x4280
    4274:	0009cf03          	lbu	x30,0(x19)
    4278:	ebe86ee3          	bltu	x16,x30,0x4134
    427c:	ed9ff06f          	jal	x0,0x4154
    4280:	0194f463          	bgeu	x9,x25,0x4288
    4284:	00dc8023          	sb	x13,0(x25)
    4288:	0009cf03          	lbu	x30,0(x19)
    428c:	001c8c93          	addi	x25,x25,1
    4290:	ebe862e3          	bltu	x16,x30,0x4134
    4294:	ec1ff06f          	jal	x0,0x4154
    4298:	040487a3          	sb	x0,79(x9)
    429c:	ebdff06f          	jal	x0,0x4158
    42a0:	01948cb3          	add	x25,x9,x25
    42a4:	020b1c63          	bne	x22,x0,0x42dc
    42a8:	00000d93          	addi	x27,x0,0
    42ac:	00048413          	addi	x8,x9,0
    42b0:	01bc8cb3          	add	x25,x25,x27
    42b4:	f9dff06f          	jal	x0,0x4250
    42b8:	01ba2023          	sw	x27,0(x20)
    42bc:	f89ceee3          	bltu	x25,x9,0x4258
    42c0:	05048a93          	addi	x21,x9,80
    42c4:	00048413          	addi	x8,x9,0
    42c8:	c55ff06f          	jal	x0,0x3f1c
    42cc:	01512c23          	sw	x21,24(x2)
    42d0:	00812e23          	sw	x8,28(x2)
    42d4:	01948cb3          	add	x25,x9,x25
    42d8:	f60b08e3          	beq	x22,x0,0x4248
    42dc:	000a2023          	sw	x0,0(x20)
    42e0:	f69cece3          	bltu	x25,x9,0x4258
    42e4:	05048a93          	addi	x21,x9,80
    42e8:	fddff06f          	jal	x0,0x42c4
    42ec:	01948cb3          	add	x25,x9,x25
    42f0:	f40b0ce3          	beq	x22,x0,0x4248
    42f4:	01ba2023          	sw	x27,0(x20)
    42f8:	f69ce0e3          	bltu	x25,x9,0x4258
    42fc:	00048413          	addi	x8,x9,0
    4300:	c1dff06f          	jal	x0,0x3f1c
    4304:	000107b7          	lui	x15,0x10
    4308:	01878793          	addi	x15,x15,24 # 0x10018
    430c:	00100813          	addi	x16,x0,1
    4310:	985ff06f          	jal	x0,0x3c94
    4314:	00100813          	addi	x16,x0,1
    4318:	97dff06f          	jal	x0,0x3c94
    431c:	000107b7          	lui	x15,0x10
    4320:	01878793          	addi	x15,x15,24 # 0x10018
    4324:	00000813          	addi	x16,x0,0
    4328:	96dff06f          	jal	x0,0x3c94
    432c:	00000813          	addi	x16,x0,0
    4330:	965ff06f          	jal	x0,0x3c94
    4334:	f7010113          	addi	x2,x2,-144
    4338:	08112623          	sw	x1,140(x2)
    433c:	08812423          	sw	x8,136(x2)
    4340:	08912223          	sw	x9,132(x2)
    4344:	09212023          	sw	x18,128(x2)
    4348:	07312e23          	sw	x19,124(x2)
    434c:	0407f313          	andi	x6,x15,64
    4350:	00050f13          	addi	x30,x10,0
    4354:	00060893          	addi	x17,x12,0
    4358:	24031e63          	bne	x6,x0,0x45b4
    435c:	00019eb7          	lui	x29,0x19
    4360:	0107f393          	andi	x7,x15,16
    4364:	b40e8493          	addi	x9,x29,-1216 # 0x18b40
    4368:	24039e63          	bne	x7,x0,0x45c4
    436c:	0017f513          	andi	x10,x15,1
    4370:	fff50f93          	addi	x31,x10,-1
    4374:	ff0ff413          	andi	x8,x31,-16
    4378:	0027f613          	andi	x12,x15,2
    437c:	03040f93          	addi	x31,x8,48
    4380:	0207f293          	andi	x5,x15,32
    4384:	24060c63          	beq	x12,x0,0x45dc
    4388:	3405c863          	blt	x11,x0,0x46d8
    438c:	0047f813          	andi	x16,x15,4
    4390:	30081663          	bne	x16,x0,0x469c
    4394:	0087f793          	andi	x15,x15,8
    4398:	00000993          	addi	x19,x0,0
    439c:	00078663          	beq	x15,x0,0x43a8
    43a0:	fff68693          	addi	x13,x13,-1
    43a4:	02000993          	addi	x19,x0,32
    43a8:	00028e63          	beq	x5,x0,0x43c4
    43ac:	01000913          	addi	x18,x0,16
    43b0:	35288863          	beq	x17,x18,0x4700
    43b4:	ff888e13          	addi	x28,x17,-8
    43b8:	001e3313          	sltiu	x6,x28,1
    43bc:	406686b3          	sub	x13,x13,x6
    43c0:	02000293          	addi	x5,x0,32
    43c4:	28059463          	bne	x11,x0,0x464c
    43c8:	03000593          	addi	x11,x0,48
    43cc:	02b10623          	sb	x11,44(x2)
    43d0:	00000413          	addi	x8,x0,0
    43d4:	00100793          	addi	x15,x0,1
    43d8:	02c10913          	addi	x18,x2,44
    43dc:	00078313          	addi	x6,x15,0
    43e0:	00e7d463          	bge	x15,x14,0x43e8
    43e4:	00070313          	addi	x6,x14,0
    43e8:	406684b3          	sub	x9,x13,x6
    43ec:	1e051e63          	bne	x10,x0,0x45e8
    43f0:	1e905a63          	bge	x0,x9,0x45e4
    43f4:	000f0513          	addi	x10,x30,0
    43f8:	00048613          	addi	x12,x9,0
    43fc:	02000593          	addi	x11,x0,32
    4400:	00e12e23          	sw	x14,28(x2)
    4404:	01112c23          	sw	x17,24(x2)
    4408:	01f12a23          	sw	x31,20(x2)
    440c:	00612623          	sw	x6,12(x2)
    4410:	00f12423          	sw	x15,8(x2)
    4414:	00712223          	sw	x7,4(x2)
    4418:	00512823          	sw	x5,16(x2)
    441c:	594010ef          	jal	x1,0x59b0
    4420:	00412383          	lw	x7,4(x2)
    4424:	00812783          	lw	x15,8(x2)
    4428:	00c12303          	lw	x6,12(x2)
    442c:	01012683          	lw	x13,16(x2)
    4430:	01412f83          	lw	x31,20(x2)
    4434:	01812883          	lw	x17,24(x2)
    4438:	01c12703          	lw	x14,28(x2)
    443c:	00950f33          	add	x30,x10,x9
    4440:	24099063          	bne	x19,x0,0x4680
    4444:	00068a63          	beq	x13,x0,0x4458
    4448:	00800493          	addi	x9,x0,8
    444c:	2e988463          	beq	x17,x9,0x4734
    4450:	01000513          	addi	x10,x0,16
    4454:	26a88463          	beq	x17,x10,0x46bc
    4458:	007035b3          	sltu	x11,x0,x7
    445c:	ffe58493          	addi	x9,x11,-2
    4460:	00e7de63          	bge	x15,x14,0x447c
    4464:	40f309b3          	sub	x19,x6,x15
    4468:	000f0513          	addi	x10,x30,0
    446c:	00098613          	addi	x12,x19,0
    4470:	03000593          	addi	x11,x0,48
    4474:	53c010ef          	jal	x1,0x59b0
    4478:	01350f33          	add	x30,x10,x19
    447c:	00140713          	addi	x14,x8,1
    4480:	00777393          	andi	x7,x14,7
    4484:	008907b3          	add	x15,x18,x8
    4488:	000f0713          	addi	x14,x30,0
    448c:	fff90913          	addi	x18,x18,-1
    4490:	08038c63          	beq	x7,x0,0x4528
    4494:	00100693          	addi	x13,x0,1
    4498:	06d38e63          	beq	x7,x13,0x4514
    449c:	00200f93          	addi	x31,x0,2
    44a0:	07f38263          	beq	x7,x31,0x4504
    44a4:	00300893          	addi	x17,x0,3
    44a8:	05138663          	beq	x7,x17,0x44f4
    44ac:	00400513          	addi	x10,x0,4
    44b0:	02a38a63          	beq	x7,x10,0x44e4
    44b4:	00500593          	addi	x11,x0,5
    44b8:	00b38e63          	beq	x7,x11,0x44d4
    44bc:	00600293          	addi	x5,x0,6
    44c0:	1e539463          	bne	x7,x5,0x46a8
    44c4:	0007ce03          	lbu	x28,0(x15)
    44c8:	00170713          	addi	x14,x14,1
    44cc:	fff78793          	addi	x15,x15,-1
    44d0:	ffc70fa3          	sb	x28,-1(x14)
    44d4:	0007c803          	lbu	x16,0(x15)
    44d8:	00170713          	addi	x14,x14,1
    44dc:	fff78793          	addi	x15,x15,-1
    44e0:	ff070fa3          	sb	x16,-1(x14)
    44e4:	0007ce83          	lbu	x29,0(x15)
    44e8:	00170713          	addi	x14,x14,1
    44ec:	fff78793          	addi	x15,x15,-1
    44f0:	ffd70fa3          	sb	x29,-1(x14)
    44f4:	0007c303          	lbu	x6,0(x15)
    44f8:	00170713          	addi	x14,x14,1
    44fc:	fff78793          	addi	x15,x15,-1
    4500:	fe670fa3          	sb	x6,-1(x14)
    4504:	0007c983          	lbu	x19,0(x15)
    4508:	00170713          	addi	x14,x14,1
    450c:	fff78793          	addi	x15,x15,-1
    4510:	ff370fa3          	sb	x19,-1(x14)
    4514:	0007c383          	lbu	x7,0(x15)
    4518:	fff78793          	addi	x15,x15,-1
    451c:	00170713          	addi	x14,x14,1
    4520:	fe770fa3          	sb	x7,-1(x14)
    4524:	04f90863          	beq	x18,x15,0x4574
    4528:	0007cf83          	lbu	x31,0(x15)
    452c:	fff7c283          	lbu	x5,-1(x15)
    4530:	ffe7ce03          	lbu	x28,-2(x15)
    4534:	ffd7c883          	lbu	x17,-3(x15)
    4538:	ffc7c503          	lbu	x10,-4(x15)
    453c:	ffb7c583          	lbu	x11,-5(x15)
    4540:	ffa7c603          	lbu	x12,-6(x15)
    4544:	ff97c683          	lbu	x13,-7(x15)
    4548:	01f70023          	sb	x31,0(x14)
    454c:	005700a3          	sb	x5,1(x14)
    4550:	01c70123          	sb	x28,2(x14)
    4554:	011701a3          	sb	x17,3(x14)
    4558:	00a70223          	sb	x10,4(x14)
    455c:	00b702a3          	sb	x11,5(x14)
    4560:	00c70323          	sb	x12,6(x14)
    4564:	ff878793          	addi	x15,x15,-8
    4568:	00d703a3          	sb	x13,7(x14)
    456c:	00870713          	addi	x14,x14,8
    4570:	faf91ce3          	bne	x18,x15,0x4528
    4574:	00140413          	addi	x8,x8,1
    4578:	008f0933          	add	x18,x30,x8
    457c:	00905c63          	bge	x0,x9,0x4594
    4580:	00090513          	addi	x10,x18,0
    4584:	00048613          	addi	x12,x9,0
    4588:	02000593          	addi	x11,x0,32
    458c:	424010ef          	jal	x1,0x59b0
    4590:	00990933          	add	x18,x18,x9
    4594:	08c12083          	lw	x1,140(x2)
    4598:	08812403          	lw	x8,136(x2)
    459c:	08412483          	lw	x9,132(x2)
    45a0:	07c12983          	lw	x19,124(x2)
    45a4:	00090513          	addi	x10,x18,0
    45a8:	08012903          	lw	x18,128(x2)
    45ac:	09010113          	addi	x2,x2,144
    45b0:	00008067          	jalr	x0,0(x1)
    45b4:	000192b7          	lui	x5,0x19
    45b8:	0107f393          	andi	x7,x15,16
    45bc:	b6828493          	addi	x9,x5,-1176 # 0x18b68
    45c0:	da0386e3          	beq	x7,x0,0x436c
    45c4:	ffe7f793          	andi	x15,x15,-2
    45c8:	0027f613          	andi	x12,x15,2
    45cc:	01000513          	addi	x10,x0,16
    45d0:	02000f93          	addi	x31,x0,32
    45d4:	0207f293          	andi	x5,x15,32
    45d8:	da0618e3          	bne	x12,x0,0x4388
    45dc:	00000993          	addi	x19,x0,0
    45e0:	dc9ff06f          	jal	x0,0x43a8
    45e4:	fff48493          	addi	x9,x9,-1
    45e8:	00098663          	beq	x19,x0,0x45f4
    45ec:	013f0023          	sb	x19,0(x30)
    45f0:	001f0f13          	addi	x30,x30,1
    45f4:	00028a63          	beq	x5,x0,0x4608
    45f8:	00800293          	addi	x5,x0,8
    45fc:	10588863          	beq	x17,x5,0x470c
    4600:	01000613          	addi	x12,x0,16
    4604:	0ac88e63          	beq	x17,x12,0x46c0
    4608:	e4039ce3          	bne	x7,x0,0x4460
    460c:	14905463          	bge	x0,x9,0x4754
    4610:	00048613          	addi	x12,x9,0
    4614:	000f0513          	addi	x10,x30,0
    4618:	000f8593          	addi	x11,x31,0
    461c:	00e12623          	sw	x14,12(x2)
    4620:	00612423          	sw	x6,8(x2)
    4624:	00f12223          	sw	x15,4(x2)
    4628:	388010ef          	jal	x1,0x59b0
    462c:	00950f33          	add	x30,x10,x9
    4630:	00412783          	lw	x15,4(x2)
    4634:	00812303          	lw	x6,8(x2)
    4638:	00c12703          	lw	x14,12(x2)
    463c:	fff00493          	addi	x9,x0,-1
    4640:	e21ff06f          	jal	x0,0x4460
    4644:	fff68693          	addi	x13,x13,-1
    4648:	02d00993          	addi	x19,x0,45
    464c:	00000793          	addi	x15,x0,0
    4650:	02c10913          	addi	x18,x2,44
    4654:	0315f633          	remu	x12,x11,x17
    4658:	00078413          	addi	x8,x15,0
    465c:	00178793          	addi	x15,x15,1
    4660:	00f90e33          	add	x28,x18,x15
    4664:	00058313          	addi	x6,x11,0
    4668:	00c48833          	add	x16,x9,x12
    466c:	00084e83          	lbu	x29,0(x16)
    4670:	0315d5b3          	divu	x11,x11,x17
    4674:	ffde0fa3          	sb	x29,-1(x28)
    4678:	fd137ee3          	bgeu	x6,x17,0x4654
    467c:	d61ff06f          	jal	x0,0x43dc
    4680:	013f0023          	sb	x19,0(x30)
    4684:	001f0f13          	addi	x30,x30,1
    4688:	08069a63          	bne	x13,x0,0x471c
    468c:	ffe00493          	addi	x9,x0,-2
    4690:	dc0388e3          	beq	x7,x0,0x4460
    4694:	fff00493          	addi	x9,x0,-1
    4698:	dc9ff06f          	jal	x0,0x4460
    469c:	fff68693          	addi	x13,x13,-1
    46a0:	02b00993          	addi	x19,x0,43
    46a4:	d05ff06f          	jal	x0,0x43a8
    46a8:	0007c603          	lbu	x12,0(x15)
    46ac:	001f0713          	addi	x14,x30,1
    46b0:	fff78793          	addi	x15,x15,-1
    46b4:	00cf0023          	sb	x12,0(x30)
    46b8:	e0dff06f          	jal	x0,0x44c4
    46bc:	fff00493          	addi	x9,x0,-1
    46c0:	03000e13          	addi	x28,x0,48
    46c4:	07800813          	addi	x16,x0,120
    46c8:	01cf0023          	sb	x28,0(x30)
    46cc:	010f00a3          	sb	x16,1(x30)
    46d0:	002f0f13          	addi	x30,x30,2
    46d4:	f35ff06f          	jal	x0,0x4608
    46d8:	40b005b3          	sub	x11,x0,x11
    46dc:	f60284e3          	beq	x5,x0,0x4644
    46e0:	01000993          	addi	x19,x0,16
    46e4:	07388063          	beq	x17,x19,0x4744
    46e8:	00800e93          	addi	x29,x0,8
    46ec:	03d88c63          	beq	x17,x29,0x4724
    46f0:	fff68693          	addi	x13,x13,-1
    46f4:	02d00993          	addi	x19,x0,45
    46f8:	02000293          	addi	x5,x0,32
    46fc:	f51ff06f          	jal	x0,0x464c
    4700:	ffe68693          	addi	x13,x13,-2
    4704:	02000293          	addi	x5,x0,32
    4708:	cbdff06f          	jal	x0,0x43c4
    470c:	03000e93          	addi	x29,x0,48
    4710:	01df0023          	sb	x29,0(x30)
    4714:	001f0f13          	addi	x30,x30,1
    4718:	ef1ff06f          	jal	x0,0x4608
    471c:	fff00493          	addi	x9,x0,-1
    4720:	ed9ff06f          	jal	x0,0x45f8
    4724:	ffe68693          	addi	x13,x13,-2
    4728:	02d00993          	addi	x19,x0,45
    472c:	02000293          	addi	x5,x0,32
    4730:	f1dff06f          	jal	x0,0x464c
    4734:	03000993          	addi	x19,x0,48
    4738:	013f0023          	sb	x19,0(x30)
    473c:	001f0f13          	addi	x30,x30,1
    4740:	f4dff06f          	jal	x0,0x468c
    4744:	ffd68693          	addi	x13,x13,-3
    4748:	02d00993          	addi	x19,x0,45
    474c:	02000293          	addi	x5,x0,32
    4750:	efdff06f          	jal	x0,0x464c
    4754:	fff48493          	addi	x9,x9,-1
    4758:	d09ff06f          	jal	x0,0x4460
    475c:	ad010113          	addi	x2,x2,-1328
    4760:	4f612823          	sw	x22,1264(x2)
    4764:	50112623          	sw	x1,1292(x2)
    4768:	50912223          	sw	x9,1284(x2)
    476c:	4f412c23          	sw	x20,1272(x2)
    4770:	50b12a23          	sw	x11,1300(x2)
    4774:	50c12c23          	sw	x12,1304(x2)
    4778:	50d12e23          	sw	x13,1308(x2)
    477c:	52e12023          	sw	x14,1312(x2)
    4780:	52f12223          	sw	x15,1316(x2)
    4784:	53012423          	sw	x16,1320(x2)
    4788:	53112623          	sw	x17,1324(x2)
    478c:	00054303          	lbu	x6,0(x10)
    4790:	51410b13          	addi	x22,x2,1300
    4794:	03612223          	sw	x22,36(x2)
    4798:	2e030ee3          	beq	x6,x0,0x5294
    479c:	4f712623          	sw	x23,1260(x2)
    47a0:	0d010493          	addi	x9,x2,208
    47a4:	00018bb7          	lui	x23,0x18
    47a8:	51212023          	sw	x18,1280(x2)
    47ac:	4f312e23          	sw	x19,1276(x2)
    47b0:	4f512a23          	sw	x21,1268(x2)
    47b4:	4f812423          	sw	x24,1256(x2)
    47b8:	50812423          	sw	x8,1288(x2)
    47bc:	4f912223          	sw	x25,1252(x2)
    47c0:	4fa12023          	sw	x26,1248(x2)
    47c4:	00050e93          	addi	x29,x10,0
    47c8:	00048a13          	addi	x20,x9,0
    47cc:	2f8b8b93          	addi	x23,x23,760 # 0x182f8
    47d0:	02500c13          	addi	x24,x0,37
    47d4:	01000a93          	addi	x21,x0,16
    47d8:	00900993          	addi	x19,x0,9
    47dc:	02e00913          	addi	x18,x0,46
    47e0:	09830063          	beq	x6,x24,0x4860
    47e4:	006a0023          	sb	x6,0(x20)
    47e8:	001ec303          	lbu	x6,1(x29)
    47ec:	001a0a13          	addi	x20,x20,1
    47f0:	001e8e93          	addi	x29,x29,1
    47f4:	fe0316e3          	bne	x6,x0,0x47e0
    47f8:	50812403          	lw	x8,1288(x2)
    47fc:	50012903          	lw	x18,1280(x2)
    4800:	4fc12983          	lw	x19,1276(x2)
    4804:	4f412a83          	lw	x21,1268(x2)
    4808:	4ec12b83          	lw	x23,1260(x2)
    480c:	4e812c03          	lw	x24,1256(x2)
    4810:	4e412c83          	lw	x25,1252(x2)
    4814:	4e012d03          	lw	x26,1248(x2)
    4818:	000a0023          	sb	x0,0(x20)
    481c:	0d014703          	lbu	x14,208(x2)
    4820:	24070ce3          	beq	x14,x0,0x5278
    4824:	00048593          	addi	x11,x9,0
    4828:	70000b37          	lui	x22,0x70000
    482c:	00058693          	addi	x13,x11,0
    4830:	00eb0023          	sb	x14,0(x22) # 0x70000000
    4834:	0015c703          	lbu	x14,1(x11)
    4838:	00158593          	addi	x11,x11,1
    483c:	fe0718e3          	bne	x14,x0,0x482c
    4840:	50c12083          	lw	x1,1292(x2)
    4844:	409684b3          	sub	x9,x13,x9
    4848:	4f812a03          	lw	x20,1272(x2)
    484c:	4f012b03          	lw	x22,1264(x2)
    4850:	00148513          	addi	x10,x9,1
    4854:	50412483          	lw	x9,1284(x2)
    4858:	53010113          	addi	x2,x2,1328
    485c:	00008067          	jalr	x0,0(x1)
    4860:	00000793          	addi	x15,x0,0
    4864:	001ec603          	lbu	x12,1(x29)
    4868:	001e8413          	addi	x8,x29,1
    486c:	fe060713          	addi	x14,x12,-32
    4870:	0ff77293          	andi	x5,x14,255
    4874:	005aea63          	bltu	x21,x5,0x4888
    4878:	00229393          	slli	x7,x5,0x2
    487c:	01738533          	add	x10,x7,x23
    4880:	00052583          	lw	x11,0(x10)
    4884:	00058067          	jalr	x0,0(x11)
    4888:	fd060693          	addi	x13,x12,-48
    488c:	0ff6f813          	andi	x16,x13,255
    4890:	1109f463          	bgeu	x19,x16,0x4998
    4894:	02a00893          	addi	x17,x0,42
    4898:	fff00c93          	addi	x25,x0,-1
    489c:	13160863          	beq	x12,x17,0x49cc
    48a0:	fff00813          	addi	x16,x0,-1
    48a4:	0d260463          	beq	x12,x18,0x496c
    48a8:	0df67513          	andi	x10,x12,223
    48ac:	04c00593          	addi	x11,x0,76
    48b0:	08b51a63          	bne	x10,x11,0x4944
    48b4:	00060293          	addi	x5,x12,0
    48b8:	00144603          	lbu	x12,1(x8)
    48bc:	03700393          	addi	x7,x0,55
    48c0:	00140d13          	addi	x26,x8,1
    48c4:	fbf60713          	addi	x14,x12,-65
    48c8:	0ff77513          	andi	x10,x14,255
    48cc:	04a3ec63          	bltu	x7,x10,0x4924
    48d0:	000185b7          	lui	x11,0x18
    48d4:	00251893          	slli	x17,x10,0x2
    48d8:	33c58693          	addi	x13,x11,828 # 0x1833c
    48dc:	00d88333          	add	x6,x17,x13
    48e0:	00032e03          	lw	x28,0(x6) # 0x80000000
    48e4:	000e0067          	jalr	x0,0(x28)
    48e8:	0017e793          	ori	x15,x15,1
    48ec:	00040e93          	addi	x29,x8,0
    48f0:	f75ff06f          	jal	x0,0x4864
    48f4:	0107e793          	ori	x15,x15,16
    48f8:	00040e93          	addi	x29,x8,0
    48fc:	f69ff06f          	jal	x0,0x4864
    4900:	0047e793          	ori	x15,x15,4
    4904:	00040e93          	addi	x29,x8,0
    4908:	f5dff06f          	jal	x0,0x4864
    490c:	0207e793          	ori	x15,x15,32
    4910:	00040e93          	addi	x29,x8,0
    4914:	f51ff06f          	jal	x0,0x4864
    4918:	0087e793          	ori	x15,x15,8
    491c:	00040e93          	addi	x29,x8,0
    4920:	f45ff06f          	jal	x0,0x4864
    4924:	000d0413          	addi	x8,x26,0
    4928:	02500393          	addi	x7,x0,37
    492c:	14760e63          	beq	x12,x7,0x4a88
    4930:	007a0023          	sb	x7,0(x20)
    4934:	00044283          	lbu	x5,0(x8)
    4938:	001a0a13          	addi	x20,x20,1
    493c:	ea028ee3          	beq	x5,x0,0x47f8
    4940:	14c0006f          	jal	x0,0x4a8c
    4944:	fbf60693          	addi	x13,x12,-65
    4948:	0ff6f893          	andi	x17,x13,255
    494c:	03700313          	addi	x6,x0,55
    4950:	fd136ce3          	bltu	x6,x17,0x4928
    4954:	00018d37          	lui	x26,0x18
    4958:	00289e13          	slli	x28,x17,0x2
    495c:	41cd0e93          	addi	x29,x26,1052 # 0x1841c
    4960:	01de0f33          	add	x30,x28,x29
    4964:	000f2f83          	lw	x31,0(x30)
    4968:	000f8067          	jalr	x0,0(x31)
    496c:	00144603          	lbu	x12,1(x8)
    4970:	00900293          	addi	x5,x0,9
    4974:	00140d13          	addi	x26,x8,1
    4978:	fd060713          	addi	x14,x12,-48
    497c:	0ff77393          	andi	x7,x14,255
    4980:	0a72f463          	bgeu	x5,x7,0x4a28
    4984:	02a00513          	addi	x10,x0,42
    4988:	0ea60063          	beq	x12,x10,0x4a68
    498c:	000d0413          	addi	x8,x26,0
    4990:	00000813          	addi	x16,x0,0
    4994:	f15ff06f          	jal	x0,0x48a8
    4998:	00000c93          	addi	x25,x0,0
    499c:	00900313          	addi	x6,x0,9
    49a0:	002c9d13          	slli	x26,x25,0x2
    49a4:	019d0cb3          	add	x25,x26,x25
    49a8:	001c9e13          	slli	x28,x25,0x1
    49ac:	00140413          	addi	x8,x8,1
    49b0:	00ce0eb3          	add	x29,x28,x12
    49b4:	00044603          	lbu	x12,0(x8)
    49b8:	fd0e8c93          	addi	x25,x29,-48
    49bc:	fd060f13          	addi	x30,x12,-48
    49c0:	0fff7f93          	andi	x31,x30,255
    49c4:	fdf37ee3          	bgeu	x6,x31,0x49a0
    49c8:	ed9ff06f          	jal	x0,0x48a0
    49cc:	000b2c83          	lw	x25,0(x22)
    49d0:	002ec603          	lbu	x12,2(x29)
    49d4:	002e8413          	addi	x8,x29,2
    49d8:	000cc663          	blt	x25,x0,0x49e4
    49dc:	004b0b13          	addi	x22,x22,4
    49e0:	ec1ff06f          	jal	x0,0x48a0
    49e4:	41900cb3          	sub	x25,x0,x25
    49e8:	0107e793          	ori	x15,x15,16
    49ec:	004b0b13          	addi	x22,x22,4
    49f0:	eb1ff06f          	jal	x0,0x48a0
    49f4:	00040d13          	addi	x26,x8,0
    49f8:	00a00613          	addi	x12,x0,10
    49fc:	000b2583          	lw	x11,0(x22)
    4a00:	004b0b13          	addi	x22,x22,4
    4a04:	000a0513          	addi	x10,x20,0
    4a08:	00080713          	addi	x14,x16,0
    4a0c:	000c8693          	addi	x13,x25,0
    4a10:	925ff0ef          	jal	x1,0x4334
    4a14:	001d4303          	lbu	x6,1(x26)
    4a18:	00050a13          	addi	x20,x10,0
    4a1c:	001d0e93          	addi	x29,x26,1
    4a20:	dc0310e3          	bne	x6,x0,0x47e0
    4a24:	dd5ff06f          	jal	x0,0x47f8
    4a28:	00000f13          	addi	x30,x0,0
    4a2c:	002f1893          	slli	x17,x30,0x2
    4a30:	01e88333          	add	x6,x17,x30
    4a34:	001d0d13          	addi	x26,x26,1
    4a38:	00131e13          	slli	x28,x6,0x1
    4a3c:	00ce0eb3          	add	x29,x28,x12
    4a40:	000d4603          	lbu	x12,0(x26)
    4a44:	fd0e8f13          	addi	x30,x29,-48
    4a48:	fd060f93          	addi	x31,x12,-48
    4a4c:	0ffff713          	andi	x14,x31,255
    4a50:	fce2fee3          	bgeu	x5,x14,0x4a2c
    4a54:	ffff4293          	xori	x5,x30,-1
    4a58:	41f2d393          	srai	x7,x5,0x1f
    4a5c:	000d0413          	addi	x8,x26,0
    4a60:	007f7833          	and	x16,x30,x7
    4a64:	e45ff06f          	jal	x0,0x48a8
    4a68:	000b2583          	lw	x11,0(x22)
    4a6c:	00244603          	lbu	x12,2(x8)
    4a70:	004b0b13          	addi	x22,x22,4
    4a74:	fff5c693          	xori	x13,x11,-1
    4a78:	41f6d813          	srai	x16,x13,0x1f
    4a7c:	0105f833          	and	x16,x11,x16
    4a80:	00240413          	addi	x8,x8,2
    4a84:	e25ff06f          	jal	x0,0x48a8
    4a88:	00044283          	lbu	x5,0(x8)
    4a8c:	005a0023          	sb	x5,0(x20)
    4a90:	00144303          	lbu	x6,1(x8)
    4a94:	001a0a13          	addi	x20,x20,1
    4a98:	00140e93          	addi	x29,x8,1
    4a9c:	d40312e3          	bne	x6,x0,0x47e0
    4aa0:	d59ff06f          	jal	x0,0x47f8
    4aa4:	06c00413          	addi	x8,x0,108
    4aa8:	0027e793          	ori	x15,x15,2
    4aac:	00a00613          	addi	x12,x0,10
    4ab0:	f48286e3          	beq	x5,x8,0x49fc
    4ab4:	00c0006f          	jal	x0,0x4ac0
    4ab8:	0027e793          	ori	x15,x15,2
    4abc:	00040d13          	addi	x26,x8,0
    4ac0:	000b2583          	lw	x11,0(x22)
    4ac4:	00a00613          	addi	x12,x0,10
    4ac8:	004b0b13          	addi	x22,x22,4
    4acc:	f39ff06f          	jal	x0,0x4a04
    4ad0:	000d0413          	addi	x8,x26,0
    4ad4:	fff00f93          	addi	x31,x0,-1
    4ad8:	01fc9663          	bne	x25,x31,0x4ae4
    4adc:	0017e793          	ori	x15,x15,1
    4ae0:	00800c93          	addi	x25,x0,8
    4ae4:	000b2583          	lw	x11,0(x22)
    4ae8:	000a0513          	addi	x10,x20,0
    4aec:	00080713          	addi	x14,x16,0
    4af0:	000c8693          	addi	x13,x25,0
    4af4:	01000613          	addi	x12,x0,16
    4af8:	83dff0ef          	jal	x1,0x4334
    4afc:	00144303          	lbu	x6,1(x8)
    4b00:	004b0b13          	addi	x22,x22,4
    4b04:	00050a13          	addi	x20,x10,0
    4b08:	00140e93          	addi	x29,x8,1
    4b0c:	cc031ae3          	bne	x6,x0,0x47e0
    4b10:	ce9ff06f          	jal	x0,0x47f8
    4b14:	00040d13          	addi	x26,x8,0
    4b18:	00800613          	addi	x12,x0,8
    4b1c:	ee1ff06f          	jal	x0,0x49fc
    4b20:	00040d13          	addi	x26,x8,0
    4b24:	01000613          	addi	x12,x0,16
    4b28:	ed5ff06f          	jal	x0,0x49fc
    4b2c:	000d0413          	addi	x8,x26,0
    4b30:	000b2703          	lw	x14,0(x22)
    4b34:	004b0b13          	addi	x22,x22,4
    4b38:	0c070ae3          	beq	x14,x0,0x540c
    4b3c:	00074603          	lbu	x12,0(x14)
    4b40:	0107f793          	andi	x15,x15,16
    4b44:	4e0600e3          	beq	x12,x0,0x5824
    4b48:	00787f93          	andi	x31,x16,7
    4b4c:	00070693          	addi	x13,x14,0
    4b50:	01070833          	add	x16,x14,x16
    4b54:	080f8463          	beq	x31,x0,0x4bdc
    4b58:	00174283          	lbu	x5,1(x14)
    4b5c:	00170693          	addi	x13,x14,1
    4b60:	0e028263          	beq	x5,x0,0x4c44
    4b64:	00100393          	addi	x7,x0,1
    4b68:	067f8a63          	beq	x31,x7,0x4bdc
    4b6c:	00200513          	addi	x10,x0,2
    4b70:	06af8063          	beq	x31,x10,0x4bd0
    4b74:	00300593          	addi	x11,x0,3
    4b78:	04bf8663          	beq	x31,x11,0x4bc4
    4b7c:	00400893          	addi	x17,x0,4
    4b80:	031f8c63          	beq	x31,x17,0x4bb8
    4b84:	00500313          	addi	x6,x0,5
    4b88:	026f8263          	beq	x31,x6,0x4bac
    4b8c:	00600e13          	addi	x28,x0,6
    4b90:	01cf8863          	beq	x31,x28,0x4ba0
    4b94:	00274603          	lbu	x12,2(x14)
    4b98:	00270693          	addi	x13,x14,2
    4b9c:	0a060463          	beq	x12,x0,0x4c44
    4ba0:	0016cd03          	lbu	x26,1(x13)
    4ba4:	00168693          	addi	x13,x13,1
    4ba8:	080d0e63          	beq	x26,x0,0x4c44
    4bac:	0016ce83          	lbu	x29,1(x13)
    4bb0:	00168693          	addi	x13,x13,1
    4bb4:	080e8863          	beq	x29,x0,0x4c44
    4bb8:	0016cf03          	lbu	x30,1(x13)
    4bbc:	00168693          	addi	x13,x13,1
    4bc0:	080f0263          	beq	x30,x0,0x4c44
    4bc4:	0016cf83          	lbu	x31,1(x13)
    4bc8:	00168693          	addi	x13,x13,1
    4bcc:	060f8c63          	beq	x31,x0,0x4c44
    4bd0:	0016c283          	lbu	x5,1(x13)
    4bd4:	00168693          	addi	x13,x13,1
    4bd8:	06028663          	beq	x5,x0,0x4c44
    4bdc:	06d80663          	beq	x16,x13,0x4c48
    4be0:	0016c383          	lbu	x7,1(x13)
    4be4:	00168693          	addi	x13,x13,1
    4be8:	00068513          	addi	x10,x13,0
    4bec:	04038c63          	beq	x7,x0,0x4c44
    4bf0:	0016c583          	lbu	x11,1(x13)
    4bf4:	00168693          	addi	x13,x13,1
    4bf8:	04058663          	beq	x11,x0,0x4c44
    4bfc:	00254883          	lbu	x17,2(x10)
    4c00:	00250693          	addi	x13,x10,2
    4c04:	04088063          	beq	x17,x0,0x4c44
    4c08:	00354303          	lbu	x6,3(x10)
    4c0c:	00350693          	addi	x13,x10,3
    4c10:	02030a63          	beq	x6,x0,0x4c44
    4c14:	00454e03          	lbu	x28,4(x10)
    4c18:	00450693          	addi	x13,x10,4
    4c1c:	020e0463          	beq	x28,x0,0x4c44
    4c20:	00554603          	lbu	x12,5(x10)
    4c24:	00550693          	addi	x13,x10,5
    4c28:	00060e63          	beq	x12,x0,0x4c44
    4c2c:	00654d03          	lbu	x26,6(x10)
    4c30:	00650693          	addi	x13,x10,6
    4c34:	000d0863          	beq	x26,x0,0x4c44
    4c38:	00754e83          	lbu	x29,7(x10)
    4c3c:	00750693          	addi	x13,x10,7
    4c40:	f80e9ee3          	bne	x29,x0,0x4bdc
    4c44:	00068813          	addi	x16,x13,0
    4c48:	40e80d33          	sub	x26,x16,x14
    4c4c:	00078ae3          	beq	x15,x0,0x5460
    4c50:	11a05463          	bge	x0,x26,0x4d58
    4c54:	007d7f13          	andi	x30,x26,7
    4c58:	01a70fb3          	add	x31,x14,x26
    4c5c:	000a0793          	addi	x15,x20,0
    4c60:	0a0f0463          	beq	x30,x0,0x4d08
    4c64:	00100293          	addi	x5,x0,1
    4c68:	085f0663          	beq	x30,x5,0x4cf4
    4c6c:	00200393          	addi	x7,x0,2
    4c70:	067f0a63          	beq	x30,x7,0x4ce4
    4c74:	00300513          	addi	x10,x0,3
    4c78:	04af0e63          	beq	x30,x10,0x4cd4
    4c7c:	00400593          	addi	x11,x0,4
    4c80:	04bf0263          	beq	x30,x11,0x4cc4
    4c84:	00500893          	addi	x17,x0,5
    4c88:	031f0663          	beq	x30,x17,0x4cb4
    4c8c:	00600313          	addi	x6,x0,6
    4c90:	006f0a63          	beq	x30,x6,0x4ca4
    4c94:	00074e03          	lbu	x28,0(x14)
    4c98:	001a0793          	addi	x15,x20,1
    4c9c:	00170713          	addi	x14,x14,1
    4ca0:	01ca0023          	sb	x28,0(x20)
    4ca4:	00074603          	lbu	x12,0(x14)
    4ca8:	00178793          	addi	x15,x15,1
    4cac:	00170713          	addi	x14,x14,1
    4cb0:	fec78fa3          	sb	x12,-1(x15)
    4cb4:	00074e83          	lbu	x29,0(x14)
    4cb8:	00178793          	addi	x15,x15,1
    4cbc:	00170713          	addi	x14,x14,1
    4cc0:	ffd78fa3          	sb	x29,-1(x15)
    4cc4:	00074683          	lbu	x13,0(x14)
    4cc8:	00178793          	addi	x15,x15,1
    4ccc:	00170713          	addi	x14,x14,1
    4cd0:	fed78fa3          	sb	x13,-1(x15)
    4cd4:	00074803          	lbu	x16,0(x14)
    4cd8:	00178793          	addi	x15,x15,1
    4cdc:	00170713          	addi	x14,x14,1
    4ce0:	ff078fa3          	sb	x16,-1(x15)
    4ce4:	00074f03          	lbu	x30,0(x14)
    4ce8:	00178793          	addi	x15,x15,1
    4cec:	00170713          	addi	x14,x14,1
    4cf0:	ffe78fa3          	sb	x30,-1(x15)
    4cf4:	00074283          	lbu	x5,0(x14)
    4cf8:	00170713          	addi	x14,x14,1
    4cfc:	00178793          	addi	x15,x15,1
    4d00:	fe578fa3          	sb	x5,-1(x15)
    4d04:	04ef8863          	beq	x31,x14,0x4d54
    4d08:	00074383          	lbu	x7,0(x14)
    4d0c:	00870713          	addi	x14,x14,8
    4d10:	00878793          	addi	x15,x15,8
    4d14:	fe778c23          	sb	x7,-8(x15)
    4d18:	ff974503          	lbu	x10,-7(x14)
    4d1c:	fea78ca3          	sb	x10,-7(x15)
    4d20:	ffa74583          	lbu	x11,-6(x14)
    4d24:	feb78d23          	sb	x11,-6(x15)
    4d28:	ffb74883          	lbu	x17,-5(x14)
    4d2c:	ff178da3          	sb	x17,-5(x15)
    4d30:	ffc74303          	lbu	x6,-4(x14)
    4d34:	fe678e23          	sb	x6,-4(x15)
    4d38:	ffd74e03          	lbu	x28,-3(x14)
    4d3c:	ffc78ea3          	sb	x28,-3(x15)
    4d40:	ffe74603          	lbu	x12,-2(x14)
    4d44:	fec78f23          	sb	x12,-2(x15)
    4d48:	fff74e83          	lbu	x29,-1(x14)
    4d4c:	ffd78fa3          	sb	x29,-1(x15)
    4d50:	faef9ce3          	bne	x31,x14,0x4d08
    4d54:	01aa0a33          	add	x20,x20,x26
    4d58:	00140e93          	addi	x29,x8,1
    4d5c:	2d9d5ce3          	bge	x26,x25,0x5834
    4d60:	41ac8d33          	sub	x26,x25,x26
    4d64:	000a0513          	addi	x10,x20,0
    4d68:	000d0613          	addi	x12,x26,0
    4d6c:	02000593          	addi	x11,x0,32
    4d70:	01d12623          	sw	x29,12(x2)
    4d74:	43d000ef          	jal	x1,0x59b0
    4d78:	00144303          	lbu	x6,1(x8)
    4d7c:	00c12e83          	lw	x29,12(x2)
    4d80:	01aa0a33          	add	x20,x20,x26
    4d84:	a4031ee3          	bne	x6,x0,0x47e0
    4d88:	a71ff06f          	jal	x0,0x47f8
    4d8c:	000d0413          	addi	x8,x26,0
    4d90:	0107fe13          	andi	x28,x15,16
    4d94:	004b0d13          	addi	x26,x22,4
    4d98:	00140e93          	addi	x29,x8,1
    4d9c:	680e0063          	beq	x28,x0,0x541c
    4da0:	000b2b03          	lw	x22,0(x22)
    4da4:	00100393          	addi	x7,x0,1
    4da8:	016a0023          	sb	x22,0(x20)
    4dac:	3f93dae3          	bge	x7,x25,0x59a0
    4db0:	fffc8c93          	addi	x25,x25,-1
    4db4:	007a0533          	add	x10,x20,x7
    4db8:	000c8613          	addi	x12,x25,0
    4dbc:	02000593          	addi	x11,x0,32
    4dc0:	01d12623          	sw	x29,12(x2)
    4dc4:	3ed000ef          	jal	x1,0x59b0
    4dc8:	00144303          	lbu	x6,1(x8)
    4dcc:	00c12e83          	lw	x29,12(x2)
    4dd0:	01950a33          	add	x20,x10,x25
    4dd4:	000d0b13          	addi	x22,x26,0
    4dd8:	a00314e3          	bne	x6,x0,0x47e0
    4ddc:	a1dff06f          	jal	x0,0x47f8
    4de0:	06c00f13          	addi	x30,x0,108
    4de4:	4fe28c63          	beq	x5,x30,0x52dc
    4de8:	000b2403          	lw	x8,0(x22)
    4dec:	004b0b13          	addi	x22,x22,4
    4df0:	00044803          	lbu	x16,0(x8)
    4df4:	46080a63          	beq	x16,x0,0x5268
    4df8:	06300713          	addi	x14,x0,99
    4dfc:	5d075663          	bge	x14,x16,0x53c8
    4e00:	51eb8737          	lui	x14,0x51eb8
    4e04:	51f70693          	addi	x13,x14,1311 # 0x51eb851f
    4e08:	02d83e33          	mulhu	x28,x16,x13
    4e0c:	06400513          	addi	x10,x0,100
    4e10:	ccccd8b7          	lui	x17,0xccccd
    4e14:	ccd88393          	addi	x7,x17,-819 # 0xcccccccd
    4e18:	00019637          	lui	x12,0x19
    4e1c:	b4060893          	addi	x17,x12,-1216 # 0x18b40
    4e20:	00200693          	addi	x13,x0,2
    4e24:	005e5e93          	srli	x29,x28,0x5
    4e28:	02ae8fb3          	mul	x31,x29,x10
    4e2c:	01d885b3          	add	x11,x17,x29
    4e30:	0005cf03          	lbu	x30,0(x11)
    4e34:	09e10023          	sb	x30,128(x2)
    4e38:	41f802b3          	sub	x5,x16,x31
    4e3c:	0272b833          	mulhu	x16,x5,x7
    4e40:	00385313          	srli	x6,x16,0x3
    4e44:	00688533          	add	x10,x17,x6
    4e48:	00054383          	lbu	x7,0(x10)
    4e4c:	00231713          	slli	x14,x6,0x2
    4e50:	00670e33          	add	x28,x14,x6
    4e54:	001e1613          	slli	x12,x28,0x1
    4e58:	40c28833          	sub	x16,x5,x12
    4e5c:	087100a3          	sb	x7,129(x2)
    4e60:	010888b3          	add	x17,x17,x16
    4e64:	0008ce83          	lbu	x29,0(x17)
    4e68:	00268f33          	add	x30,x13,x2
    4e6c:	00168293          	addi	x5,x13,1
    4e70:	09df0023          	sb	x29,128(x30)
    4e74:	02e00313          	addi	x6,x0,46
    4e78:	00228533          	add	x10,x5,x2
    4e7c:	08650023          	sb	x6,128(x10)
    4e80:	00144703          	lbu	x14,1(x8)
    4e84:	00128813          	addi	x16,x5,1
    4e88:	00228393          	addi	x7,x5,2
    4e8c:	3c070663          	beq	x14,x0,0x5258
    4e90:	06300613          	addi	x12,x0,99
    4e94:	4ee65663          	bge	x12,x14,0x5380
    4e98:	51eb8337          	lui	x6,0x51eb8
    4e9c:	51f30593          	addi	x11,x6,1311 # 0x51eb851f
    4ea0:	02b73f33          	mulhu	x30,x14,x11
    4ea4:	00280633          	add	x12,x16,x2
    4ea8:	00328813          	addi	x16,x5,3
    4eac:	06400293          	addi	x5,x0,100
    4eb0:	ccccd537          	lui	x10,0xccccd
    4eb4:	ccd50893          	addi	x17,x10,-819 # 0xcccccccd
    4eb8:	000196b7          	lui	x13,0x19
    4ebc:	b4068313          	addi	x6,x13,-1216 # 0x18b40
    4ec0:	00238eb3          	add	x29,x7,x2
    4ec4:	005f5f93          	srli	x31,x30,0x5
    4ec8:	025f85b3          	mul	x11,x31,x5
    4ecc:	01f30f33          	add	x30,x6,x31
    4ed0:	000f4683          	lbu	x13,0(x30)
    4ed4:	08d60023          	sb	x13,128(x12)
    4ed8:	40b70e33          	sub	x28,x14,x11
    4edc:	031e3733          	mulhu	x14,x28,x17
    4ee0:	00375613          	srli	x12,x14,0x3
    4ee4:	00c303b3          	add	x7,x6,x12
    4ee8:	0003c283          	lbu	x5,0(x7)
    4eec:	00261513          	slli	x10,x12,0x2
    4ef0:	00c508b3          	add	x17,x10,x12
    4ef4:	00189f93          	slli	x31,x17,0x1
    4ef8:	085e8023          	sb	x5,128(x29)
    4efc:	41fe0733          	sub	x14,x28,x31
    4f00:	00e30333          	add	x6,x6,x14
    4f04:	00034e83          	lbu	x29,0(x6)
    4f08:	002806b3          	add	x13,x16,x2
    4f0c:	00180393          	addi	x7,x16,1
    4f10:	09d68023          	sb	x29,128(x13)
    4f14:	00238733          	add	x14,x7,x2
    4f18:	02e00513          	addi	x10,x0,46
    4f1c:	08a70023          	sb	x10,128(x14)
    4f20:	00244703          	lbu	x14,2(x8)
    4f24:	00138293          	addi	x5,x7,1
    4f28:	00238e93          	addi	x29,x7,2
    4f2c:	26070e63          	beq	x14,x0,0x51a8
    4f30:	06300313          	addi	x6,x0,99
    4f34:	3ae35e63          	bge	x6,x14,0x52f0
    4f38:	51eb88b7          	lui	x17,0x51eb8
    4f3c:	51f88693          	addi	x13,x17,1311 # 0x51eb851f
    4f40:	02d73633          	mulhu	x12,x14,x13
    4f44:	06400313          	addi	x6,x0,100
    4f48:	00228fb3          	add	x31,x5,x2
    4f4c:	00338293          	addi	x5,x7,3
    4f50:	ccccd3b7          	lui	x7,0xccccd
    4f54:	ccd38f13          	addi	x30,x7,-819 # 0xcccccccd
    4f58:	00019e37          	lui	x28,0x19
    4f5c:	b40e0893          	addi	x17,x28,-1216 # 0x18b40
    4f60:	002e8eb3          	add	x29,x29,x2
    4f64:	00565593          	srli	x11,x12,0x5
    4f68:	02658633          	mul	x12,x11,x6
    4f6c:	00b886b3          	add	x13,x17,x11
    4f70:	0006ce03          	lbu	x28,0(x13)
    4f74:	09cf8023          	sb	x28,128(x31)
    4f78:	40c70833          	sub	x16,x14,x12
    4f7c:	03e83733          	mulhu	x14,x16,x30
    4f80:	00375f93          	srli	x31,x14,0x3
    4f84:	01f88533          	add	x10,x17,x31
    4f88:	00054303          	lbu	x6,0(x10)
    4f8c:	002f9393          	slli	x7,x31,0x2
    4f90:	01f38f33          	add	x30,x7,x31
    4f94:	001f1593          	slli	x11,x30,0x1
    4f98:	086e8023          	sb	x6,128(x29)
    4f9c:	40b80733          	sub	x14,x16,x11
    4fa0:	00e888b3          	add	x17,x17,x14
    4fa4:	0008c603          	lbu	x12,0(x17)
    4fa8:	00128e93          	addi	x29,x5,1
    4fac:	00228e33          	add	x28,x5,x2
    4fb0:	08ce0023          	sb	x12,128(x28)
    4fb4:	02e00313          	addi	x6,x0,46
    4fb8:	002e85b3          	add	x11,x29,x2
    4fbc:	08658023          	sb	x6,128(x11)
    4fc0:	00344803          	lbu	x16,3(x8)
    4fc4:	001e8393          	addi	x7,x29,1
    4fc8:	002e8413          	addi	x8,x29,2
    4fcc:	20081263          	bne	x16,x0,0x51d0
    4fd0:	00238fb3          	add	x31,x7,x2
    4fd4:	03000813          	addi	x16,x0,48
    4fd8:	090f8023          	sb	x16,128(x31)
    4fdc:	0107f793          	andi	x15,x15,16
    4fe0:	02079263          	bne	x15,x0,0x5004
    4fe4:	079450e3          	bge	x8,x25,0x5844
    4fe8:	408c8cb3          	sub	x25,x25,x8
    4fec:	000c8613          	addi	x12,x25,0
    4ff0:	000a0513          	addi	x10,x20,0
    4ff4:	02000593          	addi	x11,x0,32
    4ff8:	019a0a33          	add	x20,x20,x25
    4ffc:	1b5000ef          	jal	x1,0x59b0
    5000:	fff40c93          	addi	x25,x8,-1
    5004:	000a0513          	addi	x10,x20,0
    5008:	00040613          	addi	x12,x8,0
    500c:	08010593          	addi	x11,x2,128
    5010:	374030ef          	jal	x1,0x8384
    5014:	008a0a33          	add	x20,x20,x8
    5018:	01945e63          	bge	x8,x25,0x5034
    501c:	408c8433          	sub	x8,x25,x8
    5020:	000a0513          	addi	x10,x20,0
    5024:	00040613          	addi	x12,x8,0
    5028:	02000593          	addi	x11,x0,32
    502c:	185000ef          	jal	x1,0x59b0
    5030:	01440a33          	add	x20,x8,x20
    5034:	001d4303          	lbu	x6,1(x26)
    5038:	001d0e93          	addi	x29,x26,1
    503c:	fa031263          	bne	x6,x0,0x47e0
    5040:	fb8ff06f          	jal	x0,0x47f8
    5044:	06c00813          	addi	x16,x0,108
    5048:	0407e793          	ori	x15,x15,64
    504c:	d9029ee3          	bne	x5,x16,0x4de8
    5050:	00019d37          	lui	x26,0x19
    5054:	000b2f03          	lw	x30,0(x22)
    5058:	b68d0313          	addi	x6,x26,-1176 # 0x18b68
    505c:	004b0b13          	addi	x22,x22,4
    5060:	000f4e83          	lbu	x29,0(x30)
    5064:	03a00593          	addi	x11,x0,58
    5068:	08b10123          	sb	x11,130(x2)
    506c:	004ed513          	srli	x10,x29,0x4
    5070:	00fef893          	andi	x17,x29,15
    5074:	00a302b3          	add	x5,x6,x10
    5078:	011306b3          	add	x13,x6,x17
    507c:	0002c703          	lbu	x14,0(x5)
    5080:	0006c603          	lbu	x12,0(x13)
    5084:	0107f393          	andi	x7,x15,16
    5088:	08e10023          	sb	x14,128(x2)
    508c:	08c100a3          	sb	x12,129(x2)
    5090:	001f4e03          	lbu	x28,1(x30)
    5094:	08b102a3          	sb	x11,133(x2)
    5098:	004e5f93          	srli	x31,x28,0x4
    509c:	00fe7813          	andi	x16,x28,15
    50a0:	01f307b3          	add	x15,x6,x31
    50a4:	01030d33          	add	x26,x6,x16
    50a8:	0007ce83          	lbu	x29,0(x15)
    50ac:	000d4503          	lbu	x10,0(x26)
    50b0:	09d101a3          	sb	x29,131(x2)
    50b4:	08a10223          	sb	x10,132(x2)
    50b8:	002f4883          	lbu	x17,2(x30)
    50bc:	08b10423          	sb	x11,136(x2)
    50c0:	0048d293          	srli	x5,x17,0x4
    50c4:	00f8f693          	andi	x13,x17,15
    50c8:	00530733          	add	x14,x6,x5
    50cc:	00d30633          	add	x12,x6,x13
    50d0:	00074e03          	lbu	x28,0(x14)
    50d4:	00064f83          	lbu	x31,0(x12)
    50d8:	09c10323          	sb	x28,134(x2)
    50dc:	09f103a3          	sb	x31,135(x2)
    50e0:	003f4803          	lbu	x16,3(x30)
    50e4:	08b105a3          	sb	x11,139(x2)
    50e8:	00485793          	srli	x15,x16,0x4
    50ec:	00f87d13          	andi	x26,x16,15
    50f0:	00f30eb3          	add	x29,x6,x15
    50f4:	01a308b3          	add	x17,x6,x26
    50f8:	000ec503          	lbu	x10,0(x29)
    50fc:	0008c283          	lbu	x5,0(x17)
    5100:	08a104a3          	sb	x10,137(x2)
    5104:	08510523          	sb	x5,138(x2)
    5108:	004f4683          	lbu	x13,4(x30)
    510c:	08b10723          	sb	x11,142(x2)
    5110:	00f6f713          	andi	x14,x13,15
    5114:	0046d593          	srli	x11,x13,0x4
    5118:	00b30633          	add	x12,x6,x11
    511c:	00e30e33          	add	x28,x6,x14
    5120:	00064f83          	lbu	x31,0(x12)
    5124:	000e4803          	lbu	x16,0(x28)
    5128:	09f10623          	sb	x31,140(x2)
    512c:	090106a3          	sb	x16,141(x2)
    5130:	005f4f03          	lbu	x30,5(x30)
    5134:	004f5793          	srli	x15,x30,0x4
    5138:	00f30d33          	add	x26,x6,x15
    513c:	000d4e83          	lbu	x29,0(x26)
    5140:	00ff7893          	andi	x17,x30,15
    5144:	01130333          	add	x6,x6,x17
    5148:	09d107a3          	sb	x29,143(x2)
    514c:	00034503          	lbu	x10,0(x6)
    5150:	08a10823          	sb	x10,144(x2)
    5154:	14039863          	bne	x7,x0,0x52a4
    5158:	01100d13          	addi	x26,x0,17
    515c:	159d5263          	bge	x26,x25,0x52a0
    5160:	fefc8c93          	addi	x25,x25,-17
    5164:	000c8613          	addi	x12,x25,0
    5168:	02000593          	addi	x11,x0,32
    516c:	000a0513          	addi	x10,x20,0
    5170:	041000ef          	jal	x1,0x59b0
    5174:	019a0a33          	add	x20,x20,x25
    5178:	000a0513          	addi	x10,x20,0
    517c:	000d0613          	addi	x12,x26,0
    5180:	08010593          	addi	x11,x2,128
    5184:	200030ef          	jal	x1,0x8384
    5188:	011a0a13          	addi	x20,x20,17
    518c:	00244303          	lbu	x6,2(x8)
    5190:	00240e93          	addi	x29,x8,2
    5194:	e4031663          	bne	x6,x0,0x47e0
    5198:	e60ff06f          	jal	x0,0x47f8
    519c:	0407e793          	ori	x15,x15,64
    51a0:	01000613          	addi	x12,x0,16
    51a4:	859ff06f          	jal	x0,0x49fc
    51a8:	00228fb3          	add	x31,x5,x2
    51ac:	03000513          	addi	x10,x0,48
    51b0:	08af8023          	sb	x10,128(x31)
    51b4:	02e00313          	addi	x6,x0,46
    51b8:	002e85b3          	add	x11,x29,x2
    51bc:	08658023          	sb	x6,128(x11)
    51c0:	00344803          	lbu	x16,3(x8)
    51c4:	001e8393          	addi	x7,x29,1
    51c8:	002e8413          	addi	x8,x29,2
    51cc:	e00802e3          	beq	x16,x0,0x4fd0
    51d0:	06300713          	addi	x14,x0,99
    51d4:	17075263          	bge	x14,x16,0x5338
    51d8:	51eb86b7          	lui	x13,0x51eb8
    51dc:	51f68e13          	addi	x28,x13,1311 # 0x51eb851f
    51e0:	03c83fb3          	mulhu	x31,x16,x28
    51e4:	00238f33          	add	x30,x7,x2
    51e8:	00240733          	add	x14,x8,x2
    51ec:	003e8393          	addi	x7,x29,3
    51f0:	06400e93          	addi	x29,x0,100
    51f4:	ccccd5b7          	lui	x11,0xccccd
    51f8:	ccd58893          	addi	x17,x11,-819 # 0xcccccccd
    51fc:	000192b7          	lui	x5,0x19
    5200:	b4028293          	addi	x5,x5,-1216 # 0x18b40
    5204:	005fd413          	srli	x8,x31,0x5
    5208:	03d40633          	mul	x12,x8,x29
    520c:	008286b3          	add	x13,x5,x8
    5210:	0006ce03          	lbu	x28,0(x13)
    5214:	09cf0023          	sb	x28,128(x30)
    5218:	40c80fb3          	sub	x31,x16,x12
    521c:	031fb833          	mulhu	x16,x31,x17
    5220:	00385313          	srli	x6,x16,0x3
    5224:	00628533          	add	x10,x5,x6
    5228:	00054f03          	lbu	x30,0(x10)
    522c:	00231e93          	slli	x29,x6,0x2
    5230:	006e85b3          	add	x11,x29,x6
    5234:	00159893          	slli	x17,x11,0x1
    5238:	09e70023          	sb	x30,128(x14)
    523c:	411f8833          	sub	x16,x31,x17
    5240:	010282b3          	add	x5,x5,x16
    5244:	0002c683          	lbu	x13,0(x5)
    5248:	00238633          	add	x12,x7,x2
    524c:	00138413          	addi	x8,x7,1
    5250:	08d60023          	sb	x13,128(x12)
    5254:	d89ff06f          	jal	x0,0x4fdc
    5258:	00280633          	add	x12,x16,x2
    525c:	03000293          	addi	x5,x0,48
    5260:	08560023          	sb	x5,128(x12)
    5264:	cb1ff06f          	jal	x0,0x4f14
    5268:	03000693          	addi	x13,x0,48
    526c:	08d10023          	sb	x13,128(x2)
    5270:	00100293          	addi	x5,x0,1
    5274:	c01ff06f          	jal	x0,0x4e74
    5278:	50c12083          	lw	x1,1292(x2)
    527c:	50412483          	lw	x9,1284(x2)
    5280:	4f812a03          	lw	x20,1272(x2)
    5284:	4f012b03          	lw	x22,1264(x2)
    5288:	00000513          	addi	x10,x0,0
    528c:	53010113          	addi	x2,x2,1328
    5290:	00008067          	jalr	x0,0(x1)
    5294:	0d010493          	addi	x9,x2,208
    5298:	00048a13          	addi	x20,x9,0
    529c:	d7cff06f          	jal	x0,0x4818
    52a0:	fffc8c93          	addi	x25,x25,-1
    52a4:	01100d13          	addi	x26,x0,17
    52a8:	000a0513          	addi	x10,x20,0
    52ac:	000d0613          	addi	x12,x26,0
    52b0:	08010593          	addi	x11,x2,128
    52b4:	0d0030ef          	jal	x1,0x8384
    52b8:	01aa0a33          	add	x20,x20,x26
    52bc:	ed9d58e3          	bge	x26,x25,0x518c
    52c0:	fefc8c93          	addi	x25,x25,-17
    52c4:	000a0513          	addi	x10,x20,0
    52c8:	000c8613          	addi	x12,x25,0
    52cc:	02000593          	addi	x11,x0,32
    52d0:	6e0000ef          	jal	x1,0x59b0
    52d4:	014c8a33          	add	x20,x25,x20
    52d8:	eb5ff06f          	jal	x0,0x518c
    52dc:	000192b7          	lui	x5,0x19
    52e0:	000b2f03          	lw	x30,0(x22)
    52e4:	b4028313          	addi	x6,x5,-1216 # 0x18b40
    52e8:	004b0b13          	addi	x22,x22,4
    52ec:	d75ff06f          	jal	x0,0x5060
    52f0:	00900393          	addi	x7,x0,9
    52f4:	18e3dc63          	bge	x7,x14,0x548c
    52f8:	ccccd5b7          	lui	x11,0xccccd
    52fc:	ccd58693          	addi	x13,x11,-819 # 0xcccccccd
    5300:	02d73e33          	mulhu	x28,x14,x13
    5304:	00019637          	lui	x12,0x19
    5308:	b4060893          	addi	x17,x12,-1216 # 0x18b40
    530c:	00228533          	add	x10,x5,x2
    5310:	000e8293          	addi	x5,x29,0
    5314:	003e5f93          	srli	x31,x28,0x3
    5318:	01f88eb3          	add	x29,x17,x31
    531c:	000ec303          	lbu	x6,0(x29)
    5320:	002f9393          	slli	x7,x31,0x2
    5324:	01f38f33          	add	x30,x7,x31
    5328:	001f1593          	slli	x11,x30,0x1
    532c:	08650023          	sb	x6,128(x10)
    5330:	40b70733          	sub	x14,x14,x11
    5334:	c6dff06f          	jal	x0,0x4fa0
    5338:	00900893          	addi	x17,x0,9
    533c:	1708dc63          	bge	x17,x16,0x54b4
    5340:	ccccd637          	lui	x12,0xccccd
    5344:	ccd60e93          	addi	x29,x12,-819 # 0xcccccccd
    5348:	03d836b3          	mulhu	x13,x16,x29
    534c:	00019e37          	lui	x28,0x19
    5350:	b40e0293          	addi	x5,x28,-1216 # 0x18b40
    5354:	00238333          	add	x6,x7,x2
    5358:	00040393          	addi	x7,x8,0
    535c:	0036df13          	srli	x30,x13,0x3
    5360:	01e285b3          	add	x11,x5,x30
    5364:	0005c703          	lbu	x14,0(x11)
    5368:	002f1893          	slli	x17,x30,0x2
    536c:	01e88433          	add	x8,x17,x30
    5370:	00141613          	slli	x12,x8,0x1
    5374:	08e30023          	sb	x14,128(x6)
    5378:	40c80833          	sub	x16,x16,x12
    537c:	ec5ff06f          	jal	x0,0x5240
    5380:	00900893          	addi	x17,x0,9
    5384:	12e8d263          	bge	x17,x14,0x54a8
    5388:	ccccdfb7          	lui	x31,0xccccd
    538c:	ccdf8593          	addi	x11,x31,-819 # 0xcccccccd
    5390:	02b73f33          	mulhu	x30,x14,x11
    5394:	000196b7          	lui	x13,0x19
    5398:	00280e33          	add	x28,x16,x2
    539c:	b4068313          	addi	x6,x13,-1216 # 0x18b40
    53a0:	00038813          	addi	x16,x7,0
    53a4:	003f5393          	srli	x7,x30,0x3
    53a8:	00730533          	add	x10,x6,x7
    53ac:	00054603          	lbu	x12,0(x10)
    53b0:	00239893          	slli	x17,x7,0x2
    53b4:	00788eb3          	add	x29,x17,x7
    53b8:	001e9f93          	slli	x31,x29,0x1
    53bc:	08ce0023          	sb	x12,128(x28)
    53c0:	41f70733          	sub	x14,x14,x31
    53c4:	b3dff06f          	jal	x0,0x4f00
    53c8:	00900693          	addi	x13,x0,9
    53cc:	0d06d663          	bge	x13,x16,0x5498
    53d0:	ccccd8b7          	lui	x17,0xccccd
    53d4:	ccd88e13          	addi	x28,x17,-819 # 0xcccccccd
    53d8:	03c833b3          	mulhu	x7,x16,x28
    53dc:	00019637          	lui	x12,0x19
    53e0:	b4060893          	addi	x17,x12,-1216 # 0x18b40
    53e4:	00100693          	addi	x13,x0,1
    53e8:	0033de93          	srli	x29,x7,0x3
    53ec:	01d88f33          	add	x30,x17,x29
    53f0:	000f4283          	lbu	x5,0(x30)
    53f4:	002e9593          	slli	x11,x29,0x2
    53f8:	01d58fb3          	add	x31,x11,x29
    53fc:	001f9313          	slli	x6,x31,0x1
    5400:	40680833          	sub	x16,x16,x6
    5404:	08510023          	sb	x5,128(x2)
    5408:	a59ff06f          	jal	x0,0x4e60
    540c:	00019f37          	lui	x30,0x19
    5410:	0107f793          	andi	x15,x15,16
    5414:	b90f0713          	addi	x14,x30,-1136 # 0x18b90
    5418:	f30ff06f          	jal	x0,0x4b48
    541c:	00100613          	addi	x12,x0,1
    5420:	35965063          	bge	x12,x25,0x5760
    5424:	000a0513          	addi	x10,x20,0
    5428:	fffc8613          	addi	x12,x25,-1
    542c:	02000593          	addi	x11,x0,32
    5430:	01d12623          	sw	x29,12(x2)
    5434:	57c000ef          	jal	x1,0x59b0
    5438:	000b2e83          	lw	x29,0(x22)
    543c:	fffa0a13          	addi	x20,x20,-1
    5440:	019a0fb3          	add	x31,x20,x25
    5444:	01df8023          	sb	x29,0(x31)
    5448:	00c12e83          	lw	x29,12(x2)
    544c:	001f8a13          	addi	x20,x31,1
    5450:	00144303          	lbu	x6,1(x8)
    5454:	000d0b13          	addi	x22,x26,0
    5458:	b8031463          	bne	x6,x0,0x47e0
    545c:	b9cff06f          	jal	x0,0x47f8
    5460:	539d5c63          	bge	x26,x25,0x5998
    5464:	41ac8cb3          	sub	x25,x25,x26
    5468:	000c8613          	addi	x12,x25,0
    546c:	000a0513          	addi	x10,x20,0
    5470:	02000593          	addi	x11,x0,32
    5474:	00e12623          	sw	x14,12(x2)
    5478:	538000ef          	jal	x1,0x59b0
    547c:	019a0a33          	add	x20,x20,x25
    5480:	00c12703          	lw	x14,12(x2)
    5484:	fffd0c93          	addi	x25,x26,-1
    5488:	fc8ff06f          	jal	x0,0x4c50
    548c:	00019f37          	lui	x30,0x19
    5490:	b40f0893          	addi	x17,x30,-1216 # 0x18b40
    5494:	b0dff06f          	jal	x0,0x4fa0
    5498:	00019537          	lui	x10,0x19
    549c:	b4050893          	addi	x17,x10,-1216 # 0x18b40
    54a0:	00000693          	addi	x13,x0,0
    54a4:	9bdff06f          	jal	x0,0x4e60
    54a8:	00019eb7          	lui	x29,0x19
    54ac:	b40e8313          	addi	x6,x29,-1216 # 0x18b40
    54b0:	a51ff06f          	jal	x0,0x4f00
    54b4:	00019437          	lui	x8,0x19
    54b8:	b4040293          	addi	x5,x8,-1216 # 0x18b40
    54bc:	d85ff06f          	jal	x0,0x5240
    54c0:	4db12e23          	sw	x27,1244(x2)
    54c4:	000d0413          	addi	x8,x26,0
    54c8:	007b0d93          	addi	x27,x22,7
    54cc:	ff8dff13          	andi	x30,x27,-8
    54d0:	0107f693          	andi	x13,x15,16
    54d4:	000f2283          	lw	x5,0(x30)
    54d8:	004f2703          	lw	x14,4(x30)
    54dc:	008f0b13          	addi	x22,x30,8
    54e0:	0027ed13          	ori	x26,x15,2
    54e4:	28068c63          	beq	x13,x0,0x577c
    54e8:	ffe7f893          	andi	x17,x15,-2
    54ec:	02000313          	addi	x6,x0,32
    54f0:	0028ed13          	ori	x26,x17,2
    54f4:	00612c23          	sw	x6,24(x2)
    54f8:	00000613          	addi	x12,x0,0
    54fc:	00028513          	addi	x10,x5,0
    5500:	00070593          	addi	x11,x14,0
    5504:	00000693          	addi	x13,x0,0
    5508:	01012a23          	sw	x16,20(x2)
    550c:	00512823          	sw	x5,16(x2)
    5510:	00e12623          	sw	x14,12(x2)
    5514:	4d8010ef          	jal	x1,0x69ec
    5518:	00c12e03          	lw	x28,12(x2)
    551c:	01012603          	lw	x12,16(x2)
    5520:	01412803          	lw	x16,20(x2)
    5524:	2c054263          	blt	x10,x0,0x57e8
    5528:	004d7e93          	andi	x29,x26,4
    552c:	2c0e8863          	beq	x29,x0,0x57fc
    5530:	fffc8c93          	addi	x25,x25,-1
    5534:	02b00d93          	addi	x27,x0,43
    5538:	fff00f13          	addi	x30,x0,-1
    553c:	01e81463          	bne	x16,x30,0x5544
    5540:	00600813          	addi	x16,x0,6
    5544:	00060513          	addi	x10,x12,0
    5548:	02c10713          	addi	x14,x2,44
    554c:	02810693          	addi	x13,x2,40
    5550:	00080613          	addi	x12,x16,0
    5554:	000e0593          	addi	x11,x28,0
    5558:	08010793          	addi	x15,x2,128
    555c:	01012623          	sw	x16,12(x2)
    5560:	dcdfe0ef          	jal	x1,0x432c
    5564:	02c12683          	lw	x13,44(x2)
    5568:	00c12803          	lw	x16,12(x2)
    556c:	00050713          	addi	x14,x10,0
    5570:	03010293          	addi	x5,x2,48
    5574:	00068863          	beq	x13,x0,0x5584
    5578:	02d00293          	addi	x5,x0,45
    557c:	02510823          	sb	x5,48(x2)
    5580:	03110293          	addi	x5,x2,49
    5584:	00074f03          	lbu	x30,0(x14)
    5588:	2c0f0263          	beq	x30,x0,0x584c
    558c:	02812883          	lw	x17,40(x2)
    5590:	00170f93          	addi	x31,x14,1
    5594:	02e00e13          	addi	x28,x0,46
    5598:	3b105263          	bge	x0,x17,0x593c
    559c:	40ef85b3          	sub	x11,x31,x14
    55a0:	fff58613          	addi	x12,x11,-1
    55a4:	00028e93          	addi	x29,x5,0
    55a8:	01161663          	bne	x12,x17,0x55b4
    55ac:	00128e93          	addi	x29,x5,1
    55b0:	01c28023          	sb	x28,0(x5)
    55b4:	001f8f93          	addi	x31,x31,1
    55b8:	01ee8023          	sb	x30,0(x29)
    55bc:	ffffcf03          	lbu	x30,-1(x31)
    55c0:	001e8293          	addi	x5,x29,1
    55c4:	fc0f1ce3          	bne	x30,x0,0x559c
    55c8:	00028023          	sb	x0,0(x5)
    55cc:	020d7693          	andi	x13,x26,32
    55d0:	03014783          	lbu	x15,48(x2)
    55d4:	00068463          	beq	x13,x0,0x55dc
    55d8:	14080463          	beq	x16,x0,0x5720
    55dc:	08078063          	beq	x15,x0,0x565c
    55e0:	03010e13          	addi	x28,x2,48
    55e4:	000e0693          	addi	x13,x28,0
    55e8:	13010393          	addi	x7,x2,304
    55ec:	0016c603          	lbu	x12,1(x13)
    55f0:	00168693          	addi	x13,x13,1
    55f4:	00068593          	addi	x11,x13,0
    55f8:	04060e63          	beq	x12,x0,0x5654
    55fc:	0016ce83          	lbu	x29,1(x13)
    5600:	00168693          	addi	x13,x13,1
    5604:	040e8863          	beq	x29,x0,0x5654
    5608:	0025cf83          	lbu	x31,2(x11)
    560c:	00258693          	addi	x13,x11,2
    5610:	040f8263          	beq	x31,x0,0x5654
    5614:	0035cf03          	lbu	x30,3(x11)
    5618:	00358693          	addi	x13,x11,3
    561c:	020f0c63          	beq	x30,x0,0x5654
    5620:	0045c283          	lbu	x5,4(x11)
    5624:	00458693          	addi	x13,x11,4
    5628:	02028663          	beq	x5,x0,0x5654
    562c:	0055c303          	lbu	x6,5(x11)
    5630:	00558693          	addi	x13,x11,5
    5634:	02030063          	beq	x6,x0,0x5654
    5638:	0065c803          	lbu	x16,6(x11)
    563c:	00658693          	addi	x13,x11,6
    5640:	00080a63          	beq	x16,x0,0x5654
    5644:	0075c703          	lbu	x14,7(x11)
    5648:	00758693          	addi	x13,x11,7
    564c:	00070463          	beq	x14,x0,0x5654
    5650:	f8769ee3          	bne	x13,x7,0x55ec
    5654:	41c687b3          	sub	x15,x13,x28
    5658:	40fc8cb3          	sub	x25,x25,x15
    565c:	011d7513          	andi	x10,x26,17
    5660:	12051a63          	bne	x10,x0,0x5794
    5664:	23905063          	bge	x0,x25,0x5884
    5668:	000a0513          	addi	x10,x20,0
    566c:	000c8613          	addi	x12,x25,0
    5670:	02000593          	addi	x11,x0,32
    5674:	00f12623          	sw	x15,12(x2)
    5678:	338000ef          	jal	x1,0x59b0
    567c:	00c12783          	lw	x15,12(x2)
    5680:	019a0a33          	add	x20,x20,x25
    5684:	180d8863          	beq	x27,x0,0x5814
    5688:	01ba0023          	sb	x27,0(x20)
    568c:	fff00c93          	addi	x25,x0,-1
    5690:	001a0a13          	addi	x20,x20,1
    5694:	fffc8c93          	addi	x25,x25,-1
    5698:	02f05063          	bge	x0,x15,0x56b8
    569c:	000a0513          	addi	x10,x20,0
    56a0:	00078613          	addi	x12,x15,0
    56a4:	03010593          	addi	x11,x2,48
    56a8:	00f12623          	sw	x15,12(x2)
    56ac:	4d9020ef          	jal	x1,0x8384
    56b0:	00c12883          	lw	x17,12(x2)
    56b4:	011a0a33          	add	x20,x20,x17
    56b8:	01905c63          	bge	x0,x25,0x56d0
    56bc:	000a0513          	addi	x10,x20,0
    56c0:	000c8613          	addi	x12,x25,0
    56c4:	02000593          	addi	x11,x0,32
    56c8:	2e8000ef          	jal	x1,0x59b0
    56cc:	019a0a33          	add	x20,x20,x25
    56d0:	00144303          	lbu	x6,1(x8)
    56d4:	4dc12d83          	lw	x27,1244(x2)
    56d8:	00140e93          	addi	x29,x8,1
    56dc:	90031263          	bne	x6,x0,0x47e0
    56e0:	918ff06f          	jal	x0,0x47f8
    56e4:	00040d13          	addi	x26,x8,0
    56e8:	f00ff06f          	jal	x0,0x4de8
    56ec:	4db12e23          	sw	x27,1244(x2)
    56f0:	dd9ff06f          	jal	x0,0x54c8
    56f4:	0407e793          	ori	x15,x15,64
    56f8:	00040d13          	addi	x26,x8,0
    56fc:	01000613          	addi	x12,x0,16
    5700:	afcff06f          	jal	x0,0x49fc
    5704:	0407e793          	ori	x15,x15,64
    5708:	00040d13          	addi	x26,x8,0
    570c:	edcff06f          	jal	x0,0x4de8
    5710:	000280a3          	sb	x0,1(x5)
    5714:	020d7713          	andi	x14,x26,32
    5718:	03014783          	lbu	x15,48(x2)
    571c:	ec0700e3          	beq	x14,x0,0x55dc
    5720:	28078463          	beq	x15,x0,0x59a8
    5724:	03010e13          	addi	x28,x2,48
    5728:	000e0393          	addi	x7,x28,0
    572c:	02e00513          	addi	x10,x0,46
    5730:	04500893          	addi	x17,x0,69
    5734:	eaa788e3          	beq	x15,x10,0x55e4
    5738:	0df7f793          	andi	x15,x15,223
    573c:	15178e63          	beq	x15,x17,0x5898
    5740:	0013c783          	lbu	x15,1(x7)
    5744:	00138393          	addi	x7,x7,1
    5748:	fe0796e3          	bne	x15,x0,0x5734
    574c:	02e00e13          	addi	x28,x0,46
    5750:	01c38023          	sb	x28,0(x7)
    5754:	03014783          	lbu	x15,48(x2)
    5758:	000380a3          	sb	x0,1(x7)
    575c:	e81ff06f          	jal	x0,0x55dc
    5760:	000b2583          	lw	x11,0(x22)
    5764:	001a0a13          	addi	x20,x20,1
    5768:	000d0b13          	addi	x22,x26,0
    576c:	feba0fa3          	sb	x11,-1(x20)
    5770:	00144303          	lbu	x6,1(x8)
    5774:	86031663          	bne	x6,x0,0x47e0
    5778:	880ff06f          	jal	x0,0x47f8
    577c:	0017f793          	andi	x15,x15,1
    5780:	fff78393          	addi	x7,x15,-1
    5784:	ff03f513          	andi	x10,x7,-16
    5788:	03050593          	addi	x11,x10,48
    578c:	00b12c23          	sw	x11,24(x2)
    5790:	d69ff06f          	jal	x0,0x54f8
    5794:	000d8663          	beq	x27,x0,0x57a0
    5798:	01ba0023          	sb	x27,0(x20)
    579c:	001a0a13          	addi	x20,x20,1
    57a0:	010d7d13          	andi	x26,x26,16
    57a4:	ee0d1ae3          	bne	x26,x0,0x5698
    57a8:	ef9056e3          	bge	x0,x25,0x5694
    57ac:	01812583          	lw	x11,24(x2)
    57b0:	000c8613          	addi	x12,x25,0
    57b4:	000a0513          	addi	x10,x20,0
    57b8:	00f12623          	sw	x15,12(x2)
    57bc:	019a0a33          	add	x20,x20,x25
    57c0:	1f0000ef          	jal	x1,0x59b0
    57c4:	00c12c83          	lw	x25,12(x2)
    57c8:	f19054e3          	bge	x0,x25,0x56d0
    57cc:	000c8613          	addi	x12,x25,0
    57d0:	000a0513          	addi	x10,x20,0
    57d4:	03010593          	addi	x11,x2,48
    57d8:	3ad020ef          	jal	x1,0x8384
    57dc:	00c12d83          	lw	x27,12(x2)
    57e0:	014d8a33          	add	x20,x27,x20
    57e4:	eedff06f          	jal	x0,0x56d0
    57e8:	80000db7          	lui	x27,0x80000
    57ec:	01be4e33          	xor	x28,x28,x27
    57f0:	fffc8c93          	addi	x25,x25,-1
    57f4:	02d00d93          	addi	x27,x0,45
    57f8:	d41ff06f          	jal	x0,0x5538
    57fc:	008d7f93          	andi	x31,x26,8
    5800:	00000d93          	addi	x27,x0,0
    5804:	d20f8ae3          	beq	x31,x0,0x5538
    5808:	fffc8c93          	addi	x25,x25,-1
    580c:	02000d93          	addi	x27,x0,32
    5810:	d29ff06f          	jal	x0,0x5538
    5814:	eaf05ee3          	bge	x0,x15,0x56d0
    5818:	00078613          	addi	x12,x15,0
    581c:	00f12623          	sw	x15,12(x2)
    5820:	fb1ff06f          	jal	x0,0x57d0
    5824:	00000d13          	addi	x26,x0,0
    5828:	d2079863          	bne	x15,x0,0x4d58
    582c:	00140e93          	addi	x29,x8,1
    5830:	c3904ae3          	blt	x0,x25,0x5464
    5834:	00144303          	lbu	x6,1(x8)
    5838:	00030463          	beq	x6,x0,0x5840
    583c:	fa5fe06f          	jal	x0,0x47e0
    5840:	fb9fe06f          	jal	x0,0x47f8
    5844:	fffc8c93          	addi	x25,x25,-1
    5848:	fbcff06f          	jal	x0,0x5004
    584c:	03000593          	addi	x11,x0,48
    5850:	00b28023          	sb	x11,0(x5)
    5854:	ea080ee3          	beq	x16,x0,0x5710
    5858:	02e00393          	addi	x7,x0,46
    585c:	00228513          	addi	x10,x5,2
    5860:	007280a3          	sb	x7,1(x5)
    5864:	00080613          	addi	x12,x16,0
    5868:	01012623          	sw	x16,12(x2)
    586c:	144000ef          	jal	x1,0x59b0
    5870:	00c12783          	lw	x15,12(x2)
    5874:	00f50533          	add	x10,x10,x15
    5878:	00050023          	sb	x0,0(x10)
    587c:	03014783          	lbu	x15,48(x2)
    5880:	d5dff06f          	jal	x0,0x55dc
    5884:	f80d88e3          	beq	x27,x0,0x5814
    5888:	01ba0023          	sb	x27,0(x20)
    588c:	ffec8c93          	addi	x25,x25,-2
    5890:	001a0a13          	addi	x20,x20,1
    5894:	e05ff06f          	jal	x0,0x5698
    5898:	0003c603          	lbu	x12,0(x7)
    589c:	10038593          	addi	x11,x7,256
    58a0:	00038893          	addi	x17,x7,0
    58a4:	08060463          	beq	x12,x0,0x592c
    58a8:	0018ce83          	lbu	x29,1(x17)
    58ac:	00188893          	addi	x17,x17,1
    58b0:	00088f93          	addi	x31,x17,0
    58b4:	040e8e63          	beq	x29,x0,0x5910
    58b8:	0018cf03          	lbu	x30,1(x17)
    58bc:	00188893          	addi	x17,x17,1
    58c0:	040f0863          	beq	x30,x0,0x5910
    58c4:	002fc283          	lbu	x5,2(x31)
    58c8:	002f8893          	addi	x17,x31,2
    58cc:	04028263          	beq	x5,x0,0x5910
    58d0:	003fc303          	lbu	x6,3(x31)
    58d4:	003f8893          	addi	x17,x31,3
    58d8:	02030c63          	beq	x6,x0,0x5910
    58dc:	004fc803          	lbu	x16,4(x31)
    58e0:	004f8893          	addi	x17,x31,4
    58e4:	02080663          	beq	x16,x0,0x5910
    58e8:	005fc703          	lbu	x14,5(x31)
    58ec:	005f8893          	addi	x17,x31,5
    58f0:	02070063          	beq	x14,x0,0x5910
    58f4:	006fc683          	lbu	x13,6(x31)
    58f8:	006f8893          	addi	x17,x31,6
    58fc:	00068a63          	beq	x13,x0,0x5910
    5900:	007fc503          	lbu	x10,7(x31)
    5904:	007f8893          	addi	x17,x31,7
    5908:	00050463          	beq	x10,x0,0x5910
    590c:	f8b89ee3          	bne	x17,x11,0x58a8
    5910:	40788633          	sub	x12,x17,x7
    5914:	00c05c63          	bge	x0,x12,0x592c
    5918:	00138593          	addi	x11,x7,1
    591c:	00238513          	addi	x10,x7,2
    5920:	00712623          	sw	x7,12(x2)
    5924:	139020ef          	jal	x1,0x825c
    5928:	00c12383          	lw	x7,12(x2)
    592c:	02e00793          	addi	x15,x0,46
    5930:	00f38023          	sb	x15,0(x7)
    5934:	03014783          	lbu	x15,48(x2)
    5938:	ca5ff06f          	jal	x0,0x55dc
    593c:	03000593          	addi	x11,x0,48
    5940:	00b28023          	sb	x11,0(x5)
    5944:	01c280a3          	sb	x28,1(x5)
    5948:	00228293          	addi	x5,x5,2
    594c:	02088a63          	beq	x17,x0,0x5980
    5950:	00028513          	addi	x10,x5,0
    5954:	41100633          	sub	x12,x0,x17
    5958:	01e12e23          	sw	x30,28(x2)
    595c:	00e12a23          	sw	x14,20(x2)
    5960:	01012823          	sw	x16,16(x2)
    5964:	01112623          	sw	x17,12(x2)
    5968:	048000ef          	jal	x1,0x59b0
    596c:	00c12303          	lw	x6,12(x2)
    5970:	01012803          	lw	x16,16(x2)
    5974:	01412703          	lw	x14,20(x2)
    5978:	01c12f03          	lw	x30,28(x2)
    597c:	406502b3          	sub	x5,x10,x6
    5980:	00170713          	addi	x14,x14,1
    5984:	01e28023          	sb	x30,0(x5)
    5988:	00074f03          	lbu	x30,0(x14)
    598c:	00128293          	addi	x5,x5,1
    5990:	fe0f18e3          	bne	x30,x0,0x5980
    5994:	c35ff06f          	jal	x0,0x55c8
    5998:	fffc8c93          	addi	x25,x25,-1
    599c:	ab4ff06f          	jal	x0,0x4c50
    59a0:	007a0a33          	add	x20,x20,x7
    59a4:	aadff06f          	jal	x0,0x5450
    59a8:	03010393          	addi	x7,x2,48
    59ac:	da1ff06f          	jal	x0,0x574c
    59b0:	00f00313          	addi	x6,x0,15
    59b4:	00050713          	addi	x14,x10,0
    59b8:	02c37e63          	bgeu	x6,x12,0x59f4
    59bc:	00f77793          	andi	x15,x14,15
    59c0:	0a079063          	bne	x15,x0,0x5a60
    59c4:	08059263          	bne	x11,x0,0x5a48
    59c8:	ff067693          	andi	x13,x12,-16
    59cc:	00f67613          	andi	x12,x12,15
    59d0:	00e686b3          	add	x13,x13,x14
    59d4:	00b72023          	sw	x11,0(x14)
    59d8:	00b72223          	sw	x11,4(x14)
    59dc:	00b72423          	sw	x11,8(x14)
    59e0:	00b72623          	sw	x11,12(x14)
    59e4:	01070713          	addi	x14,x14,16
    59e8:	fed766e3          	bltu	x14,x13,0x59d4
    59ec:	00061463          	bne	x12,x0,0x59f4
    59f0:	00008067          	jalr	x0,0(x1)
    59f4:	40c306b3          	sub	x13,x6,x12
    59f8:	00269693          	slli	x13,x13,0x2
    59fc:	00000297          	auipc	x5,0x0
    5a00:	005686b3          	add	x13,x13,x5
    5a04:	00c68067          	jalr	x0,12(x13)
    5a08:	00b70723          	sb	x11,14(x14)
    5a0c:	00b706a3          	sb	x11,13(x14)
    5a10:	00b70623          	sb	x11,12(x14)
    5a14:	00b705a3          	sb	x11,11(x14)
    5a18:	00b70523          	sb	x11,10(x14)
    5a1c:	00b704a3          	sb	x11,9(x14)
    5a20:	00b70423          	sb	x11,8(x14)
    5a24:	00b703a3          	sb	x11,7(x14)
    5a28:	00b70323          	sb	x11,6(x14)
    5a2c:	00b702a3          	sb	x11,5(x14)
    5a30:	00b70223          	sb	x11,4(x14)
    5a34:	00b701a3          	sb	x11,3(x14)
    5a38:	00b70123          	sb	x11,2(x14)
    5a3c:	00b700a3          	sb	x11,1(x14)
    5a40:	00b70023          	sb	x11,0(x14)
    5a44:	00008067          	jalr	x0,0(x1)
    5a48:	0ff5f593          	andi	x11,x11,255
    5a4c:	00859693          	slli	x13,x11,0x8
    5a50:	00d5e5b3          	or	x11,x11,x13
    5a54:	01059693          	slli	x13,x11,0x10
    5a58:	00d5e5b3          	or	x11,x11,x13
    5a5c:	f6dff06f          	jal	x0,0x59c8
    5a60:	00279693          	slli	x13,x15,0x2
    5a64:	00000297          	auipc	x5,0x0
    5a68:	005686b3          	add	x13,x13,x5
    5a6c:	00008293          	addi	x5,x1,0
    5a70:	fa0680e7          	jalr	x1,-96(x13)
    5a74:	00028093          	addi	x1,x5,0 # 0x5a64
    5a78:	ff078793          	addi	x15,x15,-16
    5a7c:	40f70733          	sub	x14,x14,x15
    5a80:	00f60633          	add	x12,x12,x15
    5a84:	f6c378e3          	bgeu	x6,x12,0x59f4
    5a88:	f3dff06f          	jal	x0,0x59c4
    5a8c:	00100737          	lui	x14,0x100
    5a90:	fe010113          	addi	x2,x2,-32
    5a94:	fff70713          	addi	x14,x14,-1 # 0xfffff
    5a98:	00b777b3          	and	x15,x14,x11
    5a9c:	0146d893          	srli	x17,x13,0x14
    5aa0:	00d77733          	and	x14,x14,x13
    5aa4:	00812c23          	sw	x8,24(x2)
    5aa8:	0145d413          	srli	x8,x11,0x14
    5aac:	00371713          	slli	x14,x14,0x3
    5ab0:	01d65813          	srli	x16,x12,0x1d
    5ab4:	01212823          	sw	x18,16(x2)
    5ab8:	7ff47413          	andi	x8,x8,2047
    5abc:	01f5d913          	srli	x18,x11,0x1f
    5ac0:	00379793          	slli	x15,x15,0x3
    5ac4:	01d55593          	srli	x11,x10,0x1d
    5ac8:	7ff8f893          	andi	x17,x17,2047
    5acc:	00112e23          	sw	x1,28(x2)
    5ad0:	00912a23          	sw	x9,20(x2)
    5ad4:	01312623          	sw	x19,12(x2)
    5ad8:	01f6d693          	srli	x13,x13,0x1f
    5adc:	00f5e7b3          	or	x15,x11,x15
    5ae0:	00e86833          	or	x16,x16,x14
    5ae4:	00351513          	slli	x10,x10,0x3
    5ae8:	00361613          	slli	x12,x12,0x3
    5aec:	41140733          	sub	x14,x8,x17
    5af0:	7ff00593          	addi	x11,x0,2047
    5af4:	30d91463          	bne	x18,x13,0x5dfc
    5af8:	10e05263          	bge	x0,x14,0x5bfc
    5afc:	02089c63          	bne	x17,x0,0x5b34
    5b00:	00c86733          	or	x14,x16,x12
    5b04:	02070463          	beq	x14,x0,0x5b2c
    5b08:	fff40713          	addi	x14,x8,-1
    5b0c:	00071e63          	bne	x14,x0,0x5b28
    5b10:	00c50633          	add	x12,x10,x12
    5b14:	010787b3          	add	x15,x15,x16
    5b18:	00a63533          	sltu	x10,x12,x10
    5b1c:	00a787b3          	add	x15,x15,x10
    5b20:	00100413          	addi	x8,x0,1
    5b24:	0600006f          	jal	x0,0x5b84
    5b28:	00b41c63          	bne	x8,x11,0x5b40
    5b2c:	00050613          	addi	x12,x10,0
    5b30:	1d80006f          	jal	x0,0x5d08
    5b34:	feb40ce3          	beq	x8,x11,0x5b2c
    5b38:	008006b7          	lui	x13,0x800
    5b3c:	00d86833          	or	x16,x16,x13
    5b40:	03800693          	addi	x13,x0,56
    5b44:	0ae6c663          	blt	x13,x14,0x5bf0
    5b48:	01f00693          	addi	x13,x0,31
    5b4c:	02000893          	addi	x17,x0,32
    5b50:	06e6c863          	blt	x13,x14,0x5bc0
    5b54:	40e888b3          	sub	x17,x17,x14
    5b58:	011816b3          	sll	x13,x16,x17
    5b5c:	00e655b3          	srl	x11,x12,x14
    5b60:	011618b3          	sll	x17,x12,x17
    5b64:	00b6e6b3          	or	x13,x13,x11
    5b68:	011038b3          	sltu	x17,x0,x17
    5b6c:	0116e6b3          	or	x13,x13,x17
    5b70:	00e85733          	srl	x14,x16,x14
    5b74:	00a68633          	add	x12,x13,x10
    5b78:	00f70733          	add	x14,x14,x15
    5b7c:	00d636b3          	sltu	x13,x12,x13
    5b80:	00d707b3          	add	x15,x14,x13
    5b84:	00879713          	slli	x14,x15,0x8
    5b88:	22075663          	bge	x14,x0,0x5db4
    5b8c:	00140413          	addi	x8,x8,1
    5b90:	7ff00713          	addi	x14,x0,2047
    5b94:	60e40863          	beq	x8,x14,0x61a4
    5b98:	ff800737          	lui	x14,0xff800
    5b9c:	fff70713          	addi	x14,x14,-1 # 0xff7fffff
    5ba0:	00e7f7b3          	and	x15,x15,x14
    5ba4:	00165713          	srli	x14,x12,0x1
    5ba8:	00167613          	andi	x12,x12,1
    5bac:	00c76733          	or	x14,x14,x12
    5bb0:	01f79613          	slli	x12,x15,0x1f
    5bb4:	00e66633          	or	x12,x12,x14
    5bb8:	0017d793          	srli	x15,x15,0x1
    5bbc:	1f80006f          	jal	x0,0x5db4
    5bc0:	fe070693          	addi	x13,x14,-32
    5bc4:	00d856b3          	srl	x13,x16,x13
    5bc8:	00000593          	addi	x11,x0,0
    5bcc:	01170863          	beq	x14,x17,0x5bdc
    5bd0:	04000593          	addi	x11,x0,64
    5bd4:	40e585b3          	sub	x11,x11,x14
    5bd8:	00b815b3          	sll	x11,x16,x11
    5bdc:	00c5e5b3          	or	x11,x11,x12
    5be0:	00b035b3          	sltu	x11,x0,x11
    5be4:	00b6e6b3          	or	x13,x13,x11
    5be8:	00000713          	addi	x14,x0,0
    5bec:	f89ff06f          	jal	x0,0x5b74
    5bf0:	00c866b3          	or	x13,x16,x12
    5bf4:	00d036b3          	sltu	x13,x0,x13
    5bf8:	ff1ff06f          	jal	x0,0x5be8
    5bfc:	0c070263          	beq	x14,x0,0x5cc0
    5c00:	40888733          	sub	x14,x17,x8
    5c04:	02041263          	bne	x8,x0,0x5c28
    5c08:	00a7e6b3          	or	x13,x15,x10
    5c0c:	00068863          	beq	x13,x0,0x5c1c
    5c10:	fff70693          	addi	x13,x14,-1
    5c14:	ee068ee3          	beq	x13,x0,0x5b10
    5c18:	02b71063          	bne	x14,x11,0x5c38
    5c1c:	00080793          	addi	x15,x16,0
    5c20:	00070413          	addi	x8,x14,0
    5c24:	0e40006f          	jal	x0,0x5d08
    5c28:	58b88663          	beq	x17,x11,0x61b4
    5c2c:	008006b7          	lui	x13,0x800
    5c30:	00d7e7b3          	or	x15,x15,x13
    5c34:	00070693          	addi	x13,x14,0
    5c38:	03800713          	addi	x14,x0,56
    5c3c:	06d74c63          	blt	x14,x13,0x5cb4
    5c40:	01f00713          	addi	x14,x0,31
    5c44:	02000313          	addi	x6,x0,32
    5c48:	02d74e63          	blt	x14,x13,0x5c84
    5c4c:	40d30333          	sub	x6,x6,x13
    5c50:	00679733          	sll	x14,x15,x6
    5c54:	00d555b3          	srl	x11,x10,x13
    5c58:	00651333          	sll	x6,x10,x6
    5c5c:	00b76733          	or	x14,x14,x11
    5c60:	00603333          	sltu	x6,x0,x6
    5c64:	00676733          	or	x14,x14,x6
    5c68:	00d7d6b3          	srl	x13,x15,x13
    5c6c:	00c70633          	add	x12,x14,x12
    5c70:	010686b3          	add	x13,x13,x16
    5c74:	00e63733          	sltu	x14,x12,x14
    5c78:	00e687b3          	add	x15,x13,x14
    5c7c:	00088413          	addi	x8,x17,0
    5c80:	f05ff06f          	jal	x0,0x5b84
    5c84:	fe068713          	addi	x14,x13,-32 # 0x7fffe0
    5c88:	00e7d733          	srl	x14,x15,x14
    5c8c:	00000593          	addi	x11,x0,0
    5c90:	00668863          	beq	x13,x6,0x5ca0
    5c94:	04000593          	addi	x11,x0,64
    5c98:	40d585b3          	sub	x11,x11,x13
    5c9c:	00b795b3          	sll	x11,x15,x11
    5ca0:	00a5e5b3          	or	x11,x11,x10
    5ca4:	00b035b3          	sltu	x11,x0,x11
    5ca8:	00b76733          	or	x14,x14,x11
    5cac:	00000693          	addi	x13,x0,0
    5cb0:	fbdff06f          	jal	x0,0x5c6c
    5cb4:	00a7e733          	or	x14,x15,x10
    5cb8:	00e03733          	sltu	x14,x0,x14
    5cbc:	ff1ff06f          	jal	x0,0x5cac
    5cc0:	00140713          	addi	x14,x8,1
    5cc4:	7fe77693          	andi	x13,x14,2046
    5cc8:	0c069263          	bne	x13,x0,0x5d8c
    5ccc:	00a7e733          	or	x14,x15,x10
    5cd0:	0a041463          	bne	x8,x0,0x5d78
    5cd4:	4a070863          	beq	x14,x0,0x6184
    5cd8:	00c86733          	or	x14,x16,x12
    5cdc:	4a070863          	beq	x14,x0,0x618c
    5ce0:	00c50633          	add	x12,x10,x12
    5ce4:	010787b3          	add	x15,x15,x16
    5ce8:	00a63533          	sltu	x10,x12,x10
    5cec:	00a787b3          	add	x15,x15,x10
    5cf0:	00879713          	slli	x14,x15,0x8
    5cf4:	32075a63          	bge	x14,x0,0x6028
    5cf8:	ff800737          	lui	x14,0xff800
    5cfc:	fff70713          	addi	x14,x14,-1 # 0xff7fffff
    5d00:	00e7f7b3          	and	x15,x15,x14
    5d04:	00100413          	addi	x8,x0,1
    5d08:	01d79713          	slli	x14,x15,0x1d
    5d0c:	00365613          	srli	x12,x12,0x3
    5d10:	7ff00693          	addi	x13,x0,2047
    5d14:	00c76733          	or	x14,x14,x12
    5d18:	0037d793          	srli	x15,x15,0x3
    5d1c:	00d41e63          	bne	x8,x13,0x5d38
    5d20:	00f76733          	or	x14,x14,x15
    5d24:	00000793          	addi	x15,x0,0
    5d28:	00070863          	beq	x14,x0,0x5d38
    5d2c:	000807b7          	lui	x15,0x80
    5d30:	00000713          	addi	x14,x0,0
    5d34:	00000913          	addi	x18,x0,0
    5d38:	7ff47413          	andi	x8,x8,2047
    5d3c:	00c79793          	slli	x15,x15,0xc
    5d40:	00c7d793          	srli	x15,x15,0xc
    5d44:	01441413          	slli	x8,x8,0x14
    5d48:	01f91593          	slli	x11,x18,0x1f
    5d4c:	00f46433          	or	x8,x8,x15
    5d50:	01c12083          	lw	x1,28(x2)
    5d54:	00b467b3          	or	x15,x8,x11
    5d58:	01812403          	lw	x8,24(x2)
    5d5c:	01412483          	lw	x9,20(x2)
    5d60:	01012903          	lw	x18,16(x2)
    5d64:	00c12983          	lw	x19,12(x2)
    5d68:	00070513          	addi	x10,x14,0
    5d6c:	00078593          	addi	x11,x15,0 # 0x80000
    5d70:	02010113          	addi	x2,x2,32
    5d74:	00008067          	jalr	x0,0(x1)
    5d78:	40070e63          	beq	x14,x0,0x6194
    5d7c:	00c86833          	or	x16,x16,x12
    5d80:	2c081c63          	bne	x16,x0,0x6058
    5d84:	00050613          	addi	x12,x10,0
    5d88:	4100006f          	jal	x0,0x6198
    5d8c:	40b70a63          	beq	x14,x11,0x61a0
    5d90:	00c50633          	add	x12,x10,x12
    5d94:	00a63533          	sltu	x10,x12,x10
    5d98:	010787b3          	add	x15,x15,x16
    5d9c:	00a787b3          	add	x15,x15,x10
    5da0:	01f79693          	slli	x13,x15,0x1f
    5da4:	00165613          	srli	x12,x12,0x1
    5da8:	00c6e633          	or	x12,x13,x12
    5dac:	0017d793          	srli	x15,x15,0x1
    5db0:	00070413          	addi	x8,x14,0
    5db4:	00767713          	andi	x14,x12,7
    5db8:	02070063          	beq	x14,x0,0x5dd8
    5dbc:	00f67713          	andi	x14,x12,15
    5dc0:	00400693          	addi	x13,x0,4
    5dc4:	00d70a63          	beq	x14,x13,0x5dd8
    5dc8:	00d60733          	add	x14,x12,x13
    5dcc:	00c736b3          	sltu	x13,x14,x12
    5dd0:	00d787b3          	add	x15,x15,x13
    5dd4:	00070613          	addi	x12,x14,0
    5dd8:	00879713          	slli	x14,x15,0x8
    5ddc:	f20756e3          	bge	x14,x0,0x5d08
    5de0:	00140413          	addi	x8,x8,1
    5de4:	7ff00713          	addi	x14,x0,2047
    5de8:	3ae40e63          	beq	x8,x14,0x61a4
    5dec:	ff800737          	lui	x14,0xff800
    5df0:	fff70713          	addi	x14,x14,-1 # 0xff7fffff
    5df4:	00e7f7b3          	and	x15,x15,x14
    5df8:	f11ff06f          	jal	x0,0x5d08
    5dfc:	0ee05063          	bge	x0,x14,0x5edc
    5e00:	08089863          	bne	x17,x0,0x5e90
    5e04:	00c86733          	or	x14,x16,x12
    5e08:	d20702e3          	beq	x14,x0,0x5b2c
    5e0c:	fff40713          	addi	x14,x8,-1
    5e10:	00071e63          	bne	x14,x0,0x5e2c
    5e14:	40c50633          	sub	x12,x10,x12
    5e18:	410787b3          	sub	x15,x15,x16
    5e1c:	00c53533          	sltu	x10,x10,x12
    5e20:	40a787b3          	sub	x15,x15,x10
    5e24:	00100413          	addi	x8,x0,1
    5e28:	04c0006f          	jal	x0,0x5e74
    5e2c:	d0b400e3          	beq	x8,x11,0x5b2c
    5e30:	03800693          	addi	x13,x0,56
    5e34:	08e6ce63          	blt	x13,x14,0x5ed0
    5e38:	01f00693          	addi	x13,x0,31
    5e3c:	02000893          	addi	x17,x0,32
    5e40:	06e6c063          	blt	x13,x14,0x5ea0
    5e44:	40e888b3          	sub	x17,x17,x14
    5e48:	011816b3          	sll	x13,x16,x17
    5e4c:	00e655b3          	srl	x11,x12,x14
    5e50:	011618b3          	sll	x17,x12,x17
    5e54:	00b6e6b3          	or	x13,x13,x11
    5e58:	011038b3          	sltu	x17,x0,x17
    5e5c:	0116e6b3          	or	x13,x13,x17
    5e60:	00e85733          	srl	x14,x16,x14
    5e64:	40d50633          	sub	x12,x10,x13
    5e68:	40e78733          	sub	x14,x15,x14
    5e6c:	00c53533          	sltu	x10,x10,x12
    5e70:	40a707b3          	sub	x15,x14,x10
    5e74:	00879713          	slli	x14,x15,0x8
    5e78:	f2075ee3          	bge	x14,x0,0x5db4
    5e7c:	008004b7          	lui	x9,0x800
    5e80:	fff48493          	addi	x9,x9,-1 # 0x7fffff
    5e84:	0097f4b3          	and	x9,x15,x9
    5e88:	00060993          	addi	x19,x12,0
    5e8c:	2140006f          	jal	x0,0x60a0
    5e90:	c8b40ee3          	beq	x8,x11,0x5b2c
    5e94:	008006b7          	lui	x13,0x800
    5e98:	00d86833          	or	x16,x16,x13
    5e9c:	f95ff06f          	jal	x0,0x5e30
    5ea0:	fe070693          	addi	x13,x14,-32
    5ea4:	00d856b3          	srl	x13,x16,x13
    5ea8:	00000593          	addi	x11,x0,0
    5eac:	01170863          	beq	x14,x17,0x5ebc
    5eb0:	04000593          	addi	x11,x0,64
    5eb4:	40e585b3          	sub	x11,x11,x14
    5eb8:	00b815b3          	sll	x11,x16,x11
    5ebc:	00c5e5b3          	or	x11,x11,x12
    5ec0:	00b035b3          	sltu	x11,x0,x11
    5ec4:	00b6e6b3          	or	x13,x13,x11
    5ec8:	00000713          	addi	x14,x0,0
    5ecc:	f99ff06f          	jal	x0,0x5e64
    5ed0:	00c866b3          	or	x13,x16,x12
    5ed4:	00d036b3          	sltu	x13,x0,x13
    5ed8:	ff1ff06f          	jal	x0,0x5ec8
    5edc:	0e070663          	beq	x14,x0,0x5fc8
    5ee0:	40888333          	sub	x6,x17,x8
    5ee4:	04041263          	bne	x8,x0,0x5f28
    5ee8:	00a7e733          	or	x14,x15,x10
    5eec:	02070663          	beq	x14,x0,0x5f18
    5ef0:	fff30713          	addi	x14,x6,-1
    5ef4:	02071063          	bne	x14,x0,0x5f14
    5ef8:	40a60533          	sub	x10,x12,x10
    5efc:	00a63733          	sltu	x14,x12,x10
    5f00:	40f807b3          	sub	x15,x16,x15
    5f04:	00050613          	addi	x12,x10,0
    5f08:	40e787b3          	sub	x15,x15,x14
    5f0c:	00068913          	addi	x18,x13,0 # 0x800000
    5f10:	f15ff06f          	jal	x0,0x5e24
    5f14:	02b31263          	bne	x6,x11,0x5f38
    5f18:	00068913          	addi	x18,x13,0
    5f1c:	00080793          	addi	x15,x16,0
    5f20:	00030413          	addi	x8,x6,0
    5f24:	de5ff06f          	jal	x0,0x5d08
    5f28:	28b88463          	beq	x17,x11,0x61b0
    5f2c:	00800737          	lui	x14,0x800
    5f30:	00e7e7b3          	or	x15,x15,x14
    5f34:	00030713          	addi	x14,x6,0
    5f38:	03800593          	addi	x11,x0,56
    5f3c:	08e5c063          	blt	x11,x14,0x5fbc
    5f40:	01f00593          	addi	x11,x0,31
    5f44:	02000e13          	addi	x28,x0,32
    5f48:	04e5c263          	blt	x11,x14,0x5f8c
    5f4c:	40ee0e33          	sub	x28,x28,x14
    5f50:	01c795b3          	sll	x11,x15,x28
    5f54:	00e55333          	srl	x6,x10,x14
    5f58:	01c51e33          	sll	x28,x10,x28
    5f5c:	0065e5b3          	or	x11,x11,x6
    5f60:	01c03e33          	sltu	x28,x0,x28
    5f64:	01c5e5b3          	or	x11,x11,x28
    5f68:	00e7d733          	srl	x14,x15,x14
    5f6c:	40b605b3          	sub	x11,x12,x11
    5f70:	00b637b3          	sltu	x15,x12,x11
    5f74:	40e80733          	sub	x14,x16,x14
    5f78:	00058613          	addi	x12,x11,0
    5f7c:	40f707b3          	sub	x15,x14,x15
    5f80:	00088413          	addi	x8,x17,0
    5f84:	00068913          	addi	x18,x13,0
    5f88:	eedff06f          	jal	x0,0x5e74
    5f8c:	fe070593          	addi	x11,x14,-32 # 0x7fffe0
    5f90:	00b7d5b3          	srl	x11,x15,x11
    5f94:	00000313          	addi	x6,x0,0
    5f98:	01c70863          	beq	x14,x28,0x5fa8
    5f9c:	04000313          	addi	x6,x0,64
    5fa0:	40e30333          	sub	x6,x6,x14
    5fa4:	00679333          	sll	x6,x15,x6
    5fa8:	00a36333          	or	x6,x6,x10
    5fac:	00603333          	sltu	x6,x0,x6
    5fb0:	0065e5b3          	or	x11,x11,x6
    5fb4:	00000713          	addi	x14,x0,0
    5fb8:	fb5ff06f          	jal	x0,0x5f6c
    5fbc:	00a7e5b3          	or	x11,x15,x10
    5fc0:	00b035b3          	sltu	x11,x0,x11
    5fc4:	ff1ff06f          	jal	x0,0x5fb4
    5fc8:	00140713          	addi	x14,x8,1
    5fcc:	7fe77713          	andi	x14,x14,2046
    5fd0:	0a071063          	bne	x14,x0,0x6070
    5fd4:	00a7e8b3          	or	x17,x15,x10
    5fd8:	00c86733          	or	x14,x16,x12
    5fdc:	06041863          	bne	x8,x0,0x604c
    5fe0:	00089a63          	bne	x17,x0,0x5ff4
    5fe4:	00080793          	addi	x15,x16,0
    5fe8:	02071e63          	bne	x14,x0,0x6024
    5fec:	00000913          	addi	x18,x0,0
    5ff0:	1b40006f          	jal	x0,0x61a4
    5ff4:	18070c63          	beq	x14,x0,0x618c
    5ff8:	40c505b3          	sub	x11,x10,x12
    5ffc:	00b538b3          	sltu	x17,x10,x11
    6000:	41078733          	sub	x14,x15,x16
    6004:	41170733          	sub	x14,x14,x17
    6008:	00871893          	slli	x17,x14,0x8
    600c:	0208d663          	bge	x17,x0,0x6038
    6010:	40a60533          	sub	x10,x12,x10
    6014:	00a63733          	sltu	x14,x12,x10
    6018:	40f807b3          	sub	x15,x16,x15
    601c:	00050613          	addi	x12,x10,0
    6020:	40e787b3          	sub	x15,x15,x14
    6024:	00068913          	addi	x18,x13,0
    6028:	00f66733          	or	x14,x12,x15
    602c:	1a070063          	beq	x14,x0,0x61cc
    6030:	00000413          	addi	x8,x0,0
    6034:	d81ff06f          	jal	x0,0x5db4
    6038:	00e5e633          	or	x12,x11,x14
    603c:	18060263          	beq	x12,x0,0x61c0
    6040:	00070793          	addi	x15,x14,0
    6044:	00058613          	addi	x12,x11,0
    6048:	fe1ff06f          	jal	x0,0x6028
    604c:	00089e63          	bne	x17,x0,0x6068
    6050:	00068913          	addi	x18,x13,0
    6054:	14071063          	bne	x14,x0,0x6194
    6058:	00000913          	addi	x18,x0,0
    605c:	004007b7          	lui	x15,0x400
    6060:	00000613          	addi	x12,x0,0
    6064:	1340006f          	jal	x0,0x6198
    6068:	d0070ee3          	beq	x14,x0,0x5d84
    606c:	fedff06f          	jal	x0,0x6058
    6070:	40c50733          	sub	x14,x10,x12
    6074:	00e535b3          	sltu	x11,x10,x14
    6078:	410784b3          	sub	x9,x15,x16
    607c:	40b484b3          	sub	x9,x9,x11
    6080:	00849593          	slli	x11,x9,0x8
    6084:	00070993          	addi	x19,x14,0
    6088:	0605de63          	bge	x11,x0,0x6104
    608c:	40a609b3          	sub	x19,x12,x10
    6090:	40f804b3          	sub	x9,x16,x15
    6094:	01363633          	sltu	x12,x12,x19
    6098:	40c484b3          	sub	x9,x9,x12
    609c:	00068913          	addi	x18,x13,0
    60a0:	06048e63          	beq	x9,x0,0x611c
    60a4:	00048513          	addi	x10,x9,0
    60a8:	0d5010ef          	jal	x1,0x797c
    60ac:	ff850713          	addi	x14,x10,-8
    60b0:	02000793          	addi	x15,x0,32
    60b4:	40e787b3          	sub	x15,x15,x14
    60b8:	00e494b3          	sll	x9,x9,x14
    60bc:	00f9d7b3          	srl	x15,x19,x15
    60c0:	0097e7b3          	or	x15,x15,x9
    60c4:	00e99633          	sll	x12,x19,x14
    60c8:	0a874463          	blt	x14,x8,0x6170
    60cc:	40870733          	sub	x14,x14,x8
    60d0:	00170513          	addi	x10,x14,1
    60d4:	01f00693          	addi	x13,x0,31
    60d8:	02000593          	addi	x11,x0,32
    60dc:	06a6c263          	blt	x13,x10,0x6140
    60e0:	40a585b3          	sub	x11,x11,x10
    60e4:	00b79733          	sll	x14,x15,x11
    60e8:	00a656b3          	srl	x13,x12,x10
    60ec:	00b615b3          	sll	x11,x12,x11
    60f0:	00d76733          	or	x14,x14,x13
    60f4:	00b035b3          	sltu	x11,x0,x11
    60f8:	00b76633          	or	x12,x14,x11
    60fc:	00a7d7b3          	srl	x15,x15,x10
    6100:	f29ff06f          	jal	x0,0x6028
    6104:	00976633          	or	x12,x14,x9
    6108:	f8061ce3          	bne	x12,x0,0x60a0
    610c:	00000913          	addi	x18,x0,0
    6110:	00000793          	addi	x15,x0,0
    6114:	00000413          	addi	x8,x0,0
    6118:	bf1ff06f          	jal	x0,0x5d08
    611c:	00098513          	addi	x10,x19,0
    6120:	05d010ef          	jal	x1,0x797c
    6124:	01850713          	addi	x14,x10,24
    6128:	01f00793          	addi	x15,x0,31
    612c:	f8e7d2e3          	bge	x15,x14,0x60b0
    6130:	ff850793          	addi	x15,x10,-8
    6134:	00f997b3          	sll	x15,x19,x15
    6138:	00000613          	addi	x12,x0,0
    613c:	f8dff06f          	jal	x0,0x60c8
    6140:	fe170713          	addi	x14,x14,-31
    6144:	00e7d733          	srl	x14,x15,x14
    6148:	00000693          	addi	x13,x0,0
    614c:	00b50863          	beq	x10,x11,0x615c
    6150:	04000693          	addi	x13,x0,64
    6154:	40a686b3          	sub	x13,x13,x10
    6158:	00d796b3          	sll	x13,x15,x13
    615c:	00d666b3          	or	x13,x12,x13
    6160:	00d036b3          	sltu	x13,x0,x13
    6164:	00d76633          	or	x12,x14,x13
    6168:	00000793          	addi	x15,x0,0
    616c:	ebdff06f          	jal	x0,0x6028
    6170:	40e40433          	sub	x8,x8,x14
    6174:	ff800737          	lui	x14,0xff800
    6178:	fff70713          	addi	x14,x14,-1 # 0xff7fffff
    617c:	00e7f7b3          	and	x15,x15,x14
    6180:	c35ff06f          	jal	x0,0x5db4
    6184:	00080793          	addi	x15,x16,0
    6188:	ea1ff06f          	jal	x0,0x6028
    618c:	00050613          	addi	x12,x10,0
    6190:	e99ff06f          	jal	x0,0x6028
    6194:	00080793          	addi	x15,x16,0
    6198:	00058413          	addi	x8,x11,0
    619c:	b6dff06f          	jal	x0,0x5d08
    61a0:	00070413          	addi	x8,x14,0
    61a4:	00000793          	addi	x15,x0,0
    61a8:	00000613          	addi	x12,x0,0
    61ac:	b5dff06f          	jal	x0,0x5d08
    61b0:	00068913          	addi	x18,x13,0
    61b4:	00080793          	addi	x15,x16,0
    61b8:	00088413          	addi	x8,x17,0
    61bc:	b4dff06f          	jal	x0,0x5d08
    61c0:	00000913          	addi	x18,x0,0
    61c4:	00000793          	addi	x15,x0,0
    61c8:	b41ff06f          	jal	x0,0x5d08
    61cc:	00000793          	addi	x15,x0,0
    61d0:	00000613          	addi	x12,x0,0
    61d4:	f41ff06f          	jal	x0,0x6114
    61d8:	fd010113          	addi	x2,x2,-48
    61dc:	0145d713          	srli	x14,x11,0x14
    61e0:	02812423          	sw	x8,40(x2)
    61e4:	03212023          	sw	x18,32(x2)
    61e8:	01312e23          	sw	x19,28(x2)
    61ec:	01512a23          	sw	x21,20(x2)
    61f0:	01712623          	sw	x23,12(x2)
    61f4:	00c59413          	slli	x8,x11,0xc
    61f8:	02112623          	sw	x1,44(x2)
    61fc:	02912223          	sw	x9,36(x2)
    6200:	01412c23          	sw	x20,24(x2)
    6204:	01612823          	sw	x22,16(x2)
    6208:	7ff77713          	andi	x14,x14,2047
    620c:	00050993          	addi	x19,x10,0
    6210:	00060b93          	addi	x23,x12,0
    6214:	00068a93          	addi	x21,x13,0
    6218:	00c45413          	srli	x8,x8,0xc
    621c:	01f5d913          	srli	x18,x11,0x1f
    6220:	0a070063          	beq	x14,x0,0x62c0
    6224:	7ff00793          	addi	x15,x0,2047
    6228:	10f70063          	beq	x14,x15,0x6328
    622c:	01d55a13          	srli	x20,x10,0x1d
    6230:	00341413          	slli	x8,x8,0x3
    6234:	008a6a33          	or	x20,x20,x8
    6238:	008007b7          	lui	x15,0x800
    623c:	00fa6a33          	or	x20,x20,x15
    6240:	00351493          	slli	x9,x10,0x3
    6244:	c0170993          	addi	x19,x14,-1023
    6248:	00000b13          	addi	x22,x0,0
    624c:	014ad793          	srli	x15,x21,0x14
    6250:	00ca9413          	slli	x8,x21,0xc
    6254:	7ff7f793          	andi	x15,x15,2047
    6258:	00c45413          	srli	x8,x8,0xc
    625c:	01fada93          	srli	x21,x21,0x1f
    6260:	10078263          	beq	x15,x0,0x6364
    6264:	7ff00693          	addi	x13,x0,2047
    6268:	16d78663          	beq	x15,x13,0x63d4
    626c:	00341413          	slli	x8,x8,0x3
    6270:	01dbd693          	srli	x13,x23,0x1d
    6274:	0086e6b3          	or	x13,x13,x8
    6278:	00800437          	lui	x8,0x800
    627c:	0086e433          	or	x8,x13,x8
    6280:	003b9f13          	slli	x30,x23,0x3
    6284:	c0178793          	addi	x15,x15,-1023 # 0x7ffc01
    6288:	00000693          	addi	x13,x0,0
    628c:	40f98733          	sub	x14,x19,x15
    6290:	002b1793          	slli	x15,x22,0x2
    6294:	00d7e7b3          	or	x15,x15,x13
    6298:	fff78793          	addi	x15,x15,-1
    629c:	00e00613          	addi	x12,x0,14
    62a0:	01594833          	xor	x16,x18,x21
    62a4:	16f66063          	bltu	x12,x15,0x6404
    62a8:	00018637          	lui	x12,0x18
    62ac:	00279793          	slli	x15,x15,0x2
    62b0:	4fc60613          	addi	x12,x12,1276 # 0x184fc
    62b4:	00c787b3          	add	x15,x15,x12
    62b8:	0007a783          	lw	x15,0(x15)
    62bc:	00078067          	jalr	x0,0(x15)
    62c0:	00a46a33          	or	x20,x8,x10
    62c4:	060a0e63          	beq	x20,x0,0x6340
    62c8:	04040063          	beq	x8,x0,0x6308
    62cc:	00040513          	addi	x10,x8,0 # 0x800000
    62d0:	6ac010ef          	jal	x1,0x797c
    62d4:	00050793          	addi	x15,x10,0
    62d8:	ff550713          	addi	x14,x10,-11
    62dc:	01d00a13          	addi	x20,x0,29
    62e0:	ff878693          	addi	x13,x15,-8
    62e4:	40ea0a33          	sub	x20,x20,x14
    62e8:	00d41433          	sll	x8,x8,x13
    62ec:	0149da33          	srl	x20,x19,x20
    62f0:	008a6a33          	or	x20,x20,x8
    62f4:	00d99433          	sll	x8,x19,x13
    62f8:	c0d00713          	addi	x14,x0,-1011
    62fc:	40f709b3          	sub	x19,x14,x15
    6300:	00040493          	addi	x9,x8,0
    6304:	f45ff06f          	jal	x0,0x6248
    6308:	674010ef          	jal	x1,0x797c
    630c:	01550713          	addi	x14,x10,21
    6310:	01c00693          	addi	x13,x0,28
    6314:	02050793          	addi	x15,x10,32
    6318:	fce6d2e3          	bge	x13,x14,0x62dc
    631c:	ff850513          	addi	x10,x10,-8
    6320:	00a99a33          	sll	x20,x19,x10
    6324:	fd5ff06f          	jal	x0,0x62f8
    6328:	00a46a33          	or	x20,x8,x10
    632c:	020a1263          	bne	x20,x0,0x6350
    6330:	00000493          	addi	x9,x0,0
    6334:	00070993          	addi	x19,x14,0
    6338:	00200b13          	addi	x22,x0,2
    633c:	f11ff06f          	jal	x0,0x624c
    6340:	00000493          	addi	x9,x0,0
    6344:	00000993          	addi	x19,x0,0
    6348:	00100b13          	addi	x22,x0,1
    634c:	f01ff06f          	jal	x0,0x624c
    6350:	00050493          	addi	x9,x10,0
    6354:	00040a13          	addi	x20,x8,0
    6358:	00070993          	addi	x19,x14,0
    635c:	00300b13          	addi	x22,x0,3
    6360:	eedff06f          	jal	x0,0x624c
    6364:	01746f33          	or	x30,x8,x23
    6368:	080f0063          	beq	x30,x0,0x63e8
    636c:	04040263          	beq	x8,x0,0x63b0
    6370:	00040513          	addi	x10,x8,0
    6374:	608010ef          	jal	x1,0x797c
    6378:	00050693          	addi	x13,x10,0
    637c:	ff550793          	addi	x15,x10,-11
    6380:	01d00593          	addi	x11,x0,29
    6384:	ff868613          	addi	x12,x13,-8
    6388:	40f585b3          	sub	x11,x11,x15
    638c:	00c41433          	sll	x8,x8,x12
    6390:	00bbd5b3          	srl	x11,x23,x11
    6394:	0085e5b3          	or	x11,x11,x8
    6398:	00cb9433          	sll	x8,x23,x12
    639c:	c0d00793          	addi	x15,x0,-1011
    63a0:	00040f13          	addi	x30,x8,0
    63a4:	40d787b3          	sub	x15,x15,x13
    63a8:	00058413          	addi	x8,x11,0
    63ac:	eddff06f          	jal	x0,0x6288
    63b0:	000b8513          	addi	x10,x23,0
    63b4:	5c8010ef          	jal	x1,0x797c
    63b8:	01550793          	addi	x15,x10,21
    63bc:	01c00613          	addi	x12,x0,28
    63c0:	02050693          	addi	x13,x10,32
    63c4:	faf65ee3          	bge	x12,x15,0x6380
    63c8:	ff850593          	addi	x11,x10,-8
    63cc:	00bb95b3          	sll	x11,x23,x11
    63d0:	fcdff06f          	jal	x0,0x639c
    63d4:	01746f33          	or	x30,x8,x23
    63d8:	020f1063          	bne	x30,x0,0x63f8
    63dc:	00000413          	addi	x8,x0,0
    63e0:	00200693          	addi	x13,x0,2
    63e4:	ea9ff06f          	jal	x0,0x628c
    63e8:	00000413          	addi	x8,x0,0
    63ec:	00000793          	addi	x15,x0,0
    63f0:	00100693          	addi	x13,x0,1
    63f4:	e99ff06f          	jal	x0,0x628c
    63f8:	000b8f13          	addi	x30,x23,0
    63fc:	00300693          	addi	x13,x0,3
    6400:	e8dff06f          	jal	x0,0x628c
    6404:	01446663          	bltu	x8,x20,0x6410
    6408:	308a1863          	bne	x20,x8,0x6718
    640c:	31e4e663          	bltu	x9,x30,0x6718
    6410:	01fa1693          	slli	x13,x20,0x1f
    6414:	0014d793          	srli	x15,x9,0x1
    6418:	01f49613          	slli	x12,x9,0x1f
    641c:	001a5a13          	srli	x20,x20,0x1
    6420:	00f6e4b3          	or	x9,x13,x15
    6424:	00841893          	slli	x17,x8,0x8
    6428:	018f5693          	srli	x13,x30,0x18
    642c:	0116e6b3          	or	x13,x13,x17
    6430:	0108d893          	srli	x17,x17,0x10
    6434:	031a55b3          	divu	x11,x20,x17
    6438:	01069e93          	slli	x29,x13,0x10
    643c:	010ede93          	srli	x29,x29,0x10
    6440:	0104d793          	srli	x15,x9,0x10
    6444:	008f1513          	slli	x10,x30,0x8
    6448:	031a7a33          	remu	x20,x20,x17
    644c:	02be8333          	mul	x6,x29,x11
    6450:	010a1a13          	slli	x20,x20,0x10
    6454:	0147e7b3          	or	x15,x15,x20
    6458:	0067fa63          	bgeu	x15,x6,0x646c
    645c:	00f687b3          	add	x15,x13,x15
    6460:	00d7e463          	bltu	x15,x13,0x6468
    6464:	2c67e063          	bltu	x15,x6,0x6724
    6468:	fff58593          	addi	x11,x11,-1
    646c:	406787b3          	sub	x15,x15,x6
    6470:	0317d333          	divu	x6,x15,x17
    6474:	01049493          	slli	x9,x9,0x10
    6478:	0104d493          	srli	x9,x9,0x10
    647c:	0317f7b3          	remu	x15,x15,x17
    6480:	026e8e33          	mul	x28,x29,x6
    6484:	01079793          	slli	x15,x15,0x10
    6488:	00f4e4b3          	or	x9,x9,x15
    648c:	01c4fa63          	bgeu	x9,x28,0x64a0
    6490:	009684b3          	add	x9,x13,x9
    6494:	01c4f463          	bgeu	x9,x28,0x649c
    6498:	28d4fc63          	bgeu	x9,x13,0x6730
    649c:	fff30313          	addi	x6,x6,-1
    64a0:	01059593          	slli	x11,x11,0x10
    64a4:	0065e5b3          	or	x11,x11,x6
    64a8:	41c484b3          	sub	x9,x9,x28
    64ac:	01059793          	slli	x15,x11,0x10
    64b0:	01051e13          	slli	x28,x10,0x10
    64b4:	0105df93          	srli	x31,x11,0x10
    64b8:	01055313          	srli	x6,x10,0x10
    64bc:	0107d793          	srli	x15,x15,0x10
    64c0:	010e5e13          	srli	x28,x28,0x10
    64c4:	03c782b3          	mul	x5,x15,x28
    64c8:	03cf83b3          	mul	x7,x31,x28
    64cc:	02f307b3          	mul	x15,x6,x15
    64d0:	00778f33          	add	x30,x15,x7
    64d4:	0102d793          	srli	x15,x5,0x10
    64d8:	01e787b3          	add	x15,x15,x30
    64dc:	026f8fb3          	mul	x31,x31,x6
    64e0:	0077f663          	bgeu	x15,x7,0x64ec
    64e4:	00010f37          	lui	x30,0x10
    64e8:	01ef8fb3          	add	x31,x31,x30
    64ec:	0107df13          	srli	x30,x15,0x10
    64f0:	01029293          	slli	x5,x5,0x10
    64f4:	01079793          	slli	x15,x15,0x10
    64f8:	0102d293          	srli	x5,x5,0x10
    64fc:	01ff0f33          	add	x30,x30,x31
    6500:	005787b3          	add	x15,x15,x5
    6504:	01e4e663          	bltu	x9,x30,0x6510
    6508:	23e49a63          	bne	x9,x30,0x673c
    650c:	22f67863          	bgeu	x12,x15,0x673c
    6510:	00a60fb3          	add	x31,x12,x10
    6514:	00cfb2b3          	sltu	x5,x31,x12
    6518:	00d283b3          	add	x7,x5,x13
    651c:	007484b3          	add	x9,x9,x7
    6520:	fff58413          	addi	x8,x11,-1
    6524:	000f8613          	addi	x12,x31,0
    6528:	0096e663          	bltu	x13,x9,0x6534
    652c:	02029463          	bne	x5,x0,0x6554
    6530:	02969263          	bne	x13,x9,0x6554
    6534:	01e4e663          	bltu	x9,x30,0x6540
    6538:	009f1e63          	bne	x30,x9,0x6554
    653c:	00fffc63          	bgeu	x31,x15,0x6554
    6540:	01f50633          	add	x12,x10,x31
    6544:	ffe58413          	addi	x8,x11,-2
    6548:	00a635b3          	sltu	x11,x12,x10
    654c:	00d585b3          	add	x11,x11,x13
    6550:	00b484b3          	add	x9,x9,x11
    6554:	40f607b3          	sub	x15,x12,x15
    6558:	41e484b3          	sub	x9,x9,x30
    655c:	00f63633          	sltu	x12,x12,x15
    6560:	40c484b3          	sub	x9,x9,x12
    6564:	fff00f13          	addi	x30,x0,-1
    6568:	10968663          	beq	x13,x9,0x6674
    656c:	0314d5b3          	divu	x11,x9,x17
    6570:	0107d613          	srli	x12,x15,0x10
    6574:	0314f4b3          	remu	x9,x9,x17
    6578:	02be8f33          	mul	x30,x29,x11
    657c:	01049493          	slli	x9,x9,0x10
    6580:	00966633          	or	x12,x12,x9
    6584:	01e67a63          	bgeu	x12,x30,0x6598
    6588:	00c68633          	add	x12,x13,x12
    658c:	00d66463          	bltu	x12,x13,0x6594
    6590:	1be66a63          	bltu	x12,x30,0x6744
    6594:	fff58593          	addi	x11,x11,-1
    6598:	41e60633          	sub	x12,x12,x30
    659c:	03165f33          	divu	x30,x12,x17
    65a0:	01079793          	slli	x15,x15,0x10
    65a4:	0107d793          	srli	x15,x15,0x10
    65a8:	03167633          	remu	x12,x12,x17
    65ac:	03ee8eb3          	mul	x29,x29,x30
    65b0:	01061613          	slli	x12,x12,0x10
    65b4:	00c7e7b3          	or	x15,x15,x12
    65b8:	01d7fa63          	bgeu	x15,x29,0x65cc
    65bc:	00f687b3          	add	x15,x13,x15
    65c0:	01d7f463          	bgeu	x15,x29,0x65c8
    65c4:	18d7f663          	bgeu	x15,x13,0x6750
    65c8:	ffff0f13          	addi	x30,x30,-1 # 0xffff
    65cc:	01059613          	slli	x12,x11,0x10
    65d0:	01e66633          	or	x12,x12,x30
    65d4:	01061593          	slli	x11,x12,0x10
    65d8:	0105d593          	srli	x11,x11,0x10
    65dc:	41d787b3          	sub	x15,x15,x29
    65e0:	01065e93          	srli	x29,x12,0x10
    65e4:	02be0f33          	mul	x30,x28,x11
    65e8:	03ce8e33          	mul	x28,x29,x28
    65ec:	03d30eb3          	mul	x29,x6,x29
    65f0:	02b30333          	mul	x6,x6,x11
    65f4:	010f5593          	srli	x11,x30,0x10
    65f8:	01c30333          	add	x6,x6,x28
    65fc:	006585b3          	add	x11,x11,x6
    6600:	01c5f663          	bgeu	x11,x28,0x660c
    6604:	000108b7          	lui	x17,0x10
    6608:	011e8eb3          	add	x29,x29,x17
    660c:	0105d893          	srli	x17,x11,0x10
    6610:	010f1f13          	slli	x30,x30,0x10
    6614:	01059593          	slli	x11,x11,0x10
    6618:	010f5f13          	srli	x30,x30,0x10
    661c:	01d888b3          	add	x17,x17,x29
    6620:	01e585b3          	add	x11,x11,x30
    6624:	0117e663          	bltu	x15,x17,0x6630
    6628:	05179463          	bne	x15,x17,0x6670
    662c:	12058863          	beq	x11,x0,0x675c
    6630:	00f68333          	add	x6,x13,x15
    6634:	fff60f13          	addi	x30,x12,-1
    6638:	00030793          	addi	x15,x6,0
    663c:	02d36463          	bltu	x6,x13,0x6664
    6640:	01136663          	bltu	x6,x17,0x664c
    6644:	03131463          	bne	x6,x17,0x666c
    6648:	00b57e63          	bgeu	x10,x11,0x6664
    664c:	ffe60f13          	addi	x30,x12,-2
    6650:	00151613          	slli	x12,x10,0x1
    6654:	00a637b3          	sltu	x15,x12,x10
    6658:	00d787b3          	add	x15,x15,x13
    665c:	00f307b3          	add	x15,x6,x15
    6660:	00060513          	addi	x10,x12,0
    6664:	00b51463          	bne	x10,x11,0x666c
    6668:	01178663          	beq	x15,x17,0x6674
    666c:	000f0613          	addi	x12,x30,0
    6670:	00166f13          	ori	x30,x12,1
    6674:	3ff70793          	addi	x15,x14,1023
    6678:	12f05663          	bge	x0,x15,0x67a4
    667c:	007f7693          	andi	x13,x30,7
    6680:	02068063          	beq	x13,x0,0x66a0
    6684:	00ff7693          	andi	x13,x30,15
    6688:	00400613          	addi	x12,x0,4
    668c:	00c68a63          	beq	x13,x12,0x66a0
    6690:	00cf06b3          	add	x13,x30,x12
    6694:	01e6b633          	sltu	x12,x13,x30
    6698:	00c40433          	add	x8,x8,x12
    669c:	00068f13          	addi	x30,x13,0
    66a0:	00741693          	slli	x13,x8,0x7
    66a4:	0006da63          	bge	x13,x0,0x66b8
    66a8:	ff0007b7          	lui	x15,0xff000
    66ac:	fff78793          	addi	x15,x15,-1 # 0xfeffffff
    66b0:	00f47433          	and	x8,x8,x15
    66b4:	40070793          	addi	x15,x14,1024
    66b8:	7fe00713          	addi	x14,x0,2046
    66bc:	1af74a63          	blt	x14,x15,0x6870
    66c0:	01d41713          	slli	x14,x8,0x1d
    66c4:	003f5f13          	srli	x30,x30,0x3
    66c8:	01e76733          	or	x14,x14,x30
    66cc:	00345413          	srli	x8,x8,0x3
    66d0:	00c41413          	slli	x8,x8,0xc
    66d4:	00c45413          	srli	x8,x8,0xc
    66d8:	01479793          	slli	x15,x15,0x14
    66dc:	02c12083          	lw	x1,44(x2)
    66e0:	0087e7b3          	or	x15,x15,x8
    66e4:	02812403          	lw	x8,40(x2)
    66e8:	01f81813          	slli	x16,x16,0x1f
    66ec:	02412483          	lw	x9,36(x2)
    66f0:	02012903          	lw	x18,32(x2)
    66f4:	01c12983          	lw	x19,28(x2)
    66f8:	01812a03          	lw	x20,24(x2)
    66fc:	01412a83          	lw	x21,20(x2)
    6700:	01012b03          	lw	x22,16(x2)
    6704:	00c12b83          	lw	x23,12(x2)
    6708:	00070513          	addi	x10,x14,0
    670c:	0107e5b3          	or	x11,x15,x16
    6710:	03010113          	addi	x2,x2,48
    6714:	00008067          	jalr	x0,0(x1)
    6718:	fff70713          	addi	x14,x14,-1
    671c:	00000613          	addi	x12,x0,0
    6720:	d05ff06f          	jal	x0,0x6424
    6724:	ffe58593          	addi	x11,x11,-2
    6728:	00d787b3          	add	x15,x15,x13
    672c:	d41ff06f          	jal	x0,0x646c
    6730:	ffe30313          	addi	x6,x6,-2
    6734:	00d484b3          	add	x9,x9,x13
    6738:	d69ff06f          	jal	x0,0x64a0
    673c:	00058413          	addi	x8,x11,0
    6740:	e15ff06f          	jal	x0,0x6554
    6744:	ffe58593          	addi	x11,x11,-2
    6748:	00d60633          	add	x12,x12,x13
    674c:	e4dff06f          	jal	x0,0x6598
    6750:	ffef0f13          	addi	x30,x30,-2
    6754:	00d787b3          	add	x15,x15,x13
    6758:	e75ff06f          	jal	x0,0x65cc
    675c:	00000513          	addi	x10,x0,0
    6760:	00060f13          	addi	x30,x12,0
    6764:	f01ff06f          	jal	x0,0x6664
    6768:	000a8813          	addi	x16,x21,0
    676c:	00068b13          	addi	x22,x13,0
    6770:	00200793          	addi	x15,x0,2
    6774:	0efb0e63          	beq	x22,x15,0x6870
    6778:	00300793          	addi	x15,x0,3
    677c:	0efb0063          	beq	x22,x15,0x685c
    6780:	00100793          	addi	x15,x0,1
    6784:	eefb18e3          	bne	x22,x15,0x6674
    6788:	00000413          	addi	x8,x0,0
    678c:	00000713          	addi	x14,x0,0
    6790:	08c0006f          	jal	x0,0x681c
    6794:	00090813          	addi	x16,x18,0
    6798:	000a0413          	addi	x8,x20,0
    679c:	00048f13          	addi	x30,x9,0
    67a0:	fd1ff06f          	jal	x0,0x6770
    67a4:	08078063          	beq	x15,x0,0x6824
    67a8:	fc900693          	addi	x13,x0,-55
    67ac:	fcd7cee3          	blt	x15,x13,0x6788
    67b0:	fe200693          	addi	x13,x0,-30
    67b4:	06d7cc63          	blt	x15,x13,0x682c
    67b8:	00100693          	addi	x13,x0,1
    67bc:	40f686b3          	sub	x13,x13,x15
    67c0:	41e70713          	addi	x14,x14,1054
    67c4:	00df57b3          	srl	x15,x30,x13
    67c8:	00ef1f33          	sll	x30,x30,x14
    67cc:	01e03f33          	sltu	x30,x0,x30
    67d0:	00e41733          	sll	x14,x8,x14
    67d4:	00ef6f33          	or	x30,x30,x14
    67d8:	01e7e7b3          	or	x15,x15,x30
    67dc:	00d45433          	srl	x8,x8,x13
    67e0:	0077f713          	andi	x14,x15,7
    67e4:	02070063          	beq	x14,x0,0x6804
    67e8:	00f7f713          	andi	x14,x15,15
    67ec:	00400693          	addi	x13,x0,4
    67f0:	00d70a63          	beq	x14,x13,0x6804
    67f4:	00d78733          	add	x14,x15,x13
    67f8:	00f736b3          	sltu	x13,x14,x15
    67fc:	00d40433          	add	x8,x8,x13
    6800:	00070793          	addi	x15,x14,0
    6804:	00841713          	slli	x14,x8,0x8
    6808:	06074c63          	blt	x14,x0,0x6880
    680c:	01d41713          	slli	x14,x8,0x1d
    6810:	0037d793          	srli	x15,x15,0x3
    6814:	00f76733          	or	x14,x14,x15
    6818:	00345413          	srli	x8,x8,0x3
    681c:	00000793          	addi	x15,x0,0
    6820:	eb1ff06f          	jal	x0,0x66d0
    6824:	00100693          	addi	x13,x0,1
    6828:	f99ff06f          	jal	x0,0x67c0
    682c:	fe100593          	addi	x11,x0,-31
    6830:	40f586b3          	sub	x13,x11,x15
    6834:	00d456b3          	srl	x13,x8,x13
    6838:	00000613          	addi	x12,x0,0
    683c:	00b78663          	beq	x15,x11,0x6848
    6840:	43e70713          	addi	x14,x14,1086
    6844:	00e41633          	sll	x12,x8,x14
    6848:	01e66633          	or	x12,x12,x30
    684c:	00c03633          	sltu	x12,x0,x12
    6850:	00c6e7b3          	or	x15,x13,x12
    6854:	00000413          	addi	x8,x0,0
    6858:	f89ff06f          	jal	x0,0x67e0
    685c:	00080437          	lui	x8,0x80
    6860:	00000713          	addi	x14,x0,0
    6864:	7ff00793          	addi	x15,x0,2047
    6868:	00000813          	addi	x16,x0,0
    686c:	e65ff06f          	jal	x0,0x66d0
    6870:	00000413          	addi	x8,x0,0
    6874:	00000713          	addi	x14,x0,0
    6878:	7ff00793          	addi	x15,x0,2047
    687c:	e55ff06f          	jal	x0,0x66d0
    6880:	00000413          	addi	x8,x0,0
    6884:	00000713          	addi	x14,x0,0
    6888:	00100793          	addi	x15,x0,1
    688c:	e45ff06f          	jal	x0,0x66d0
    6890:	001007b7          	lui	x15,0x100
    6894:	0145d813          	srli	x16,x11,0x14
    6898:	fff78793          	addi	x15,x15,-1 # 0xfffff
    689c:	0146d313          	srli	x6,x13,0x14
    68a0:	7ff87813          	andi	x16,x16,2047
    68a4:	7ff00e93          	addi	x29,x0,2047
    68a8:	00b7f733          	and	x14,x15,x11
    68ac:	00050893          	addi	x17,x10,0
    68b0:	01f5df93          	srli	x31,x11,0x1f
    68b4:	00d7f7b3          	and	x15,x15,x13
    68b8:	7ff37313          	andi	x6,x6,2047
    68bc:	01f6df13          	srli	x30,x13,0x1f
    68c0:	01d81863          	bne	x16,x29,0x68d0
    68c4:	00a76e33          	or	x28,x14,x10
    68c8:	00100513          	addi	x10,x0,1
    68cc:	040e1263          	bne	x28,x0,0x6910
    68d0:	01d31863          	bne	x6,x29,0x68e0
    68d4:	00c7e7b3          	or	x15,x15,x12
    68d8:	00100513          	addi	x10,x0,1
    68dc:	02079a63          	bne	x15,x0,0x6910
    68e0:	00b6c6b3          	xor	x13,x13,x11
    68e4:	00169693          	slli	x13,x13,0x1
    68e8:	02069263          	bne	x13,x0,0x690c
    68ec:	03161063          	bne	x12,x17,0x690c
    68f0:	00000513          	addi	x10,x0,0
    68f4:	01ef8e63          	beq	x31,x30,0x6910
    68f8:	00100513          	addi	x10,x0,1
    68fc:	00081a63          	bne	x16,x0,0x6910
    6900:	01176733          	or	x14,x14,x17
    6904:	00e03533          	sltu	x10,x0,x14
    6908:	00008067          	jalr	x0,0(x1)
    690c:	00100513          	addi	x10,x0,1
    6910:	00008067          	jalr	x0,0(x1)
    6914:	0145d893          	srli	x17,x11,0x14
    6918:	00100737          	lui	x14,0x100
    691c:	fff70713          	addi	x14,x14,-1 # 0xfffff
    6920:	0146d813          	srli	x16,x13,0x14
    6924:	7ff8f893          	andi	x17,x17,2047
    6928:	7ff00793          	addi	x15,x0,2047
    692c:	00b77333          	and	x6,x14,x11
    6930:	7ff87813          	andi	x16,x16,2047
    6934:	00d77733          	and	x14,x14,x13
    6938:	01f5d593          	srli	x11,x11,0x1f
    693c:	01f6d693          	srli	x13,x13,0x1f
    6940:	02f88063          	beq	x17,x15,0x6960
    6944:	7ff00e13          	addi	x28,x0,2047
    6948:	00080793          	addi	x15,x16,0
    694c:	03c81463          	bne	x16,x28,0x6974
    6950:	00c76e33          	or	x28,x14,x12
    6954:	020e0063          	beq	x28,x0,0x6974
    6958:	ffe00793          	addi	x15,x0,-2
    695c:	0100006f          	jal	x0,0x696c
    6960:	00a36e33          	or	x28,x6,x10
    6964:	ffe00793          	addi	x15,x0,-2
    6968:	fc0e0ee3          	beq	x28,x0,0x6944
    696c:	00078513          	addi	x10,x15,0
    6970:	00008067          	jalr	x0,0(x1)
    6974:	00000e13          	addi	x28,x0,0
    6978:	00089663          	bne	x17,x0,0x6984
    697c:	00a36e33          	or	x28,x6,x10
    6980:	001e3e13          	sltiu	x28,x28,1
    6984:	04081863          	bne	x16,x0,0x69d4
    6988:	00c76eb3          	or	x29,x14,x12
    698c:	000e0a63          	beq	x28,x0,0x69a0
    6990:	fc0e8ee3          	beq	x29,x0,0x696c
    6994:	00169793          	slli	x15,x13,0x1
    6998:	fff78793          	addi	x15,x15,-1
    699c:	fd1ff06f          	jal	x0,0x696c
    69a0:	020e9c63          	bne	x29,x0,0x69d8
    69a4:	40b005b3          	sub	x11,x0,x11
    69a8:	0015e793          	ori	x15,x11,1
    69ac:	fc1ff06f          	jal	x0,0x696c
    69b0:	ff08c2e3          	blt	x17,x16,0x6994
    69b4:	fe6768e3          	bltu	x14,x6,0x69a4
    69b8:	00a67463          	bgeu	x12,x10,0x69c0
    69bc:	fee304e3          	beq	x6,x14,0x69a4
    69c0:	00c56663          	bltu	x10,x12,0x69cc
    69c4:	00000793          	addi	x15,x0,0
    69c8:	fae372e3          	bgeu	x6,x14,0x696c
    69cc:	00159793          	slli	x15,x11,0x1
    69d0:	fc9ff06f          	jal	x0,0x6998
    69d4:	fc0e10e3          	bne	x28,x0,0x6994
    69d8:	fcb696e3          	bne	x13,x11,0x69a4
    69dc:	fd185ae3          	bge	x16,x17,0x69b0
    69e0:	40d006b3          	sub	x13,x0,x13
    69e4:	0016e793          	ori	x15,x13,1
    69e8:	f85ff06f          	jal	x0,0x696c
    69ec:	0145d893          	srli	x17,x11,0x14
    69f0:	00100737          	lui	x14,0x100
    69f4:	fff70713          	addi	x14,x14,-1 # 0xfffff
    69f8:	0146d813          	srli	x16,x13,0x14
    69fc:	7ff8f893          	andi	x17,x17,2047
    6a00:	7ff00793          	addi	x15,x0,2047
    6a04:	00b77333          	and	x6,x14,x11
    6a08:	7ff87813          	andi	x16,x16,2047
    6a0c:	00d77733          	and	x14,x14,x13
    6a10:	01f5d593          	srli	x11,x11,0x1f
    6a14:	01f6d693          	srli	x13,x13,0x1f
    6a18:	02f88063          	beq	x17,x15,0x6a38
    6a1c:	7ff00e13          	addi	x28,x0,2047
    6a20:	00080793          	addi	x15,x16,0
    6a24:	03c81463          	bne	x16,x28,0x6a4c
    6a28:	00c76e33          	or	x28,x14,x12
    6a2c:	020e0063          	beq	x28,x0,0x6a4c
    6a30:	00200793          	addi	x15,x0,2
    6a34:	0100006f          	jal	x0,0x6a44
    6a38:	00a36e33          	or	x28,x6,x10
    6a3c:	00200793          	addi	x15,x0,2
    6a40:	fc0e0ee3          	beq	x28,x0,0x6a1c
    6a44:	00078513          	addi	x10,x15,0
    6a48:	00008067          	jalr	x0,0(x1)
    6a4c:	00000e13          	addi	x28,x0,0
    6a50:	00089663          	bne	x17,x0,0x6a5c
    6a54:	00a36e33          	or	x28,x6,x10
    6a58:	001e3e13          	sltiu	x28,x28,1
    6a5c:	04081863          	bne	x16,x0,0x6aac
    6a60:	00c76eb3          	or	x29,x14,x12
    6a64:	000e0a63          	beq	x28,x0,0x6a78
    6a68:	fc0e8ee3          	beq	x29,x0,0x6a44
    6a6c:	00169793          	slli	x15,x13,0x1
    6a70:	fff78793          	addi	x15,x15,-1
    6a74:	fd1ff06f          	jal	x0,0x6a44
    6a78:	020e9c63          	bne	x29,x0,0x6ab0
    6a7c:	40b005b3          	sub	x11,x0,x11
    6a80:	0015e793          	ori	x15,x11,1
    6a84:	fc1ff06f          	jal	x0,0x6a44
    6a88:	ff08c2e3          	blt	x17,x16,0x6a6c
    6a8c:	fe6768e3          	bltu	x14,x6,0x6a7c
    6a90:	00a67463          	bgeu	x12,x10,0x6a98
    6a94:	fee304e3          	beq	x6,x14,0x6a7c
    6a98:	00c56663          	bltu	x10,x12,0x6aa4
    6a9c:	00000793          	addi	x15,x0,0
    6aa0:	fae372e3          	bgeu	x6,x14,0x6a44
    6aa4:	00159793          	slli	x15,x11,0x1
    6aa8:	fc9ff06f          	jal	x0,0x6a70
    6aac:	fc0e10e3          	bne	x28,x0,0x6a6c
    6ab0:	fcb696e3          	bne	x13,x11,0x6a7c
    6ab4:	fd185ae3          	bge	x16,x17,0x6a88
    6ab8:	40d006b3          	sub	x13,x0,x13
    6abc:	0016e793          	ori	x15,x13,1
    6ac0:	f85ff06f          	jal	x0,0x6a44
    6ac4:	fd010113          	addi	x2,x2,-48
    6ac8:	01312e23          	sw	x19,28(x2)
    6acc:	0145d993          	srli	x19,x11,0x14
    6ad0:	02812423          	sw	x8,40(x2)
    6ad4:	02912223          	sw	x9,36(x2)
    6ad8:	01412c23          	sw	x20,24(x2)
    6adc:	01512a23          	sw	x21,20(x2)
    6ae0:	01712623          	sw	x23,12(x2)
    6ae4:	00c59493          	slli	x9,x11,0xc
    6ae8:	02112623          	sw	x1,44(x2)
    6aec:	03212023          	sw	x18,32(x2)
    6af0:	01612823          	sw	x22,16(x2)
    6af4:	7ff9f993          	andi	x19,x19,2047
    6af8:	00050413          	addi	x8,x10,0
    6afc:	00060b93          	addi	x23,x12,0
    6b00:	00068a13          	addi	x20,x13,0
    6b04:	00c4d493          	srli	x9,x9,0xc
    6b08:	01f5da93          	srli	x21,x11,0x1f
    6b0c:	0c098263          	beq	x19,x0,0x6bd0
    6b10:	7ff00793          	addi	x15,x0,2047
    6b14:	12f98463          	beq	x19,x15,0x6c3c
    6b18:	00349493          	slli	x9,x9,0x3
    6b1c:	01d55793          	srli	x15,x10,0x1d
    6b20:	0097e7b3          	or	x15,x15,x9
    6b24:	008004b7          	lui	x9,0x800
    6b28:	0097e4b3          	or	x9,x15,x9
    6b2c:	00351913          	slli	x18,x10,0x3
    6b30:	c0198993          	addi	x19,x19,-1023
    6b34:	00000b13          	addi	x22,x0,0
    6b38:	014a5713          	srli	x14,x20,0x14
    6b3c:	00ca1413          	slli	x8,x20,0xc
    6b40:	7ff77713          	andi	x14,x14,2047
    6b44:	00c45413          	srli	x8,x8,0xc
    6b48:	01fa5a13          	srli	x20,x20,0x1f
    6b4c:	12070063          	beq	x14,x0,0x6c6c
    6b50:	7ff00793          	addi	x15,x0,2047
    6b54:	18f70463          	beq	x14,x15,0x6cdc
    6b58:	00341413          	slli	x8,x8,0x3
    6b5c:	01dbd793          	srli	x15,x23,0x1d
    6b60:	0087e7b3          	or	x15,x15,x8
    6b64:	00800437          	lui	x8,0x800
    6b68:	0087e433          	or	x8,x15,x8
    6b6c:	c0170713          	addi	x14,x14,-1023
    6b70:	003b9793          	slli	x15,x23,0x3
    6b74:	00000813          	addi	x16,x0,0
    6b78:	00e989b3          	add	x19,x19,x14
    6b7c:	002b1713          	slli	x14,x22,0x2
    6b80:	01076733          	or	x14,x14,x16
    6b84:	00a00693          	addi	x13,x0,10
    6b88:	00198513          	addi	x10,x19,1
    6b8c:	1ae6c263          	blt	x13,x14,0x6d30
    6b90:	00200613          	addi	x12,x0,2
    6b94:	014ac5b3          	xor	x11,x21,x20
    6b98:	00100693          	addi	x13,x0,1
    6b9c:	16e64863          	blt	x12,x14,0x6d0c
    6ba0:	fff70713          	addi	x14,x14,-1
    6ba4:	1ae6e663          	bltu	x13,x14,0x6d50
    6ba8:	00080b13          	addi	x22,x16,0
    6bac:	00200713          	addi	x14,x0,2
    6bb0:	4ceb0e63          	beq	x22,x14,0x708c
    6bb4:	00300713          	addi	x14,x0,3
    6bb8:	4ceb0463          	beq	x22,x14,0x7080
    6bbc:	00100713          	addi	x14,x0,1
    6bc0:	34eb1463          	bne	x22,x14,0x6f08
    6bc4:	00000413          	addi	x8,x0,0
    6bc8:	00000613          	addi	x12,x0,0
    6bcc:	4640006f          	jal	x0,0x7030
    6bd0:	00a4e933          	or	x18,x9,x10
    6bd4:	06090e63          	beq	x18,x0,0x6c50
    6bd8:	04048263          	beq	x9,x0,0x6c1c
    6bdc:	00048513          	addi	x10,x9,0 # 0x800000
    6be0:	59d000ef          	jal	x1,0x797c
    6be4:	00050713          	addi	x14,x10,0
    6be8:	ff550693          	addi	x13,x10,-11
    6bec:	01d00793          	addi	x15,x0,29
    6bf0:	ff870613          	addi	x12,x14,-8
    6bf4:	40d787b3          	sub	x15,x15,x13
    6bf8:	00c494b3          	sll	x9,x9,x12
    6bfc:	00f457b3          	srl	x15,x8,x15
    6c00:	0097e7b3          	or	x15,x15,x9
    6c04:	00c414b3          	sll	x9,x8,x12
    6c08:	c0d00993          	addi	x19,x0,-1011
    6c0c:	00048913          	addi	x18,x9,0
    6c10:	40e989b3          	sub	x19,x19,x14
    6c14:	00078493          	addi	x9,x15,0
    6c18:	f1dff06f          	jal	x0,0x6b34
    6c1c:	561000ef          	jal	x1,0x797c
    6c20:	01550693          	addi	x13,x10,21
    6c24:	01c00793          	addi	x15,x0,28
    6c28:	02050713          	addi	x14,x10,32
    6c2c:	fcd7d0e3          	bge	x15,x13,0x6bec
    6c30:	ff850793          	addi	x15,x10,-8
    6c34:	00f417b3          	sll	x15,x8,x15
    6c38:	fd1ff06f          	jal	x0,0x6c08
    6c3c:	00a4e933          	or	x18,x9,x10
    6c40:	02091063          	bne	x18,x0,0x6c60
    6c44:	00000493          	addi	x9,x0,0
    6c48:	00200b13          	addi	x22,x0,2
    6c4c:	eedff06f          	jal	x0,0x6b38
    6c50:	00000493          	addi	x9,x0,0
    6c54:	00000993          	addi	x19,x0,0
    6c58:	00100b13          	addi	x22,x0,1
    6c5c:	eddff06f          	jal	x0,0x6b38
    6c60:	00050913          	addi	x18,x10,0
    6c64:	00300b13          	addi	x22,x0,3
    6c68:	ed1ff06f          	jal	x0,0x6b38
    6c6c:	017467b3          	or	x15,x8,x23
    6c70:	08078063          	beq	x15,x0,0x6cf0
    6c74:	04040263          	beq	x8,x0,0x6cb8
    6c78:	00040513          	addi	x10,x8,0 # 0x800000
    6c7c:	501000ef          	jal	x1,0x797c
    6c80:	00050793          	addi	x15,x10,0
    6c84:	ff550713          	addi	x14,x10,-11
    6c88:	01d00693          	addi	x13,x0,29
    6c8c:	ff878613          	addi	x12,x15,-8
    6c90:	40e686b3          	sub	x13,x13,x14
    6c94:	00c41433          	sll	x8,x8,x12
    6c98:	00dbd6b3          	srl	x13,x23,x13
    6c9c:	0086e6b3          	or	x13,x13,x8
    6ca0:	00cb9433          	sll	x8,x23,x12
    6ca4:	c0d00713          	addi	x14,x0,-1011
    6ca8:	40f70733          	sub	x14,x14,x15
    6cac:	00040793          	addi	x15,x8,0
    6cb0:	00068413          	addi	x8,x13,0
    6cb4:	ec1ff06f          	jal	x0,0x6b74
    6cb8:	000b8513          	addi	x10,x23,0
    6cbc:	4c1000ef          	jal	x1,0x797c
    6cc0:	01550713          	addi	x14,x10,21
    6cc4:	01c00693          	addi	x13,x0,28
    6cc8:	02050793          	addi	x15,x10,32
    6ccc:	fae6dee3          	bge	x13,x14,0x6c88
    6cd0:	ff850693          	addi	x13,x10,-8
    6cd4:	00db96b3          	sll	x13,x23,x13
    6cd8:	fcdff06f          	jal	x0,0x6ca4
    6cdc:	017467b3          	or	x15,x8,x23
    6ce0:	02079063          	bne	x15,x0,0x6d00
    6ce4:	00000413          	addi	x8,x0,0
    6ce8:	00200813          	addi	x16,x0,2
    6cec:	e8dff06f          	jal	x0,0x6b78
    6cf0:	00000413          	addi	x8,x0,0
    6cf4:	00000713          	addi	x14,x0,0
    6cf8:	00100813          	addi	x16,x0,1
    6cfc:	e7dff06f          	jal	x0,0x6b78
    6d00:	000b8793          	addi	x15,x23,0
    6d04:	00300813          	addi	x16,x0,3
    6d08:	e71ff06f          	jal	x0,0x6b78
    6d0c:	00e69733          	sll	x14,x13,x14
    6d10:	53077613          	andi	x12,x14,1328
    6d14:	02061863          	bne	x12,x0,0x6d44
    6d18:	24077693          	andi	x13,x14,576
    6d1c:	34069a63          	bne	x13,x0,0x7070
    6d20:	08877713          	andi	x14,x14,136
    6d24:	02070663          	beq	x14,x0,0x6d50
    6d28:	000a0593          	addi	x11,x20,0
    6d2c:	e7dff06f          	jal	x0,0x6ba8
    6d30:	00f00693          	addi	x13,x0,15
    6d34:	34d70663          	beq	x14,x13,0x7080
    6d38:	00b00693          	addi	x13,x0,11
    6d3c:	000a8593          	addi	x11,x21,0
    6d40:	fed704e3          	beq	x14,x13,0x6d28
    6d44:	00048413          	addi	x8,x9,0
    6d48:	00090793          	addi	x15,x18,0
    6d4c:	e61ff06f          	jal	x0,0x6bac
    6d50:	01095893          	srli	x17,x18,0x10
    6d54:	01079e13          	slli	x28,x15,0x10
    6d58:	01091913          	slli	x18,x18,0x10
    6d5c:	0107d613          	srli	x12,x15,0x10
    6d60:	01095913          	srli	x18,x18,0x10
    6d64:	010e5e13          	srli	x28,x28,0x10
    6d68:	03c907b3          	mul	x15,x18,x28
    6d6c:	03c88333          	mul	x6,x17,x28
    6d70:	0107d813          	srli	x16,x15,0x10
    6d74:	03260733          	mul	x14,x12,x18
    6d78:	00670733          	add	x14,x14,x6
    6d7c:	00e80833          	add	x16,x16,x14
    6d80:	02c886b3          	mul	x13,x17,x12
    6d84:	00687663          	bgeu	x16,x6,0x6d90
    6d88:	00010737          	lui	x14,0x10
    6d8c:	00e686b3          	add	x13,x13,x14
    6d90:	01045713          	srli	x14,x8,0x10
    6d94:	01079793          	slli	x15,x15,0x10
    6d98:	01041413          	slli	x8,x8,0x10
    6d9c:	0107d793          	srli	x15,x15,0x10
    6da0:	01045413          	srli	x8,x8,0x10
    6da4:	01085f93          	srli	x31,x16,0x10
    6da8:	01081813          	slli	x16,x16,0x10
    6dac:	02890f33          	mul	x30,x18,x8
    6db0:	00f80833          	add	x16,x16,x15
    6db4:	03270933          	mul	x18,x14,x18
    6db8:	010f5313          	srli	x6,x30,0x10
    6dbc:	028887b3          	mul	x15,x17,x8
    6dc0:	00f90933          	add	x18,x18,x15
    6dc4:	01230333          	add	x6,x6,x18
    6dc8:	02e888b3          	mul	x17,x17,x14
    6dcc:	00f37663          	bgeu	x6,x15,0x6dd8
    6dd0:	000107b7          	lui	x15,0x10
    6dd4:	00f888b3          	add	x17,x17,x15
    6dd8:	010f1f13          	slli	x30,x30,0x10
    6ddc:	010f5f13          	srli	x30,x30,0x10
    6de0:	01031793          	slli	x15,x6,0x10
    6de4:	01e787b3          	add	x15,x15,x30
    6de8:	0104df13          	srli	x30,x9,0x10
    6dec:	01049493          	slli	x9,x9,0x10
    6df0:	0104d493          	srli	x9,x9,0x10
    6df4:	03c482b3          	mul	x5,x9,x28
    6df8:	01035e93          	srli	x29,x6,0x10
    6dfc:	011e8eb3          	add	x29,x29,x17
    6e00:	00ff8fb3          	add	x31,x31,x15
    6e04:	03cf0e33          	mul	x28,x30,x28
    6e08:	0102d893          	srli	x17,x5,0x10
    6e0c:	03e603b3          	mul	x7,x12,x30
    6e10:	02960633          	mul	x12,x12,x9
    6e14:	01c60633          	add	x12,x12,x28
    6e18:	00c888b3          	add	x17,x17,x12
    6e1c:	01c8f663          	bgeu	x17,x28,0x6e28
    6e20:	00010637          	lui	x12,0x10
    6e24:	00c383b3          	add	x7,x7,x12
    6e28:	02848633          	mul	x12,x9,x8
    6e2c:	01029293          	slli	x5,x5,0x10
    6e30:	0108d313          	srli	x6,x17,0x10
    6e34:	0102d293          	srli	x5,x5,0x10
    6e38:	01089893          	slli	x17,x17,0x10
    6e3c:	00730333          	add	x6,x6,x7
    6e40:	005888b3          	add	x17,x17,x5
    6e44:	028f0433          	mul	x8,x30,x8
    6e48:	01065e13          	srli	x28,x12,0x10
    6e4c:	03e70f33          	mul	x30,x14,x30
    6e50:	02970733          	mul	x14,x14,x9
    6e54:	00870733          	add	x14,x14,x8
    6e58:	00ee0e33          	add	x28,x28,x14
    6e5c:	008e7663          	bgeu	x28,x8,0x6e68
    6e60:	00010737          	lui	x14,0x10
    6e64:	00ef0f33          	add	x30,x30,x14
    6e68:	01061613          	slli	x12,x12,0x10
    6e6c:	010e1713          	slli	x14,x28,0x10
    6e70:	01065613          	srli	x12,x12,0x10
    6e74:	01f686b3          	add	x13,x13,x31
    6e78:	00c70733          	add	x14,x14,x12
    6e7c:	01d70eb3          	add	x29,x14,x29
    6e80:	00f6b7b3          	sltu	x15,x13,x15
    6e84:	00fe87b3          	add	x15,x29,x15
    6e88:	011688b3          	add	x17,x13,x17
    6e8c:	00678333          	add	x6,x15,x6
    6e90:	00d8b6b3          	sltu	x13,x17,x13
    6e94:	00eeb633          	sltu	x12,x29,x14
    6e98:	00d306b3          	add	x13,x6,x13
    6e9c:	01d7beb3          	sltu	x29,x15,x29
    6ea0:	00f33733          	sltu	x14,x6,x15
    6ea4:	01d66633          	or	x12,x12,x29
    6ea8:	0066b333          	sltu	x6,x13,x6
    6eac:	010e5e13          	srli	x28,x28,0x10
    6eb0:	00989793          	slli	x15,x17,0x9
    6eb4:	01c60633          	add	x12,x12,x28
    6eb8:	00676733          	or	x14,x14,x6
    6ebc:	00c70733          	add	x14,x14,x12
    6ec0:	0107e7b3          	or	x15,x15,x16
    6ec4:	01e70733          	add	x14,x14,x30
    6ec8:	00f037b3          	sltu	x15,x0,x15
    6ecc:	0178d893          	srli	x17,x17,0x17
    6ed0:	00971713          	slli	x14,x14,0x9
    6ed4:	0176d413          	srli	x8,x13,0x17
    6ed8:	0117e7b3          	or	x15,x15,x17
    6edc:	00969693          	slli	x13,x13,0x9
    6ee0:	00d7e7b3          	or	x15,x15,x13
    6ee4:	00771693          	slli	x13,x14,0x7
    6ee8:	00876433          	or	x8,x14,x8
    6eec:	0c06d263          	bge	x13,x0,0x6fb0
    6ef0:	0017d713          	srli	x14,x15,0x1
    6ef4:	0017f793          	andi	x15,x15,1
    6ef8:	00f76733          	or	x14,x14,x15
    6efc:	01f41793          	slli	x15,x8,0x1f
    6f00:	00f767b3          	or	x15,x14,x15
    6f04:	00145413          	srli	x8,x8,0x1
    6f08:	3ff50713          	addi	x14,x10,1023
    6f0c:	0ae05663          	bge	x0,x14,0x6fb8
    6f10:	0077f693          	andi	x13,x15,7
    6f14:	02068063          	beq	x13,x0,0x6f34
    6f18:	00f7f693          	andi	x13,x15,15
    6f1c:	00400613          	addi	x12,x0,4
    6f20:	00c68a63          	beq	x13,x12,0x6f34
    6f24:	00c786b3          	add	x13,x15,x12
    6f28:	00f6b633          	sltu	x12,x13,x15
    6f2c:	00c40433          	add	x8,x8,x12
    6f30:	00068793          	addi	x15,x13,0
    6f34:	00741693          	slli	x13,x8,0x7
    6f38:	0006da63          	bge	x13,x0,0x6f4c
    6f3c:	ff000737          	lui	x14,0xff000
    6f40:	fff70713          	addi	x14,x14,-1 # 0xfeffffff
    6f44:	00e47433          	and	x8,x8,x14
    6f48:	40050713          	addi	x14,x10,1024
    6f4c:	7fe00693          	addi	x13,x0,2046
    6f50:	12e6ce63          	blt	x13,x14,0x708c
    6f54:	01d41613          	slli	x12,x8,0x1d
    6f58:	0037d793          	srli	x15,x15,0x3
    6f5c:	00f66633          	or	x12,x12,x15
    6f60:	00345413          	srli	x8,x8,0x3
    6f64:	00c41413          	slli	x8,x8,0xc
    6f68:	00c45413          	srli	x8,x8,0xc
    6f6c:	01471713          	slli	x14,x14,0x14
    6f70:	02c12083          	lw	x1,44(x2)
    6f74:	00876733          	or	x14,x14,x8
    6f78:	02812403          	lw	x8,40(x2)
    6f7c:	01f59593          	slli	x11,x11,0x1f
    6f80:	00b767b3          	or	x15,x14,x11
    6f84:	02412483          	lw	x9,36(x2)
    6f88:	02012903          	lw	x18,32(x2)
    6f8c:	01c12983          	lw	x19,28(x2)
    6f90:	01812a03          	lw	x20,24(x2)
    6f94:	01412a83          	lw	x21,20(x2)
    6f98:	01012b03          	lw	x22,16(x2)
    6f9c:	00c12b83          	lw	x23,12(x2)
    6fa0:	00060513          	addi	x10,x12,0 # 0x10000
    6fa4:	00078593          	addi	x11,x15,0 # 0x10000
    6fa8:	03010113          	addi	x2,x2,48
    6fac:	00008067          	jalr	x0,0(x1)
    6fb0:	00098513          	addi	x10,x19,0
    6fb4:	f55ff06f          	jal	x0,0x6f08
    6fb8:	08070063          	beq	x14,x0,0x7038
    6fbc:	fc900693          	addi	x13,x0,-55
    6fc0:	c0d742e3          	blt	x14,x13,0x6bc4
    6fc4:	fe200693          	addi	x13,x0,-30
    6fc8:	06d74c63          	blt	x14,x13,0x7040
    6fcc:	00100693          	addi	x13,x0,1
    6fd0:	40e68733          	sub	x14,x13,x14
    6fd4:	41e50513          	addi	x10,x10,1054
    6fd8:	00e7d6b3          	srl	x13,x15,x14
    6fdc:	00a797b3          	sll	x15,x15,x10
    6fe0:	00f037b3          	sltu	x15,x0,x15
    6fe4:	00a41533          	sll	x10,x8,x10
    6fe8:	00a7e7b3          	or	x15,x15,x10
    6fec:	00d7e7b3          	or	x15,x15,x13
    6ff0:	00e45433          	srl	x8,x8,x14
    6ff4:	0077f713          	andi	x14,x15,7
    6ff8:	02070063          	beq	x14,x0,0x7018
    6ffc:	00f7f713          	andi	x14,x15,15
    7000:	00400693          	addi	x13,x0,4
    7004:	00d70a63          	beq	x14,x13,0x7018
    7008:	00d78733          	add	x14,x15,x13
    700c:	00f736b3          	sltu	x13,x14,x15
    7010:	00d40433          	add	x8,x8,x13
    7014:	00070793          	addi	x15,x14,0
    7018:	00841713          	slli	x14,x8,0x8
    701c:	08074063          	blt	x14,x0,0x709c
    7020:	01d41613          	slli	x12,x8,0x1d
    7024:	0037d793          	srli	x15,x15,0x3
    7028:	00f66633          	or	x12,x12,x15
    702c:	00345413          	srli	x8,x8,0x3
    7030:	00000713          	addi	x14,x0,0
    7034:	f31ff06f          	jal	x0,0x6f64
    7038:	00100713          	addi	x14,x0,1
    703c:	f99ff06f          	jal	x0,0x6fd4
    7040:	fe100813          	addi	x16,x0,-31
    7044:	40e806b3          	sub	x13,x16,x14
    7048:	00d456b3          	srl	x13,x8,x13
    704c:	00000613          	addi	x12,x0,0
    7050:	01070663          	beq	x14,x16,0x705c
    7054:	43e50513          	addi	x10,x10,1086
    7058:	00a41633          	sll	x12,x8,x10
    705c:	00c7e7b3          	or	x15,x15,x12
    7060:	00f037b3          	sltu	x15,x0,x15
    7064:	00f6e7b3          	or	x15,x13,x15
    7068:	00000413          	addi	x8,x0,0
    706c:	f89ff06f          	jal	x0,0x6ff4
    7070:	00080437          	lui	x8,0x80
    7074:	7ff00713          	addi	x14,x0,2047
    7078:	00000593          	addi	x11,x0,0
    707c:	ee9ff06f          	jal	x0,0x6f64
    7080:	00080437          	lui	x8,0x80
    7084:	00000613          	addi	x12,x0,0
    7088:	fedff06f          	jal	x0,0x7074
    708c:	00000413          	addi	x8,x0,0
    7090:	00000613          	addi	x12,x0,0
    7094:	7ff00713          	addi	x14,x0,2047
    7098:	ecdff06f          	jal	x0,0x6f64
    709c:	00000413          	addi	x8,x0,0
    70a0:	00000613          	addi	x12,x0,0
    70a4:	00100713          	addi	x14,x0,1
    70a8:	ebdff06f          	jal	x0,0x6f64
    70ac:	00100837          	lui	x16,0x100
    70b0:	fff80813          	addi	x16,x16,-1 # 0xfffff
    70b4:	fe010113          	addi	x2,x2,-32
    70b8:	00b877b3          	and	x15,x16,x11
    70bc:	0145d713          	srli	x14,x11,0x14
    70c0:	00d87833          	and	x16,x16,x13
    70c4:	0146d893          	srli	x17,x13,0x14
    70c8:	00912a23          	sw	x9,20(x2)
    70cc:	00379793          	slli	x15,x15,0x3
    70d0:	7ff77493          	andi	x9,x14,2047
    70d4:	01d55713          	srli	x14,x10,0x1d
    70d8:	01212823          	sw	x18,16(x2)
    70dc:	00f767b3          	or	x15,x14,x15
    70e0:	01f5d913          	srli	x18,x11,0x1f
    70e4:	01d65713          	srli	x14,x12,0x1d
    70e8:	00381813          	slli	x16,x16,0x3
    70ec:	00112e23          	sw	x1,28(x2)
    70f0:	00812c23          	sw	x8,24(x2)
    70f4:	01312623          	sw	x19,12(x2)
    70f8:	7ff8f893          	andi	x17,x17,2047
    70fc:	7ff00593          	addi	x11,x0,2047
    7100:	00351513          	slli	x10,x10,0x3
    7104:	01f6d693          	srli	x13,x13,0x1f
    7108:	01076733          	or	x14,x14,x16
    710c:	00361613          	slli	x12,x12,0x3
    7110:	00b89663          	bne	x17,x11,0x711c
    7114:	00c765b3          	or	x11,x14,x12
    7118:	00059463          	bne	x11,x0,0x7120
    711c:	0016c693          	xori	x13,x13,1
    7120:	41148833          	sub	x16,x9,x17
    7124:	7ff00593          	addi	x11,x0,2047
    7128:	31269463          	bne	x13,x18,0x7430
    712c:	11005263          	bge	x0,x16,0x7230
    7130:	02089c63          	bne	x17,x0,0x7168
    7134:	00c766b3          	or	x13,x14,x12
    7138:	02068463          	beq	x13,x0,0x7160
    713c:	fff48813          	addi	x16,x9,-1
    7140:	00081e63          	bne	x16,x0,0x715c
    7144:	00c50633          	add	x12,x10,x12
    7148:	00e787b3          	add	x15,x15,x14
    714c:	00a63533          	sltu	x10,x12,x10
    7150:	00a787b3          	add	x15,x15,x10
    7154:	00100493          	addi	x9,x0,1
    7158:	0600006f          	jal	x0,0x71b8
    715c:	00b49c63          	bne	x9,x11,0x7174
    7160:	00050613          	addi	x12,x10,0
    7164:	1d80006f          	jal	x0,0x733c
    7168:	feb48ce3          	beq	x9,x11,0x7160
    716c:	008006b7          	lui	x13,0x800
    7170:	00d76733          	or	x14,x14,x13
    7174:	03800693          	addi	x13,x0,56
    7178:	0b06c663          	blt	x13,x16,0x7224
    717c:	01f00693          	addi	x13,x0,31
    7180:	02000893          	addi	x17,x0,32
    7184:	0706c863          	blt	x13,x16,0x71f4
    7188:	410888b3          	sub	x17,x17,x16
    718c:	011716b3          	sll	x13,x14,x17
    7190:	010655b3          	srl	x11,x12,x16
    7194:	011618b3          	sll	x17,x12,x17
    7198:	00b6e6b3          	or	x13,x13,x11
    719c:	011038b3          	sltu	x17,x0,x17
    71a0:	0116e6b3          	or	x13,x13,x17
    71a4:	01075833          	srl	x16,x14,x16
    71a8:	00a68633          	add	x12,x13,x10
    71ac:	00f80833          	add	x16,x16,x15
    71b0:	00d636b3          	sltu	x13,x12,x13
    71b4:	00d807b3          	add	x15,x16,x13
    71b8:	00879713          	slli	x14,x15,0x8
    71bc:	22075663          	bge	x14,x0,0x73e8
    71c0:	00148493          	addi	x9,x9,1
    71c4:	7ff00713          	addi	x14,x0,2047
    71c8:	60e48863          	beq	x9,x14,0x77d8
    71cc:	ff800737          	lui	x14,0xff800
    71d0:	fff70713          	addi	x14,x14,-1 # 0xff7fffff
    71d4:	00e7f7b3          	and	x15,x15,x14
    71d8:	00165713          	srli	x14,x12,0x1
    71dc:	00167613          	andi	x12,x12,1
    71e0:	00c76733          	or	x14,x14,x12
    71e4:	01f79613          	slli	x12,x15,0x1f
    71e8:	00e66633          	or	x12,x12,x14
    71ec:	0017d793          	srli	x15,x15,0x1
    71f0:	1f80006f          	jal	x0,0x73e8
    71f4:	fe080693          	addi	x13,x16,-32
    71f8:	00d756b3          	srl	x13,x14,x13
    71fc:	00000593          	addi	x11,x0,0
    7200:	01180863          	beq	x16,x17,0x7210
    7204:	04000593          	addi	x11,x0,64
    7208:	410585b3          	sub	x11,x11,x16
    720c:	00b715b3          	sll	x11,x14,x11
    7210:	00c5e5b3          	or	x11,x11,x12
    7214:	00b035b3          	sltu	x11,x0,x11
    7218:	00b6e6b3          	or	x13,x13,x11
    721c:	00000813          	addi	x16,x0,0
    7220:	f89ff06f          	jal	x0,0x71a8
    7224:	00c766b3          	or	x13,x14,x12
    7228:	00d036b3          	sltu	x13,x0,x13
    722c:	ff1ff06f          	jal	x0,0x721c
    7230:	0c080263          	beq	x16,x0,0x72f4
    7234:	409886b3          	sub	x13,x17,x9
    7238:	02049263          	bne	x9,x0,0x725c
    723c:	00a7e833          	or	x16,x15,x10
    7240:	00080863          	beq	x16,x0,0x7250
    7244:	fff68813          	addi	x16,x13,-1 # 0x7fffff
    7248:	ee080ee3          	beq	x16,x0,0x7144
    724c:	02b69063          	bne	x13,x11,0x726c
    7250:	00070793          	addi	x15,x14,0
    7254:	00068493          	addi	x9,x13,0
    7258:	0e40006f          	jal	x0,0x733c
    725c:	58b88663          	beq	x17,x11,0x77e8
    7260:	008005b7          	lui	x11,0x800
    7264:	00b7e7b3          	or	x15,x15,x11
    7268:	00068813          	addi	x16,x13,0
    726c:	03800693          	addi	x13,x0,56
    7270:	0706cc63          	blt	x13,x16,0x72e8
    7274:	01f00693          	addi	x13,x0,31
    7278:	02000313          	addi	x6,x0,32
    727c:	0306ce63          	blt	x13,x16,0x72b8
    7280:	41030333          	sub	x6,x6,x16
    7284:	006796b3          	sll	x13,x15,x6
    7288:	010555b3          	srl	x11,x10,x16
    728c:	00651333          	sll	x6,x10,x6
    7290:	00b6e6b3          	or	x13,x13,x11
    7294:	00603333          	sltu	x6,x0,x6
    7298:	0066e6b3          	or	x13,x13,x6
    729c:	0107d833          	srl	x16,x15,x16
    72a0:	00c68633          	add	x12,x13,x12
    72a4:	00e80833          	add	x16,x16,x14
    72a8:	00d636b3          	sltu	x13,x12,x13
    72ac:	00d807b3          	add	x15,x16,x13
    72b0:	00088493          	addi	x9,x17,0 # 0x10000
    72b4:	f05ff06f          	jal	x0,0x71b8
    72b8:	fe080693          	addi	x13,x16,-32
    72bc:	00d7d6b3          	srl	x13,x15,x13
    72c0:	00000593          	addi	x11,x0,0
    72c4:	00680863          	beq	x16,x6,0x72d4
    72c8:	04000593          	addi	x11,x0,64
    72cc:	410585b3          	sub	x11,x11,x16
    72d0:	00b795b3          	sll	x11,x15,x11
    72d4:	00a5e5b3          	or	x11,x11,x10
    72d8:	00b035b3          	sltu	x11,x0,x11
    72dc:	00b6e6b3          	or	x13,x13,x11
    72e0:	00000813          	addi	x16,x0,0
    72e4:	fbdff06f          	jal	x0,0x72a0
    72e8:	00a7e6b3          	or	x13,x15,x10
    72ec:	00d036b3          	sltu	x13,x0,x13
    72f0:	ff1ff06f          	jal	x0,0x72e0
    72f4:	00148693          	addi	x13,x9,1
    72f8:	7fe6f813          	andi	x16,x13,2046
    72fc:	0c081263          	bne	x16,x0,0x73c0
    7300:	00a7e6b3          	or	x13,x15,x10
    7304:	0a049463          	bne	x9,x0,0x73ac
    7308:	4a068863          	beq	x13,x0,0x77b8
    730c:	00c766b3          	or	x13,x14,x12
    7310:	4a068863          	beq	x13,x0,0x77c0
    7314:	00c50633          	add	x12,x10,x12
    7318:	00e787b3          	add	x15,x15,x14
    731c:	00a63533          	sltu	x10,x12,x10
    7320:	00a787b3          	add	x15,x15,x10
    7324:	00879713          	slli	x14,x15,0x8
    7328:	32075a63          	bge	x14,x0,0x765c
    732c:	ff800737          	lui	x14,0xff800
    7330:	fff70713          	addi	x14,x14,-1 # 0xff7fffff
    7334:	00e7f7b3          	and	x15,x15,x14
    7338:	00100493          	addi	x9,x0,1
    733c:	01d79693          	slli	x13,x15,0x1d
    7340:	00365613          	srli	x12,x12,0x3
    7344:	7ff00713          	addi	x14,x0,2047
    7348:	00c6e6b3          	or	x13,x13,x12
    734c:	0037d793          	srli	x15,x15,0x3
    7350:	00e49e63          	bne	x9,x14,0x736c
    7354:	00f6e6b3          	or	x13,x13,x15
    7358:	00000793          	addi	x15,x0,0
    735c:	00068863          	beq	x13,x0,0x736c
    7360:	000807b7          	lui	x15,0x80
    7364:	00000693          	addi	x13,x0,0
    7368:	00000913          	addi	x18,x0,0
    736c:	7ff4f713          	andi	x14,x9,2047
    7370:	00c79793          	slli	x15,x15,0xc
    7374:	01c12083          	lw	x1,28(x2)
    7378:	01812403          	lw	x8,24(x2)
    737c:	00c7d793          	srli	x15,x15,0xc
    7380:	01471713          	slli	x14,x14,0x14
    7384:	01f91593          	slli	x11,x18,0x1f
    7388:	00f76733          	or	x14,x14,x15
    738c:	00b767b3          	or	x15,x14,x11
    7390:	01412483          	lw	x9,20(x2)
    7394:	01012903          	lw	x18,16(x2)
    7398:	00c12983          	lw	x19,12(x2)
    739c:	00068513          	addi	x10,x13,0
    73a0:	00078593          	addi	x11,x15,0 # 0x80000
    73a4:	02010113          	addi	x2,x2,32
    73a8:	00008067          	jalr	x0,0(x1)
    73ac:	40068e63          	beq	x13,x0,0x77c8
    73b0:	00c76733          	or	x14,x14,x12
    73b4:	2c071c63          	bne	x14,x0,0x768c
    73b8:	00050613          	addi	x12,x10,0
    73bc:	4100006f          	jal	x0,0x77cc
    73c0:	40b68a63          	beq	x13,x11,0x77d4
    73c4:	00c50633          	add	x12,x10,x12
    73c8:	00e787b3          	add	x15,x15,x14
    73cc:	00a63533          	sltu	x10,x12,x10
    73d0:	00a787b3          	add	x15,x15,x10
    73d4:	01f79713          	slli	x14,x15,0x1f
    73d8:	00165613          	srli	x12,x12,0x1
    73dc:	00c76633          	or	x12,x14,x12
    73e0:	0017d793          	srli	x15,x15,0x1
    73e4:	00068493          	addi	x9,x13,0
    73e8:	00767713          	andi	x14,x12,7
    73ec:	02070063          	beq	x14,x0,0x740c
    73f0:	00f67713          	andi	x14,x12,15
    73f4:	00400693          	addi	x13,x0,4
    73f8:	00d70a63          	beq	x14,x13,0x740c
    73fc:	00d60733          	add	x14,x12,x13
    7400:	00c736b3          	sltu	x13,x14,x12
    7404:	00d787b3          	add	x15,x15,x13
    7408:	00070613          	addi	x12,x14,0
    740c:	00879713          	slli	x14,x15,0x8
    7410:	f20756e3          	bge	x14,x0,0x733c
    7414:	00148493          	addi	x9,x9,1
    7418:	7ff00713          	addi	x14,x0,2047
    741c:	3ae48e63          	beq	x9,x14,0x77d8
    7420:	ff800737          	lui	x14,0xff800
    7424:	fff70713          	addi	x14,x14,-1 # 0xff7fffff
    7428:	00e7f7b3          	and	x15,x15,x14
    742c:	f11ff06f          	jal	x0,0x733c
    7430:	0f005063          	bge	x0,x16,0x7510
    7434:	08089863          	bne	x17,x0,0x74c4
    7438:	00c766b3          	or	x13,x14,x12
    743c:	d20682e3          	beq	x13,x0,0x7160
    7440:	fff48813          	addi	x16,x9,-1
    7444:	00081e63          	bne	x16,x0,0x7460
    7448:	40c50633          	sub	x12,x10,x12
    744c:	40e787b3          	sub	x15,x15,x14
    7450:	00c53533          	sltu	x10,x10,x12
    7454:	40a787b3          	sub	x15,x15,x10
    7458:	00100493          	addi	x9,x0,1
    745c:	04c0006f          	jal	x0,0x74a8
    7460:	d0b480e3          	beq	x9,x11,0x7160
    7464:	03800693          	addi	x13,x0,56
    7468:	0906ce63          	blt	x13,x16,0x7504
    746c:	01f00693          	addi	x13,x0,31
    7470:	02000893          	addi	x17,x0,32
    7474:	0706c063          	blt	x13,x16,0x74d4
    7478:	410888b3          	sub	x17,x17,x16
    747c:	011716b3          	sll	x13,x14,x17
    7480:	010655b3          	srl	x11,x12,x16
    7484:	011618b3          	sll	x17,x12,x17
    7488:	00b6e6b3          	or	x13,x13,x11
    748c:	011038b3          	sltu	x17,x0,x17
    7490:	0116e6b3          	or	x13,x13,x17
    7494:	01075833          	srl	x16,x14,x16
    7498:	40d50633          	sub	x12,x10,x13
    749c:	41078833          	sub	x16,x15,x16
    74a0:	00c53533          	sltu	x10,x10,x12
    74a4:	40a807b3          	sub	x15,x16,x10
    74a8:	00879713          	slli	x14,x15,0x8
    74ac:	f2075ee3          	bge	x14,x0,0x73e8
    74b0:	00800437          	lui	x8,0x800
    74b4:	fff40413          	addi	x8,x8,-1 # 0x7fffff
    74b8:	0087f433          	and	x8,x15,x8
    74bc:	00060993          	addi	x19,x12,0
    74c0:	2140006f          	jal	x0,0x76d4
    74c4:	c8b48ee3          	beq	x9,x11,0x7160
    74c8:	008006b7          	lui	x13,0x800
    74cc:	00d76733          	or	x14,x14,x13
    74d0:	f95ff06f          	jal	x0,0x7464
    74d4:	fe080693          	addi	x13,x16,-32
    74d8:	00d756b3          	srl	x13,x14,x13
    74dc:	00000593          	addi	x11,x0,0
    74e0:	01180863          	beq	x16,x17,0x74f0
    74e4:	04000593          	addi	x11,x0,64
    74e8:	410585b3          	sub	x11,x11,x16
    74ec:	00b715b3          	sll	x11,x14,x11
    74f0:	00c5e5b3          	or	x11,x11,x12
    74f4:	00b035b3          	sltu	x11,x0,x11
    74f8:	00b6e6b3          	or	x13,x13,x11
    74fc:	00000813          	addi	x16,x0,0
    7500:	f99ff06f          	jal	x0,0x7498
    7504:	00c766b3          	or	x13,x14,x12
    7508:	00d036b3          	sltu	x13,x0,x13
    750c:	ff1ff06f          	jal	x0,0x74fc
    7510:	0e080663          	beq	x16,x0,0x75fc
    7514:	40988333          	sub	x6,x17,x9
    7518:	04049263          	bne	x9,x0,0x755c
    751c:	00a7e833          	or	x16,x15,x10
    7520:	02080663          	beq	x16,x0,0x754c
    7524:	fff30813          	addi	x16,x6,-1
    7528:	02081063          	bne	x16,x0,0x7548
    752c:	40a60533          	sub	x10,x12,x10
    7530:	00a635b3          	sltu	x11,x12,x10
    7534:	40f707b3          	sub	x15,x14,x15
    7538:	00050613          	addi	x12,x10,0
    753c:	40b787b3          	sub	x15,x15,x11
    7540:	00068913          	addi	x18,x13,0 # 0x800000
    7544:	f15ff06f          	jal	x0,0x7458
    7548:	02b31263          	bne	x6,x11,0x756c
    754c:	00068913          	addi	x18,x13,0
    7550:	00070793          	addi	x15,x14,0
    7554:	00030493          	addi	x9,x6,0
    7558:	de5ff06f          	jal	x0,0x733c
    755c:	28b88463          	beq	x17,x11,0x77e4
    7560:	008005b7          	lui	x11,0x800
    7564:	00b7e7b3          	or	x15,x15,x11
    7568:	00030813          	addi	x16,x6,0
    756c:	03800593          	addi	x11,x0,56
    7570:	0905c063          	blt	x11,x16,0x75f0
    7574:	01f00593          	addi	x11,x0,31
    7578:	02000e13          	addi	x28,x0,32
    757c:	0505c263          	blt	x11,x16,0x75c0
    7580:	410e0e33          	sub	x28,x28,x16
    7584:	01c795b3          	sll	x11,x15,x28
    7588:	01055333          	srl	x6,x10,x16
    758c:	01c51e33          	sll	x28,x10,x28
    7590:	0065e5b3          	or	x11,x11,x6
    7594:	01c03e33          	sltu	x28,x0,x28
    7598:	01c5e5b3          	or	x11,x11,x28
    759c:	0107d833          	srl	x16,x15,x16
    75a0:	40b605b3          	sub	x11,x12,x11
    75a4:	00b637b3          	sltu	x15,x12,x11
    75a8:	41070833          	sub	x16,x14,x16
    75ac:	00058613          	addi	x12,x11,0 # 0x800000
    75b0:	40f807b3          	sub	x15,x16,x15
    75b4:	00088493          	addi	x9,x17,0
    75b8:	00068913          	addi	x18,x13,0
    75bc:	eedff06f          	jal	x0,0x74a8
    75c0:	fe080593          	addi	x11,x16,-32
    75c4:	00b7d5b3          	srl	x11,x15,x11
    75c8:	00000313          	addi	x6,x0,0
    75cc:	01c80863          	beq	x16,x28,0x75dc
    75d0:	04000313          	addi	x6,x0,64
    75d4:	41030333          	sub	x6,x6,x16
    75d8:	00679333          	sll	x6,x15,x6
    75dc:	00a36333          	or	x6,x6,x10
    75e0:	00603333          	sltu	x6,x0,x6
    75e4:	0065e5b3          	or	x11,x11,x6
    75e8:	00000813          	addi	x16,x0,0
    75ec:	fb5ff06f          	jal	x0,0x75a0
    75f0:	00a7e5b3          	or	x11,x15,x10
    75f4:	00b035b3          	sltu	x11,x0,x11
    75f8:	ff1ff06f          	jal	x0,0x75e8
    75fc:	00148813          	addi	x16,x9,1
    7600:	7fe87813          	andi	x16,x16,2046
    7604:	0a081063          	bne	x16,x0,0x76a4
    7608:	00c76833          	or	x16,x14,x12
    760c:	00a7e8b3          	or	x17,x15,x10
    7610:	06049863          	bne	x9,x0,0x7680
    7614:	00089a63          	bne	x17,x0,0x7628
    7618:	00070793          	addi	x15,x14,0
    761c:	02081e63          	bne	x16,x0,0x7658
    7620:	00000913          	addi	x18,x0,0
    7624:	1b40006f          	jal	x0,0x77d8
    7628:	18080c63          	beq	x16,x0,0x77c0
    762c:	40c50833          	sub	x16,x10,x12
    7630:	010538b3          	sltu	x17,x10,x16
    7634:	40e785b3          	sub	x11,x15,x14
    7638:	411585b3          	sub	x11,x11,x17
    763c:	00859893          	slli	x17,x11,0x8
    7640:	0208d663          	bge	x17,x0,0x766c
    7644:	40a60533          	sub	x10,x12,x10
    7648:	00a635b3          	sltu	x11,x12,x10
    764c:	40f707b3          	sub	x15,x14,x15
    7650:	00050613          	addi	x12,x10,0
    7654:	40b787b3          	sub	x15,x15,x11
    7658:	00068913          	addi	x18,x13,0
    765c:	00f66733          	or	x14,x12,x15
    7660:	1a070063          	beq	x14,x0,0x7800
    7664:	00000493          	addi	x9,x0,0
    7668:	d81ff06f          	jal	x0,0x73e8
    766c:	00b86633          	or	x12,x16,x11
    7670:	18060263          	beq	x12,x0,0x77f4
    7674:	00058793          	addi	x15,x11,0
    7678:	00080613          	addi	x12,x16,0
    767c:	fe1ff06f          	jal	x0,0x765c
    7680:	00089e63          	bne	x17,x0,0x769c
    7684:	00068913          	addi	x18,x13,0
    7688:	14081063          	bne	x16,x0,0x77c8
    768c:	00000913          	addi	x18,x0,0
    7690:	004007b7          	lui	x15,0x400
    7694:	00000613          	addi	x12,x0,0
    7698:	1340006f          	jal	x0,0x77cc
    769c:	d0080ee3          	beq	x16,x0,0x73b8
    76a0:	fedff06f          	jal	x0,0x768c
    76a4:	40c505b3          	sub	x11,x10,x12
    76a8:	00b53833          	sltu	x16,x10,x11
    76ac:	40e78433          	sub	x8,x15,x14
    76b0:	41040433          	sub	x8,x8,x16
    76b4:	00841813          	slli	x16,x8,0x8
    76b8:	00058993          	addi	x19,x11,0
    76bc:	06085e63          	bge	x16,x0,0x7738
    76c0:	40a609b3          	sub	x19,x12,x10
    76c4:	40f70433          	sub	x8,x14,x15
    76c8:	01363633          	sltu	x12,x12,x19
    76cc:	40c40433          	sub	x8,x8,x12
    76d0:	00068913          	addi	x18,x13,0
    76d4:	06040e63          	beq	x8,x0,0x7750
    76d8:	00040513          	addi	x10,x8,0
    76dc:	2a0000ef          	jal	x1,0x797c
    76e0:	ff850713          	addi	x14,x10,-8
    76e4:	02000793          	addi	x15,x0,32
    76e8:	40e787b3          	sub	x15,x15,x14
    76ec:	00e41433          	sll	x8,x8,x14
    76f0:	00f9d7b3          	srl	x15,x19,x15
    76f4:	0087e7b3          	or	x15,x15,x8
    76f8:	00e99633          	sll	x12,x19,x14
    76fc:	0a974463          	blt	x14,x9,0x77a4
    7700:	40970733          	sub	x14,x14,x9
    7704:	00170513          	addi	x10,x14,1
    7708:	01f00693          	addi	x13,x0,31
    770c:	02000593          	addi	x11,x0,32
    7710:	06a6c263          	blt	x13,x10,0x7774
    7714:	40a585b3          	sub	x11,x11,x10
    7718:	00b79733          	sll	x14,x15,x11
    771c:	00a656b3          	srl	x13,x12,x10
    7720:	00b615b3          	sll	x11,x12,x11
    7724:	00d76733          	or	x14,x14,x13
    7728:	00b035b3          	sltu	x11,x0,x11
    772c:	00b76633          	or	x12,x14,x11
    7730:	00a7d7b3          	srl	x15,x15,x10
    7734:	f29ff06f          	jal	x0,0x765c
    7738:	0085e633          	or	x12,x11,x8
    773c:	f8061ce3          	bne	x12,x0,0x76d4
    7740:	00000913          	addi	x18,x0,0
    7744:	00000793          	addi	x15,x0,0
    7748:	00000493          	addi	x9,x0,0
    774c:	bf1ff06f          	jal	x0,0x733c
    7750:	00098513          	addi	x10,x19,0
    7754:	228000ef          	jal	x1,0x797c
    7758:	01850713          	addi	x14,x10,24
    775c:	01f00793          	addi	x15,x0,31
    7760:	f8e7d2e3          	bge	x15,x14,0x76e4
    7764:	ff850793          	addi	x15,x10,-8
    7768:	00f997b3          	sll	x15,x19,x15
    776c:	00000613          	addi	x12,x0,0
    7770:	f8dff06f          	jal	x0,0x76fc
    7774:	fe170713          	addi	x14,x14,-31
    7778:	00e7d733          	srl	x14,x15,x14
    777c:	00000693          	addi	x13,x0,0
    7780:	00b50863          	beq	x10,x11,0x7790
    7784:	04000693          	addi	x13,x0,64
    7788:	40a686b3          	sub	x13,x13,x10
    778c:	00d796b3          	sll	x13,x15,x13
    7790:	00d666b3          	or	x13,x12,x13
    7794:	00d036b3          	sltu	x13,x0,x13
    7798:	00d76633          	or	x12,x14,x13
    779c:	00000793          	addi	x15,x0,0
    77a0:	ebdff06f          	jal	x0,0x765c
    77a4:	40e484b3          	sub	x9,x9,x14
    77a8:	ff800737          	lui	x14,0xff800
    77ac:	fff70713          	addi	x14,x14,-1 # 0xff7fffff
    77b0:	00e7f7b3          	and	x15,x15,x14
    77b4:	c35ff06f          	jal	x0,0x73e8
    77b8:	00070793          	addi	x15,x14,0
    77bc:	ea1ff06f          	jal	x0,0x765c
    77c0:	00050613          	addi	x12,x10,0
    77c4:	e99ff06f          	jal	x0,0x765c
    77c8:	00070793          	addi	x15,x14,0
    77cc:	00058493          	addi	x9,x11,0
    77d0:	b6dff06f          	jal	x0,0x733c
    77d4:	00068493          	addi	x9,x13,0
    77d8:	00000793          	addi	x15,x0,0
    77dc:	00000613          	addi	x12,x0,0
    77e0:	b5dff06f          	jal	x0,0x733c
    77e4:	00068913          	addi	x18,x13,0
    77e8:	00070793          	addi	x15,x14,0
    77ec:	00088493          	addi	x9,x17,0
    77f0:	b4dff06f          	jal	x0,0x733c
    77f4:	00000913          	addi	x18,x0,0
    77f8:	00000793          	addi	x15,x0,0
    77fc:	b41ff06f          	jal	x0,0x733c
    7800:	00000793          	addi	x15,x0,0
    7804:	00000613          	addi	x12,x0,0
    7808:	f41ff06f          	jal	x0,0x7748
    780c:	0145d713          	srli	x14,x11,0x14
    7810:	001006b7          	lui	x13,0x100
    7814:	fff68793          	addi	x15,x13,-1 # 0xfffff
    7818:	7ff77713          	andi	x14,x14,2047
    781c:	3fe00613          	addi	x12,x0,1022
    7820:	00b7f7b3          	and	x15,x15,x11
    7824:	01f5d593          	srli	x11,x11,0x1f
    7828:	04e65c63          	bge	x12,x14,0x7880
    782c:	41d00613          	addi	x12,x0,1053
    7830:	00e65a63          	bge	x12,x14,0x7844
    7834:	80000537          	lui	x10,0x80000
    7838:	fff50513          	addi	x10,x10,-1 # 0x7fffffff
    783c:	00a58533          	add	x10,x11,x10
    7840:	00008067          	jalr	x0,0(x1)
    7844:	00d7e7b3          	or	x15,x15,x13
    7848:	41300693          	addi	x13,x0,1043
    784c:	02e6d463          	bge	x13,x14,0x7874
    7850:	bed70693          	addi	x13,x14,-1043
    7854:	00d797b3          	sll	x15,x15,x13
    7858:	43300693          	addi	x13,x0,1075
    785c:	40e68733          	sub	x14,x13,x14
    7860:	00e55533          	srl	x10,x10,x14
    7864:	00a7e533          	or	x10,x15,x10
    7868:	00058e63          	beq	x11,x0,0x7884
    786c:	40a00533          	sub	x10,x0,x10
    7870:	00008067          	jalr	x0,0(x1)
    7874:	40e686b3          	sub	x13,x13,x14
    7878:	00d7d533          	srl	x10,x15,x13
    787c:	fedff06f          	jal	x0,0x7868
    7880:	00000513          	addi	x10,x0,0
    7884:	00008067          	jalr	x0,0(x1)
    7888:	0145d713          	srli	x14,x11,0x14
    788c:	00100837          	lui	x16,0x100
    7890:	fff80793          	addi	x15,x16,-1 # 0xfffff
    7894:	7ff77713          	andi	x14,x14,2047
    7898:	3fe00693          	addi	x13,x0,1022
    789c:	00b7f7b3          	and	x15,x15,x11
    78a0:	00050613          	addi	x12,x10,0
    78a4:	01f5d593          	srli	x11,x11,0x1f
    78a8:	04e6d863          	bge	x13,x14,0x78f8
    78ac:	41f00693          	addi	x13,x0,1055
    78b0:	40b686b3          	sub	x13,x13,x11
    78b4:	fff58513          	addi	x10,x11,-1
    78b8:	04d75263          	bge	x14,x13,0x78fc
    78bc:	00000513          	addi	x10,x0,0
    78c0:	02059e63          	bne	x11,x0,0x78fc
    78c4:	41300693          	addi	x13,x0,1043
    78c8:	0107e7b3          	or	x15,x15,x16
    78cc:	02e6d063          	bge	x13,x14,0x78ec
    78d0:	bed70693          	addi	x13,x14,-1043
    78d4:	00d797b3          	sll	x15,x15,x13
    78d8:	43300693          	addi	x13,x0,1075
    78dc:	40e68733          	sub	x14,x13,x14
    78e0:	00e65633          	srl	x12,x12,x14
    78e4:	00c7e533          	or	x10,x15,x12
    78e8:	00008067          	jalr	x0,0(x1)
    78ec:	40e686b3          	sub	x13,x13,x14
    78f0:	00d7d533          	srl	x10,x15,x13
    78f4:	00008067          	jalr	x0,0(x1)
    78f8:	00000513          	addi	x10,x0,0
    78fc:	00008067          	jalr	x0,0(x1)
    7900:	ff010113          	addi	x2,x2,-16
    7904:	00812423          	sw	x8,8(x2)
    7908:	00112623          	sw	x1,12(x2)
    790c:	00050413          	addi	x8,x10,0
    7910:	06050063          	beq	x10,x0,0x7970
    7914:	068000ef          	jal	x1,0x797c
    7918:	41e00713          	addi	x14,x0,1054
    791c:	00a00793          	addi	x15,x0,10
    7920:	40a70733          	sub	x14,x14,x10
    7924:	02a7ce63          	blt	x15,x10,0x7960
    7928:	00b00793          	addi	x15,x0,11
    792c:	40a787b3          	sub	x15,x15,x10
    7930:	01550513          	addi	x10,x10,21
    7934:	00f457b3          	srl	x15,x8,x15
    7938:	00a41433          	sll	x8,x8,x10
    793c:	00c12083          	lw	x1,12(x2)
    7940:	00040513          	addi	x10,x8,0
    7944:	00812403          	lw	x8,8(x2)
    7948:	00c79793          	slli	x15,x15,0xc
    794c:	01471713          	slli	x14,x14,0x14
    7950:	00c7d793          	srli	x15,x15,0xc
    7954:	00f765b3          	or	x11,x14,x15
    7958:	01010113          	addi	x2,x2,16
    795c:	00008067          	jalr	x0,0(x1)
    7960:	ff550513          	addi	x10,x10,-11
    7964:	00a417b3          	sll	x15,x8,x10
    7968:	00000413          	addi	x8,x0,0
    796c:	fd1ff06f          	jal	x0,0x793c
    7970:	00000793          	addi	x15,x0,0
    7974:	00000713          	addi	x14,x0,0
    7978:	fc5ff06f          	jal	x0,0x793c
    797c:	000107b7          	lui	x15,0x10
    7980:	02f57a63          	bgeu	x10,x15,0x79b4
    7984:	10053793          	sltiu	x15,x10,256
    7988:	0017b793          	sltiu	x15,x15,1
    798c:	00379793          	slli	x15,x15,0x3
    7990:	00018737          	lui	x14,0x18
    7994:	00f55533          	srl	x10,x10,x15
    7998:	53870713          	addi	x14,x14,1336 # 0x18538
    799c:	00a70733          	add	x14,x14,x10
    79a0:	00074503          	lbu	x10,0(x14)
    79a4:	02000693          	addi	x13,x0,32
    79a8:	40f686b3          	sub	x13,x13,x15
    79ac:	40a68533          	sub	x10,x13,x10
    79b0:	00008067          	jalr	x0,0(x1)
    79b4:	01000737          	lui	x14,0x1000
    79b8:	01800793          	addi	x15,x0,24
    79bc:	fce57ae3          	bgeu	x10,x14,0x7990
    79c0:	01000793          	addi	x15,x0,16
    79c4:	fcdff06f          	jal	x0,0x7990

Disassembly of section .text.startup:

000079c8 <.text.startup>:
    79c8:	81010113          	addi	x2,x2,-2032
    79cc:	7e112623          	sw	x1,2028(x2)
    79d0:	7e812423          	sw	x8,2024(x2)
    79d4:	7e912223          	sw	x9,2020(x2)
    79d8:	7f212023          	sw	x18,2016(x2)
    79dc:	7d312e23          	sw	x19,2012(x2)
    79e0:	7d412c23          	sw	x20,2008(x2)
    79e4:	7d512a23          	sw	x21,2004(x2)
    79e8:	7d612823          	sw	x22,2000(x2)
    79ec:	7d712623          	sw	x23,1996(x2)
    79f0:	7d812423          	sw	x24,1992(x2)
    79f4:	7d912223          	sw	x25,1988(x2)
    79f8:	7da12023          	sw	x26,1984(x2)
    79fc:	7bb12e23          	sw	x27,1980(x2)
    7a00:	f8010113          	addi	x2,x2,-128
    7a04:	00058613          	addi	x12,x11,0
    7a08:	00a12623          	sw	x10,12(x2)
    7a0c:	00c10593          	addi	x11,x2,12
    7a10:	05e10513          	addi	x10,x2,94
    7a14:	a58fb0ef          	jal	x1,0x2c6c
    7a18:	00100513          	addi	x10,x0,1
    7a1c:	869fb0ef          	jal	x1,0x3284
    7a20:	00a11e23          	sh	x10,28(x2)
    7a24:	00200513          	addi	x10,x0,2
    7a28:	85dfb0ef          	jal	x1,0x3284
    7a2c:	00a11f23          	sh	x10,30(x2)
    7a30:	00300513          	addi	x10,x0,3
    7a34:	851fb0ef          	jal	x1,0x3284
    7a38:	02a11023          	sh	x10,32(x2)
    7a3c:	00400513          	addi	x10,x0,4
    7a40:	845fb0ef          	jal	x1,0x3284
    7a44:	02a12c23          	sw	x10,56(x2)
    7a48:	00500513          	addi	x10,x0,5
    7a4c:	83010413          	addi	x8,x2,-2000
    7a50:	835fb0ef          	jal	x1,0x3284
    7a54:	00051463          	bne	x10,x0,0x7a5c
    7a58:	00700513          	addi	x10,x0,7
    7a5c:	02a12e23          	sw	x10,60(x2)
    7a60:	7ec42783          	lw	x15,2028(x8)
    7a64:	38078663          	beq	x15,x0,0x7df0
    7a68:	00100713          	addi	x14,x0,1
    7a6c:	7ae78e63          	beq	x15,x14,0x8228
    7a70:	06010813          	addi	x16,x2,96
    7a74:	00157a13          	andi	x20,x10,1
    7a78:	04011e23          	sh	x0,92(x2)
    7a7c:	7f042a23          	sw	x16,2036(x8)
    7a80:	00257693          	andi	x13,x10,2
    7a84:	000a0893          	addi	x17,x20,0
    7a88:	18069663          	bne	x13,x0,0x7c14
    7a8c:	00457513          	andi	x10,x10,4
    7a90:	1c050e63          	beq	x10,x0,0x7c6c
    7a94:	001a0913          	addi	x18,x20,1
    7a98:	7d000993          	addi	x19,x0,2000
    7a9c:	0329dc33          	divu	x24,x19,x18
    7aa0:	03812a23          	sw	x24,52(x2)
    7aa4:	000c0513          	addi	x10,x24,0
    7aa8:	660a1663          	bne	x20,x0,0x8114
    7aac:	038a0e33          	mul	x28,x20,x24
    7ab0:	01c80eb3          	add	x29,x16,x28
    7ab4:	03d12823          	sw	x29,48(x2)
    7ab8:	03c12303          	lw	x6,60(x2)
    7abc:	00137f13          	andi	x30,x6,1
    7ac0:	000f0c63          	beq	x30,x0,0x7ad8
    7ac4:	7ec41603          	lh	x12,2028(x8)
    7ac8:	7f842583          	lw	x11,2040(x8)
    7acc:	908f90ef          	jal	x1,0xbd4
    7ad0:	03c12303          	lw	x6,60(x2)
    7ad4:	04a12023          	sw	x10,64(x2)
    7ad8:	00237f93          	andi	x31,x6,2
    7adc:	1a0f9263          	bne	x31,x0,0x7c80
    7ae0:	00437393          	andi	x7,x6,4
    7ae4:	00038a63          	beq	x7,x0,0x7af8
    7ae8:	03012603          	lw	x12,48(x2)
    7aec:	7ec41583          	lh	x11,2028(x8)
    7af0:	03412503          	lw	x10,52(x2)
    7af4:	98cfb0ef          	jal	x1,0x2c80
    7af8:	03812583          	lw	x11,56(x2)
    7afc:	01c10b13          	addi	x22,x2,28
    7b00:	08059663          	bne	x11,x0,0x7b8c
    7b04:	000194b7          	lui	x9,0x19
    7b08:	b984a903          	lw	x18,-1128(x9) # 0x18b98
    7b0c:	b9c4a983          	lw	x19,-1124(x9)
    7b10:	01c10b13          	addi	x22,x2,28
    7b14:	00100d13          	addi	x26,x0,1
    7b18:	0080006f          	jal	x0,0x7b20
    7b1c:	03812d03          	lw	x26,56(x2)
    7b20:	002d1613          	slli	x12,x26,0x2
    7b24:	01a60833          	add	x16,x12,x26
    7b28:	00181693          	slli	x13,x16,0x1
    7b2c:	02d12c23          	sw	x13,56(x2)
    7b30:	8acfb0ef          	jal	x1,0x2bdc
    7b34:	000b0513          	addi	x10,x22,0
    7b38:	bf8f90ef          	jal	x1,0xf30
    7b3c:	8c8fb0ef          	jal	x1,0x2c04
    7b40:	8ecfb0ef          	jal	x1,0x2c2c
    7b44:	900fb0ef          	jal	x1,0x2c44
    7b48:	00090613          	addi	x12,x18,0
    7b4c:	00098693          	addi	x13,x19,0
    7b50:	00050a13          	addi	x20,x10,0
    7b54:	00058a93          	addi	x21,x11,0
    7b58:	e95fe0ef          	jal	x1,0x69ec
    7b5c:	fc0540e3          	blt	x10,x0,0x7b1c
    7b60:	000a0513          	addi	x10,x20,0
    7b64:	000a8593          	addi	x11,x21,0
    7b68:	d21ff0ef          	jal	x1,0x7888
    7b6c:	00051463          	bne	x10,x0,0x7b74
    7b70:	00100513          	addi	x10,x0,1
    7b74:	00a00893          	addi	x17,x0,10
    7b78:	02a8d533          	divu	x10,x17,x10
    7b7c:	03812b83          	lw	x23,56(x2)
    7b80:	00150c13          	addi	x24,x10,1
    7b84:	037c0cb3          	mul	x25,x24,x23
    7b88:	03912c23          	sw	x25,56(x2)
    7b8c:	850fb0ef          	jal	x1,0x2bdc
    7b90:	000b0513          	addi	x10,x22,0
    7b94:	b9cf90ef          	jal	x1,0xf30
    7b98:	86cfb0ef          	jal	x1,0x2c04
    7b9c:	890fb0ef          	jal	x1,0x2c2c
    7ba0:	00050a13          	addi	x20,x10,0
    7ba4:	7ec41503          	lh	x10,2028(x8)
    7ba8:	00000593          	addi	x11,x0,0
    7bac:	00008db7          	lui	x27,0x8
    7bb0:	eb1fb0ef          	jal	x1,0x3a60
    7bb4:	00050593          	addi	x11,x10,0
    7bb8:	7ee41503          	lh	x10,2030(x8)
    7bbc:	ea5fb0ef          	jal	x1,0x3a60
    7bc0:	00050593          	addi	x11,x10,0
    7bc4:	7f041503          	lh	x10,2032(x8)
    7bc8:	e99fb0ef          	jal	x1,0x3a60
    7bcc:	00050593          	addi	x11,x10,0
    7bd0:	03411503          	lh	x10,52(x2)
    7bd4:	e8dfb0ef          	jal	x1,0x3a60
    7bd8:	b05d8e13          	addi	x28,x27,-1275 # 0x7b05
    7bdc:	00050c93          	addi	x25,x10,0
    7be0:	63c50063          	beq	x10,x28,0x8200
    7be4:	0cae6263          	bltu	x28,x10,0x7ca8
    7be8:	000023b7          	lui	x7,0x2
    7bec:	8f238593          	addi	x11,x7,-1806 # 0x18f2
    7bf0:	5eb50e63          	beq	x10,x11,0x81ec
    7bf4:	00005937          	lui	x18,0x5
    7bf8:	eaf90993          	addi	x19,x18,-337 # 0x4eaf
    7bfc:	21351463          	bne	x10,x19,0x7e04
    7c00:	00018b37          	lui	x22,0x18
    7c04:	694b0513          	addi	x10,x22,1684 # 0x18694
    7c08:	b55fc0ef          	jal	x1,0x475c
    7c0c:	00200b93          	addi	x23,x0,2
    7c10:	0c00006f          	jal	x0,0x7cd0
    7c14:	00457c93          	andi	x25,x10,4
    7c18:	001a0a13          	addi	x20,x20,1
    7c1c:	020c8a63          	beq	x25,x0,0x7c50
    7c20:	00288b13          	addi	x22,x17,2
    7c24:	7d000b93          	addi	x23,x0,2000
    7c28:	036bdc33          	divu	x24,x23,x22
    7c2c:	03812a23          	sw	x24,52(x2)
    7c30:	000c0513          	addi	x10,x24,0
    7c34:	4c089a63          	bne	x17,x0,0x8108
    7c38:	00400c93          	addi	x25,x0,4
    7c3c:	03888d33          	mul	x26,x17,x24
    7c40:	01a80db3          	add	x27,x16,x26
    7c44:	7fb42e23          	sw	x27,2044(x8)
    7c48:	e60c88e3          	beq	x25,x0,0x7ab8
    7c4c:	e61ff06f          	jal	x0,0x7aac
    7c50:	7d000a93          	addi	x21,x0,2000
    7c54:	034adc33          	divu	x24,x21,x20
    7c58:	03812a23          	sw	x24,52(x2)
    7c5c:	000c0513          	addi	x10,x24,0
    7c60:	fc088ee3          	beq	x17,x0,0x7c3c
    7c64:	7f042c23          	sw	x16,2040(x8)
    7c68:	fd5ff06f          	jal	x0,0x7c3c
    7c6c:	7d000513          	addi	x10,x0,2000
    7c70:	02a12a23          	sw	x10,52(x2)
    7c74:	e40a02e3          	beq	x20,x0,0x7ab8
    7c78:	7f042c23          	sw	x16,2040(x8)
    7c7c:	e3dff06f          	jal	x0,0x7ab8
    7c80:	7ee41783          	lh	x15,2030(x8)
    7c84:	7ec41703          	lh	x14,2028(x8)
    7c88:	7fc42583          	lw	x11,2044(x8)
    7c8c:	03412503          	lw	x10,52(x2)
    7c90:	01079293          	slli	x5,x15,0x10
    7c94:	00e2e633          	or	x12,x5,x14
    7c98:	04410693          	addi	x13,x2,68
    7c9c:	cdcf90ef          	jal	x1,0x1178
    7ca0:	03c12303          	lw	x6,60(x2)
    7ca4:	e3dff06f          	jal	x0,0x7ae0
    7ca8:	00009f37          	lui	x30,0x9
    7cac:	a02f0f93          	addi	x31,x30,-1534 # 0x8a02
    7cb0:	57f50263          	beq	x10,x31,0x8214
    7cb4:	0000f737          	lui	x14,0xf
    7cb8:	9f570293          	addi	x5,x14,-1547 # 0xe9f5
    7cbc:	14551463          	bne	x10,x5,0x7e04
    7cc0:	00018337          	lui	x6,0x18
    7cc4:	6c830513          	addi	x10,x6,1736 # 0x186c8
    7cc8:	a95fc0ef          	jal	x1,0x475c
    7ccc:	00300b93          	addi	x23,x0,3
    7cd0:	00010d37          	lui	x26,0x10
    7cd4:	00cd2603          	lw	x12,12(x26) # 0x1000c
    7cd8:	56060863          	beq	x12,x0,0x8248
    7cdc:	00018837          	lui	x16,0x18
    7ce0:	001b9a93          	slli	x21,x23,0x1
    7ce4:	07c80693          	addi	x13,x16,124 # 0x1807c
    7ce8:	000188b7          	lui	x17,0x18
    7cec:	01568db3          	add	x27,x13,x21
    7cf0:	72488993          	addi	x19,x17,1828 # 0x18724
    7cf4:	00000c13          	addi	x24,x0,0
    7cf8:	00000a93          	addi	x21,x0,0
    7cfc:	00001b37          	lui	x22,0x1
    7d00:	0340006f          	jal	x0,0x7d34
    7d04:	015484b3          	add	x9,x9,x21
    7d08:	00249513          	slli	x10,x9,0x2
    7d0c:	00a40e33          	add	x28,x8,x10
    7d10:	01cb0eb3          	add	x29,x22,x28
    7d14:	82ced783          	lhu	x15,-2004(x29)
    7d18:	018784b3          	add	x9,x15,x24
    7d1c:	00cd2603          	lw	x12,12(x26)
    7d20:	001a8c13          	addi	x24,x21,1
    7d24:	010c1a93          	slli	x21,x24,0x10
    7d28:	010ada93          	srli	x21,x21,0x10
    7d2c:	00048c13          	addi	x24,x9,0
    7d30:	0ecaf263          	bgeu	x21,x12,0x7e14
    7d34:	004a9493          	slli	x9,x21,0x4
    7d38:	01548533          	add	x10,x9,x21
    7d3c:	00251e13          	slli	x28,x10,0x2
    7d40:	01c40eb3          	add	x29,x8,x28
    7d44:	01db0933          	add	x18,x22,x29
    7d48:	80c92803          	lw	x16,-2036(x18)
    7d4c:	82091623          	sh	x0,-2004(x18)
    7d50:	00187f13          	andi	x30,x16,1
    7d54:	020f0663          	beq	x30,x0,0x7d80
    7d58:	82695603          	lhu	x12,-2010(x18)
    7d5c:	000dd683          	lhu	x13,0(x27)
    7d60:	02d60063          	beq	x12,x13,0x7d80
    7d64:	000a8593          	addi	x11,x21,0
    7d68:	00098513          	addi	x10,x19,0
    7d6c:	9f1fc0ef          	jal	x1,0x475c
    7d70:	82c95f83          	lhu	x31,-2004(x18)
    7d74:	80c92803          	lw	x16,-2036(x18)
    7d78:	001f8713          	addi	x14,x31,1
    7d7c:	82e91623          	sh	x14,-2004(x18)
    7d80:	00287293          	andi	x5,x16,2
    7d84:	04028063          	beq	x5,x0,0x7dc4
    7d88:	01548333          	add	x6,x9,x21
    7d8c:	00231393          	slli	x7,x6,0x2
    7d90:	007405b3          	add	x11,x8,x7
    7d94:	00bb0933          	add	x18,x22,x11
    7d98:	82895603          	lhu	x12,-2008(x18)
    7d9c:	00cdd683          	lhu	x13,12(x27)
    7da0:	02d60263          	beq	x12,x13,0x7dc4
    7da4:	000187b7          	lui	x15,0x18
    7da8:	75478513          	addi	x10,x15,1876 # 0x18754
    7dac:	000a8593          	addi	x11,x21,0
    7db0:	9adfc0ef          	jal	x1,0x475c
    7db4:	82c95603          	lhu	x12,-2004(x18)
    7db8:	80c92803          	lw	x16,-2036(x18)
    7dbc:	00160693          	addi	x13,x12,1
    7dc0:	82d91623          	sh	x13,-2004(x18)
    7dc4:	00487893          	andi	x17,x16,4
    7dc8:	f2088ee3          	beq	x17,x0,0x7d04
    7dcc:	01548f33          	add	x30,x9,x21
    7dd0:	002f1f93          	slli	x31,x30,0x2
    7dd4:	01f40733          	add	x14,x8,x31
    7dd8:	00eb0933          	add	x18,x22,x14
    7ddc:	82a95603          	lhu	x12,-2006(x18)
    7de0:	018dd683          	lhu	x13,24(x27)
    7de4:	32d61c63          	bne	x12,x13,0x811c
    7de8:	82c95783          	lhu	x15,-2004(x18)
    7dec:	f2dff06f          	jal	x0,0x7d18
    7df0:	7f041583          	lh	x11,2032(x8)
    7df4:	c6059ee3          	bne	x11,x0,0x7a70
    7df8:	06600613          	addi	x12,x0,102
    7dfc:	7ec41823          	sh	x12,2032(x8)
    7e00:	c71ff06f          	jal	x0,0x7a70
    7e04:	00010bb7          	lui	x23,0x10
    7e08:	fffb8493          	addi	x9,x23,-1 # 0xffff
    7e0c:	00010d37          	lui	x26,0x10
    7e10:	fff00b93          	addi	x23,x0,-1
    7e14:	e79fb0ef          	jal	x1,0x3c8c
    7e18:	03412583          	lw	x11,52(x2)
    7e1c:	00018db7          	lui	x27,0x18
    7e20:	009504b3          	add	x9,x10,x9
    7e24:	7b8d8513          	addi	x10,x27,1976 # 0x187b8
    7e28:	935fc0ef          	jal	x1,0x475c
    7e2c:	000189b7          	lui	x19,0x18
    7e30:	000a0593          	addi	x11,x20,0
    7e34:	7d098513          	addi	x10,x19,2000 # 0x187d0
    7e38:	925fc0ef          	jal	x1,0x475c
    7e3c:	000a0513          	addi	x10,x20,0
    7e40:	e05fa0ef          	jal	x1,0x2c44
    7e44:	00018b37          	lui	x22,0x18
    7e48:	00050613          	addi	x12,x10,0
    7e4c:	00058693          	addi	x13,x11,0
    7e50:	7e8b0513          	addi	x10,x22,2024 # 0x187e8
    7e54:	909fc0ef          	jal	x1,0x475c
    7e58:	000a0513          	addi	x10,x20,0
    7e5c:	de9fa0ef          	jal	x1,0x2c44
    7e60:	00000613          	addi	x12,x0,0
    7e64:	00000693          	addi	x13,x0,0
    7e68:	aadfe0ef          	jal	x1,0x6914
    7e6c:	04a05663          	bge	x0,x10,0x7eb8
    7e70:	03812803          	lw	x16,56(x2)
    7e74:	00cd2683          	lw	x13,12(x26) # 0x1000c
    7e78:	02d80533          	mul	x10,x16,x13
    7e7c:	a85ff0ef          	jal	x1,0x7900
    7e80:	00050913          	addi	x18,x10,0
    7e84:	000a0513          	addi	x10,x20,0
    7e88:	00058a93          	addi	x21,x11,0
    7e8c:	db9fa0ef          	jal	x1,0x2c44
    7e90:	00050613          	addi	x12,x10,0
    7e94:	00058693          	addi	x13,x11,0
    7e98:	00090513          	addi	x10,x18,0
    7e9c:	000a8593          	addi	x11,x21,0
    7ea0:	b38fe0ef          	jal	x1,0x61d8
    7ea4:	000198b7          	lui	x17,0x19
    7ea8:	00050613          	addi	x12,x10,0
    7eac:	00058693          	addi	x13,x11,0
    7eb0:	80088513          	addi	x10,x17,-2048 # 0x18800
    7eb4:	8a9fc0ef          	jal	x1,0x475c
    7eb8:	000a0513          	addi	x10,x20,0
    7ebc:	d89fa0ef          	jal	x1,0x2c44
    7ec0:	00019e37          	lui	x28,0x19
    7ec4:	ba0e2603          	lw	x12,-1120(x28) # 0x18ba0
    7ec8:	ba4e2683          	lw	x13,-1116(x28)
    7ecc:	b21fe0ef          	jal	x1,0x69ec
    7ed0:	26054a63          	blt	x10,x0,0x8144
    7ed4:	03812e83          	lw	x29,56(x2)
    7ed8:	00cd2f03          	lw	x30,12(x26)
    7edc:	00019fb7          	lui	x31,0x19
    7ee0:	01049713          	slli	x14,x9,0x10
    7ee4:	03ee85b3          	mul	x11,x29,x30
    7ee8:	858f8513          	addi	x10,x31,-1960 # 0x18858
    7eec:	41075d93          	srai	x27,x14,0x10
    7ef0:	000199b7          	lui	x19,0x19
    7ef4:	00019b37          	lui	x22,0x19
    7ef8:	00019c37          	lui	x24,0x19
    7efc:	861fc0ef          	jal	x1,0x475c
    7f00:	000192b7          	lui	x5,0x19
    7f04:	87c28513          	addi	x10,x5,-1924 # 0x1887c
    7f08:	87098593          	addi	x11,x19,-1936 # 0x18870
    7f0c:	851fc0ef          	jal	x1,0x475c
    7f10:	00019337          	lui	x6,0x19
    7f14:	8cc30513          	addi	x10,x6,-1844 # 0x188cc
    7f18:	894b0593          	addi	x11,x22,-1900 # 0x18894
    7f1c:	841fc0ef          	jal	x1,0x475c
    7f20:	000193b7          	lui	x7,0x19
    7f24:	8e4c0593          	addi	x11,x24,-1820 # 0x188e4
    7f28:	8ec38513          	addi	x10,x7,-1812 # 0x188ec
    7f2c:	831fc0ef          	jal	x1,0x475c
    7f30:	000c8593          	addi	x11,x25,0
    7f34:	00019cb7          	lui	x25,0x19
    7f38:	904c8513          	addi	x10,x25,-1788 # 0x18904
    7f3c:	821fc0ef          	jal	x1,0x475c
    7f40:	03c12503          	lw	x10,60(x2)
    7f44:	00157593          	andi	x11,x10,1
    7f48:	04058c63          	beq	x11,x0,0x7fa0
    7f4c:	00cd2603          	lw	x12,12(x26)
    7f50:	04060863          	beq	x12,x0,0x7fa0
    7f54:	000197b7          	lui	x15,0x19
    7f58:	92078a93          	addi	x21,x15,-1760 # 0x18920
    7f5c:	00000c93          	addi	x25,x0,0
    7f60:	00001937          	lui	x18,0x1
    7f64:	004c9813          	slli	x16,x25,0x4
    7f68:	019806b3          	add	x13,x16,x25
    7f6c:	00269893          	slli	x17,x13,0x2
    7f70:	01140e33          	add	x28,x8,x17
    7f74:	01c90533          	add	x10,x18,x28
    7f78:	82655603          	lhu	x12,-2010(x10)
    7f7c:	000c8593          	addi	x11,x25,0
    7f80:	000a8513          	addi	x10,x21,0
    7f84:	fd8fc0ef          	jal	x1,0x475c
    7f88:	001c8493          	addi	x9,x25,1
    7f8c:	00cd2f03          	lw	x30,12(x26)
    7f90:	01049e93          	slli	x29,x9,0x10
    7f94:	010edc93          	srli	x25,x29,0x10
    7f98:	fdece6e3          	bltu	x25,x30,0x7f64
    7f9c:	03c12503          	lw	x10,60(x2)
    7fa0:	00257f93          	andi	x31,x10,2
    7fa4:	040f8c63          	beq	x31,x0,0x7ffc
    7fa8:	00cd2703          	lw	x14,12(x26)
    7fac:	2a070263          	beq	x14,x0,0x8250
    7fb0:	00019337          	lui	x6,0x19
    7fb4:	93c30a93          	addi	x21,x6,-1732 # 0x1893c
    7fb8:	00000493          	addi	x9,x0,0
    7fbc:	00001937          	lui	x18,0x1
    7fc0:	00449393          	slli	x7,x9,0x4
    7fc4:	009385b3          	add	x11,x7,x9
    7fc8:	00259613          	slli	x12,x11,0x2
    7fcc:	00c407b3          	add	x15,x8,x12
    7fd0:	00f90833          	add	x16,x18,x15
    7fd4:	82885603          	lhu	x12,-2008(x16)
    7fd8:	00048593          	addi	x11,x9,0
    7fdc:	000a8513          	addi	x10,x21,0
    7fe0:	f7cfc0ef          	jal	x1,0x475c
    7fe4:	00148693          	addi	x13,x9,1
    7fe8:	00cd2e03          	lw	x28,12(x26)
    7fec:	01069893          	slli	x17,x13,0x10
    7ff0:	0108d493          	srli	x9,x17,0x10
    7ff4:	fdc4e6e3          	bltu	x9,x28,0x7fc0
    7ff8:	03c12503          	lw	x10,60(x2)
    7ffc:	00457e93          	andi	x29,x10,4
    8000:	040e8a63          	beq	x29,x0,0x8054
    8004:	00cd2c83          	lw	x25,12(x26)
    8008:	080c8e63          	beq	x25,x0,0x80a4
    800c:	00019f37          	lui	x30,0x19
    8010:	958f0a93          	addi	x21,x30,-1704 # 0x18958
    8014:	00000493          	addi	x9,x0,0
    8018:	00001937          	lui	x18,0x1
    801c:	00449f93          	slli	x31,x9,0x4
    8020:	009f8733          	add	x14,x31,x9
    8024:	00271293          	slli	x5,x14,0x2
    8028:	00540333          	add	x6,x8,x5
    802c:	006903b3          	add	x7,x18,x6
    8030:	82a3d603          	lhu	x12,-2006(x7)
    8034:	00048593          	addi	x11,x9,0
    8038:	000a8513          	addi	x10,x21,0
    803c:	f20fc0ef          	jal	x1,0x475c
    8040:	00148593          	addi	x11,x9,1
    8044:	00cd2783          	lw	x15,12(x26)
    8048:	01059613          	slli	x12,x11,0x10
    804c:	01065493          	srli	x9,x12,0x10
    8050:	fcf4e6e3          	bltu	x9,x15,0x801c
    8054:	00cd2803          	lw	x16,12(x26)
    8058:	000196b7          	lui	x13,0x19
    805c:	97468a93          	addi	x21,x13,-1676 # 0x18974
    8060:	00000493          	addi	x9,x0,0
    8064:	00001937          	lui	x18,0x1
    8068:	02080e63          	beq	x16,x0,0x80a4
    806c:	00449893          	slli	x17,x9,0x4
    8070:	00988e33          	add	x28,x17,x9
    8074:	002e1513          	slli	x10,x28,0x2
    8078:	00a40eb3          	add	x29,x8,x10
    807c:	01d90f33          	add	x30,x18,x29
    8080:	824f5603          	lhu	x12,-2012(x30)
    8084:	00048593          	addi	x11,x9,0
    8088:	000a8513          	addi	x10,x21,0
    808c:	ed0fc0ef          	jal	x1,0x475c
    8090:	00148c93          	addi	x25,x9,1
    8094:	00cd2703          	lw	x14,12(x26)
    8098:	010c9f93          	slli	x31,x25,0x10
    809c:	010fd493          	srli	x9,x31,0x10
    80a0:	fce4e6e3          	bltu	x9,x14,0x806c
    80a4:	0a0d8a63          	beq	x27,x0,0x8158
    80a8:	13b05a63          	bge	x0,x27,0x81dc
    80ac:	00019d37          	lui	x26,0x19
    80b0:	a64d0513          	addi	x10,x26,-1436 # 0x18a64
    80b4:	ea8fc0ef          	jal	x1,0x475c
    80b8:	05e10513          	addi	x10,x2,94
    80bc:	bbdfa0ef          	jal	x1,0x2c78
    80c0:	aedfa0ef          	jal	x1,0x2bac
    80c4:	08010113          	addi	x2,x2,128
    80c8:	7ec12083          	lw	x1,2028(x2)
    80cc:	7e812403          	lw	x8,2024(x2)
    80d0:	7e412483          	lw	x9,2020(x2)
    80d4:	7e012903          	lw	x18,2016(x2)
    80d8:	7dc12983          	lw	x19,2012(x2)
    80dc:	7d812a03          	lw	x20,2008(x2)
    80e0:	7d412a83          	lw	x21,2004(x2)
    80e4:	7d012b03          	lw	x22,2000(x2)
    80e8:	7cc12b83          	lw	x23,1996(x2)
    80ec:	7c812c03          	lw	x24,1992(x2)
    80f0:	7c412c83          	lw	x25,1988(x2)
    80f4:	7c012d03          	lw	x26,1984(x2)
    80f8:	7bc12d83          	lw	x27,1980(x2)
    80fc:	00000513          	addi	x10,x0,0
    8100:	7f010113          	addi	x2,x2,2032
    8104:	00008067          	jalr	x0,0(x1)
    8108:	7f042c23          	sw	x16,2040(x8)
    810c:	00400c93          	addi	x25,x0,4
    8110:	b2dff06f          	jal	x0,0x7c3c
    8114:	7f042c23          	sw	x16,2040(x8)
    8118:	995ff06f          	jal	x0,0x7aac
    811c:	000182b7          	lui	x5,0x18
    8120:	000a8593          	addi	x11,x21,0
    8124:	78828513          	addi	x10,x5,1928 # 0x18788
    8128:	e34fc0ef          	jal	x1,0x475c
    812c:	82c95303          	lhu	x6,-2004(x18) # 0x82c
    8130:	00130393          	addi	x7,x6,1
    8134:	01039593          	slli	x11,x7,0x10
    8138:	0105d793          	srli	x15,x11,0x10
    813c:	82f91623          	sh	x15,-2004(x18)
    8140:	bd9ff06f          	jal	x0,0x7d18
    8144:	00019537          	lui	x10,0x19
    8148:	81850513          	addi	x10,x10,-2024 # 0x18818
    814c:	e10fc0ef          	jal	x1,0x475c
    8150:	00148493          	addi	x9,x9,1
    8154:	d81ff06f          	jal	x0,0x7ed4
    8158:	00019db7          	lui	x27,0x19
    815c:	990d8513          	addi	x10,x27,-1648 # 0x18990
    8160:	dfcfc0ef          	jal	x1,0x475c
    8164:	00300293          	addi	x5,x0,3
    8168:	f45b98e3          	bne	x23,x5,0x80b8
    816c:	00cd2403          	lw	x8,12(x26)
    8170:	03812b83          	lw	x23,56(x2)
    8174:	028b8533          	mul	x10,x23,x8
    8178:	f88ff0ef          	jal	x1,0x7900
    817c:	00050413          	addi	x8,x10,0
    8180:	000a0513          	addi	x10,x20,0
    8184:	00058a93          	addi	x21,x11,0
    8188:	abdfa0ef          	jal	x1,0x2c44
    818c:	00050613          	addi	x12,x10,0
    8190:	00058693          	addi	x13,x11,0
    8194:	00040513          	addi	x10,x8,0
    8198:	000a8593          	addi	x11,x21,0
    819c:	83cfe0ef          	jal	x1,0x61d8
    81a0:	00019337          	lui	x6,0x19
    81a4:	00050613          	addi	x12,x10,0
    81a8:	00058693          	addi	x13,x11,0
    81ac:	894b0793          	addi	x15,x22,-1900
    81b0:	87098713          	addi	x14,x19,-1936
    81b4:	9dc30513          	addi	x10,x6,-1572 # 0x189dc
    81b8:	da4fc0ef          	jal	x1,0x475c
    81bc:	000199b7          	lui	x19,0x19
    81c0:	8e4c0593          	addi	x11,x24,-1820
    81c4:	9f898513          	addi	x10,x19,-1544 # 0x189f8
    81c8:	d94fc0ef          	jal	x1,0x475c
    81cc:	00019b37          	lui	x22,0x19
    81d0:	854b0513          	addi	x10,x22,-1964 # 0x18854
    81d4:	d88fc0ef          	jal	x1,0x475c
    81d8:	ee1ff06f          	jal	x0,0x80b8
    81dc:	00019a37          	lui	x20,0x19
    81e0:	a00a0513          	addi	x10,x20,-1536 # 0x18a00
    81e4:	d78fc0ef          	jal	x1,0x475c
    81e8:	ed1ff06f          	jal	x0,0x80b8
    81ec:	000184b7          	lui	x9,0x18
    81f0:	6f848513          	addi	x10,x9,1784 # 0x186f8
    81f4:	d68fc0ef          	jal	x1,0x475c
    81f8:	00400b93          	addi	x23,x0,4
    81fc:	ad5ff06f          	jal	x0,0x7cd0
    8200:	00018eb7          	lui	x29,0x18
    8204:	668e8513          	addi	x10,x29,1640 # 0x18668
    8208:	d54fc0ef          	jal	x1,0x475c
    820c:	00100b93          	addi	x23,x0,1
    8210:	ac1ff06f          	jal	x0,0x7cd0
    8214:	000187b7          	lui	x15,0x18
    8218:	63878513          	addi	x10,x15,1592 # 0x18638
    821c:	d40fc0ef          	jal	x1,0x475c
    8220:	00000b93          	addi	x23,x0,0
    8224:	aadff06f          	jal	x0,0x7cd0
    8228:	7f041283          	lh	x5,2032(x8)
    822c:	840292e3          	bne	x5,x0,0x7a70
    8230:	34153337          	lui	x6,0x34153
    8234:	41530393          	addi	x7,x6,1045 # 0x34153415
    8238:	06600493          	addi	x9,x0,102
    823c:	7e742623          	sw	x7,2028(x8)
    8240:	7e941823          	sh	x9,2032(x8)
    8244:	82dff06f          	jal	x0,0x7a70
    8248:	00000493          	addi	x9,x0,0
    824c:	bc9ff06f          	jal	x0,0x7e14
    8250:	00457293          	andi	x5,x10,4
    8254:	e00280e3          	beq	x5,x0,0x8054
    8258:	e4dff06f          	jal	x0,0x80a4

Disassembly of section .text.memmove:

0000825c <.text.memmove>:
    825c:	02a5f663          	bgeu	x11,x10,0x8288
    8260:	00c587b3          	add	x15,x11,x12
    8264:	02f57263          	bgeu	x10,x15,0x8288
    8268:	04060863          	beq	x12,x0,0x82b8
    826c:	00c50633          	add	x12,x10,x12
    8270:	fff7c703          	lbu	x14,-1(x15)
    8274:	fff60613          	addi	x12,x12,-1
    8278:	fff78793          	addi	x15,x15,-1
    827c:	00e60023          	sb	x14,0(x12)
    8280:	fec518e3          	bne	x10,x12,0x8270
    8284:	00008067          	jalr	x0,0(x1)
    8288:	00f00793          	addi	x15,x0,15
    828c:	02c7e863          	bltu	x15,x12,0x82bc
    8290:	00050793          	addi	x15,x10,0
    8294:	fff60693          	addi	x13,x12,-1
    8298:	0e060063          	beq	x12,x0,0x8378
    829c:	00168693          	addi	x13,x13,1
    82a0:	00d786b3          	add	x13,x15,x13
    82a4:	0005c703          	lbu	x14,0(x11)
    82a8:	00178793          	addi	x15,x15,1
    82ac:	00158593          	addi	x11,x11,1
    82b0:	fee78fa3          	sb	x14,-1(x15)
    82b4:	fed798e3          	bne	x15,x13,0x82a4
    82b8:	00008067          	jalr	x0,0(x1)
    82bc:	00b567b3          	or	x15,x10,x11
    82c0:	0037f793          	andi	x15,x15,3
    82c4:	00058893          	addi	x17,x11,0
    82c8:	0a079263          	bne	x15,x0,0x836c
    82cc:	00465793          	srli	x15,x12,0x4
    82d0:	00479813          	slli	x16,x15,0x4
    82d4:	01050833          	add	x16,x10,x16
    82d8:	fff78793          	addi	x15,x15,-1
    82dc:	00050713          	addi	x14,x10,0
    82e0:	0005a683          	lw	x13,0(x11)
    82e4:	01058593          	addi	x11,x11,16
    82e8:	01070713          	addi	x14,x14,16
    82ec:	fed72823          	sw	x13,-16(x14)
    82f0:	ff45a683          	lw	x13,-12(x11)
    82f4:	fed72a23          	sw	x13,-12(x14)
    82f8:	ff85a683          	lw	x13,-8(x11)
    82fc:	fed72c23          	sw	x13,-8(x14)
    8300:	ffc5a683          	lw	x13,-4(x11)
    8304:	fed72e23          	sw	x13,-4(x14)
    8308:	fd071ce3          	bne	x14,x16,0x82e0
    830c:	00479793          	slli	x15,x15,0x4
    8310:	01178733          	add	x14,x15,x17
    8314:	01070593          	addi	x11,x14,16
    8318:	00f507b3          	add	x15,x10,x15
    831c:	00c67813          	andi	x16,x12,12
    8320:	01078793          	addi	x15,x15,16
    8324:	00058e13          	addi	x28,x11,0
    8328:	00f67693          	andi	x13,x12,15
    832c:	04080863          	beq	x16,x0,0x837c
    8330:	ffc68693          	addi	x13,x13,-4
    8334:	ffc6f693          	andi	x13,x13,-4
    8338:	00d70733          	add	x14,x14,x13
    833c:	01470713          	addi	x14,x14,20
    8340:	41150833          	sub	x16,x10,x17
    8344:	0005a303          	lw	x6,0(x11)
    8348:	010588b3          	add	x17,x11,x16
    834c:	00458593          	addi	x11,x11,4
    8350:	0068a023          	sw	x6,0(x17)
    8354:	fee598e3          	bne	x11,x14,0x8344
    8358:	00468713          	addi	x14,x13,4
    835c:	01c705b3          	add	x11,x14,x28
    8360:	00f707b3          	add	x15,x14,x15
    8364:	00367613          	andi	x12,x12,3
    8368:	f2dff06f          	jal	x0,0x8294
    836c:	fff60693          	addi	x13,x12,-1
    8370:	00050793          	addi	x15,x10,0
    8374:	f29ff06f          	jal	x0,0x829c
    8378:	00008067          	jalr	x0,0(x1)
    837c:	00068613          	addi	x12,x13,0
    8380:	f15ff06f          	jal	x0,0x8294

Disassembly of section .text.memcpy:

00008384 <.text.memcpy>:
    8384:	00a5c7b3          	xor	x15,x11,x10
    8388:	0037f793          	andi	x15,x15,3
    838c:	00c508b3          	add	x17,x10,x12
    8390:	06079663          	bne	x15,x0,0x83fc
    8394:	00463613          	sltiu	x12,x12,4
    8398:	06061263          	bne	x12,x0,0x83fc
    839c:	00357793          	andi	x15,x10,3
    83a0:	00050713          	addi	x14,x10,0
    83a4:	0c079a63          	bne	x15,x0,0x8478
    83a8:	ffc8f613          	andi	x12,x17,-4
    83ac:	40e606b3          	sub	x13,x12,x14
    83b0:	02000793          	addi	x15,x0,32
    83b4:	06d7c463          	blt	x15,x13,0x841c
    83b8:	00058693          	addi	x13,x11,0
    83bc:	00070793          	addi	x15,x14,0
    83c0:	02c77a63          	bgeu	x14,x12,0x83f4
    83c4:	0006a803          	lw	x16,0(x13)
    83c8:	00478793          	addi	x15,x15,4
    83cc:	00468693          	addi	x13,x13,4
    83d0:	ff07ae23          	sw	x16,-4(x15)
    83d4:	fec7e8e3          	bltu	x15,x12,0x83c4
    83d8:	fff60613          	addi	x12,x12,-1
    83dc:	40e60633          	sub	x12,x12,x14
    83e0:	ffc67613          	andi	x12,x12,-4
    83e4:	00458593          	addi	x11,x11,4
    83e8:	00470713          	addi	x14,x14,4
    83ec:	00c585b3          	add	x11,x11,x12
    83f0:	00c70733          	add	x14,x14,x12
    83f4:	01176863          	bltu	x14,x17,0x8404
    83f8:	00008067          	jalr	x0,0(x1)
    83fc:	00050713          	addi	x14,x10,0
    8400:	ff157ce3          	bgeu	x10,x17,0x83f8
    8404:	0005c783          	lbu	x15,0(x11)
    8408:	00170713          	addi	x14,x14,1
    840c:	00158593          	addi	x11,x11,1
    8410:	fef70fa3          	sb	x15,-1(x14)
    8414:	fee898e3          	bne	x17,x14,0x8404
    8418:	00008067          	jalr	x0,0(x1)
    841c:	0005a683          	lw	x13,0(x11)
    8420:	0045a283          	lw	x5,4(x11)
    8424:	0085af83          	lw	x31,8(x11)
    8428:	00c5af03          	lw	x30,12(x11)
    842c:	0105ae83          	lw	x29,16(x11)
    8430:	0145ae03          	lw	x28,20(x11)
    8434:	0185a303          	lw	x6,24(x11)
    8438:	01c5a803          	lw	x16,28(x11)
    843c:	00d72023          	sw	x13,0(x14)
    8440:	0205a683          	lw	x13,32(x11)
    8444:	02470713          	addi	x14,x14,36
    8448:	fe572023          	sw	x5,-32(x14)
    844c:	fed72e23          	sw	x13,-4(x14)
    8450:	fff72223          	sw	x31,-28(x14)
    8454:	40e606b3          	sub	x13,x12,x14
    8458:	ffe72423          	sw	x30,-24(x14)
    845c:	ffd72623          	sw	x29,-20(x14)
    8460:	ffc72823          	sw	x28,-16(x14)
    8464:	fe672a23          	sw	x6,-12(x14)
    8468:	ff072c23          	sw	x16,-8(x14)
    846c:	02458593          	addi	x11,x11,36
    8470:	fad7c6e3          	blt	x15,x13,0x841c
    8474:	f45ff06f          	jal	x0,0x83b8
    8478:	0005c683          	lbu	x13,0(x11)
    847c:	00170713          	addi	x14,x14,1
    8480:	00377793          	andi	x15,x14,3
    8484:	fed70fa3          	sb	x13,-1(x14)
    8488:	00158593          	addi	x11,x11,1
    848c:	f0078ee3          	beq	x15,x0,0x83a8
    8490:	0005c683          	lbu	x13,0(x11)
    8494:	00170713          	addi	x14,x14,1
    8498:	00377793          	andi	x15,x14,3
    849c:	fed70fa3          	sb	x13,-1(x14)
    84a0:	00158593          	addi	x11,x11,1
    84a4:	fc079ae3          	bne	x15,x0,0x8478
    84a8:	f01ff06f          	jal	x0,0x83a8

Disassembly of section .text.modf:

000084ac <.text.modf>:
    84ac:	4145d693          	srai	x13,x11,0x14
    84b0:	fe010113          	addi	x2,x2,-32
    84b4:	7ff6f693          	andi	x13,x13,2047
    84b8:	00112e23          	sw	x1,28(x2)
    84bc:	c0168813          	addi	x16,x13,-1023
    84c0:	01300313          	addi	x6,x0,19
    84c4:	00058793          	addi	x15,x11,0
    84c8:	00060893          	addi	x17,x12,0
    84cc:	00050713          	addi	x14,x10,0
    84d0:	05034863          	blt	x6,x16,0x8520
    84d4:	10084663          	blt	x16,x0,0x85e0
    84d8:	001006b7          	lui	x13,0x100
    84dc:	fff68693          	addi	x13,x13,-1 # 0xfffff
    84e0:	4106d6b3          	sra	x13,x13,x16
    84e4:	00b6f633          	and	x12,x13,x11
    84e8:	00a66633          	or	x12,x12,x10
    84ec:	06061463          	bne	x12,x0,0x8554
    84f0:	00070613          	addi	x12,x14,0
    84f4:	00078693          	addi	x13,x15,0
    84f8:	80000737          	lui	x14,0x80000
    84fc:	00f777b3          	and	x15,x14,x15
    8500:	00c8a023          	sw	x12,0(x17)
    8504:	00000713          	addi	x14,x0,0
    8508:	00d8a223          	sw	x13,4(x17)
    850c:	01c12083          	lw	x1,28(x2)
    8510:	00070513          	addi	x10,x14,0 # 0x80000000
    8514:	00078593          	addi	x11,x15,0
    8518:	02010113          	addi	x2,x2,32
    851c:	00008067          	jalr	x0,0(x1)
    8520:	03300613          	addi	x12,x0,51
    8524:	07064663          	blt	x12,x16,0x8590
    8528:	fff00613          	addi	x12,x0,-1
    852c:	bed68693          	addi	x13,x13,-1043
    8530:	00d656b3          	srl	x13,x12,x13
    8534:	00a6f633          	and	x12,x13,x10
    8538:	fa060ce3          	beq	x12,x0,0x84f0
    853c:	fff6c693          	xori	x13,x13,-1
    8540:	00a6fe33          	and	x28,x13,x10
    8544:	00a6f333          	and	x6,x13,x10
    8548:	000e0613          	addi	x12,x28,0
    854c:	00058693          	addi	x13,x11,0
    8550:	0180006f          	jal	x0,0x8568
    8554:	fff6c693          	xori	x13,x13,-1
    8558:	00b6f7b3          	and	x15,x13,x11
    855c:	00000613          	addi	x12,x0,0
    8560:	00078693          	addi	x13,x15,0
    8564:	00000313          	addi	x6,x0,0
    8568:	00f8a223          	sw	x15,4(x17)
    856c:	0068a023          	sw	x6,0(x17)
    8570:	b3dfe0ef          	jal	x1,0x70ac
    8574:	01c12083          	lw	x1,28(x2)
    8578:	00050713          	addi	x14,x10,0
    857c:	00058793          	addi	x15,x11,0
    8580:	00070513          	addi	x10,x14,0
    8584:	00078593          	addi	x11,x15,0
    8588:	02010113          	addi	x2,x2,32
    858c:	00008067          	jalr	x0,0(x1)
    8590:	00a8a023          	sw	x10,0(x17)
    8594:	00b8a223          	sw	x11,4(x17)
    8598:	00a12623          	sw	x10,12(x2)
    859c:	00b12223          	sw	x11,4(x2)
    85a0:	01112423          	sw	x17,8(x2)
    85a4:	070000ef          	jal	x1,0x8614
    85a8:	00412783          	lw	x15,4(x2)
    85ac:	04051c63          	bne	x10,x0,0x8604
    85b0:	00c12703          	lw	x14,12(x2)
    85b4:	00078693          	addi	x13,x15,0
    85b8:	00078593          	addi	x11,x15,0
    85bc:	00070613          	addi	x12,x14,0
    85c0:	00070513          	addi	x10,x14,0
    85c4:	cc8fd0ef          	jal	x1,0x5a8c
    85c8:	00812883          	lw	x17,8(x2)
    85cc:	00050713          	addi	x14,x10,0
    85d0:	00058793          	addi	x15,x11,0
    85d4:	00a8a023          	sw	x10,0(x17)
    85d8:	00b8a223          	sw	x11,4(x17)
    85dc:	f31ff06f          	jal	x0,0x850c
    85e0:	01c12083          	lw	x1,28(x2)
    85e4:	800006b7          	lui	x13,0x80000
    85e8:	00b6f6b3          	and	x13,x13,x11
    85ec:	00062023          	sw	x0,0(x12)
    85f0:	00d62223          	sw	x13,4(x12)
    85f4:	00070513          	addi	x10,x14,0
    85f8:	00078593          	addi	x11,x15,0
    85fc:	02010113          	addi	x2,x2,32
    8600:	00008067          	jalr	x0,0(x1)
    8604:	80000737          	lui	x14,0x80000
    8608:	00f777b3          	and	x15,x14,x15
    860c:	00000713          	addi	x14,x0,0
    8610:	efdff06f          	jal	x0,0x850c

Disassembly of section .text.__fpclassifyd:

00008614 <.text.__fpclassifyd>:
    8614:	00b567b3          	or	x15,x10,x11
    8618:	04078e63          	beq	x15,x0,0x8674
    861c:	80000737          	lui	x14,0x80000
    8620:	00b70733          	add	x14,x14,x11
    8624:	00153793          	sltiu	x15,x10,1
    8628:	00071663          	bne	x14,x0,0x8634
    862c:	00200513          	addi	x10,x0,2
    8630:	04079463          	bne	x15,x0,0x8678
    8634:	00159713          	slli	x14,x11,0x1
    8638:	00175713          	srli	x14,x14,0x1
    863c:	fff006b7          	lui	x13,0xfff00
    8640:	00d706b3          	add	x13,x14,x13
    8644:	7fe00637          	lui	x12,0x7fe00
    8648:	00400513          	addi	x10,x0,4
    864c:	02c6e663          	bltu	x13,x12,0x8678
    8650:	0145d613          	srli	x12,x11,0x14
    8654:	7ff67613          	andi	x12,x12,2047
    8658:	7ff006b7          	lui	x13,0x7ff00
    865c:	00300513          	addi	x10,x0,3
    8660:	00060c63          	beq	x12,x0,0x8678
    8664:	40d70733          	sub	x14,x14,x13
    8668:	00173713          	sltiu	x14,x14,1
    866c:	00e7f533          	and	x10,x15,x14
    8670:	00008067          	jalr	x0,0(x1)
    8674:	00200513          	addi	x10,x0,2
    8678:	00008067          	jalr	x0,0(x1)

Disassembly of section .data:

00010000 <.data>:
   10000:	8a78                	.insn	2, 0x8a78
   10002:	0001                	c.addi	x0,0
   10004:	8a80                	.insn	2, 0x8a80
   10006:	0001                	c.addi	x0,0
   10008:	8a88                	.insn	2, 0x8a88
   1000a:	0001                	c.addi	x0,0

Disassembly of section .sdata:

0001000c <.sdata>:
   1000c:	0001                	c.addi	x0,0
   1000e:	0000                	c.unimp
   10010:	000a                	c.slli	x0,0x2
   10012:	0000                	c.unimp
   10014:	0066                	c.slli	x0,0x19
	...

Disassembly of section .rodata:

0001007c <.rodata>:
	...
   1807c:	d4b0                	c.sw	x12,104(x9)
   1807e:	3340                	c.fld	f8,160(x14)
   18080:	6a79                	c.lui	x20,0x1e
   18082:	e714                	c.fsw	f13,8(x14)
   18084:	e3c1                	c.bnez	x15,0x18104
   18086:	0000                	c.unimp
   18088:	be52                	c.fsdsp	f20,312(x2)
   1808a:	1199                	c.addi	x3,-26
   1808c:	5608                	c.lw	x10,40(x12)
   1808e:	07471fd7          	.insn	4, 0x07471fd7
   18092:	0000                	c.unimp
   18094:	39bf5e47          	fmsub.s	f28,f30,f27,f7,unknown
   18098:	e5a4                	c.fsw	f9,72(x11)
   1809a:	8e3a                	c.mv	x28,x14
   1809c:	8d84                	.insn	2, 0x8d84
   1809e:	ffff                	.insn	2, 0xffff
   180a0:	8b20                	.insn	2, 0x8b20
   180a2:	0001                	c.addi	x0,0
   180a4:	8b28                	.insn	2, 0x8b28
   180a6:	0001                	c.addi	x0,0
   180a8:	8b30                	.insn	2, 0x8b30
   180aa:	0001                	c.addi	x0,0
   180ac:	8b38                	.insn	2, 0x8b38
   180ae:	0001                	c.addi	x0,0
   180b0:	8af0                	.insn	2, 0x8af0
   180b2:	0001                	c.addi	x0,0
   180b4:	8afc                	.insn	2, 0x8afc
   180b6:	0001                	c.addi	x0,0
   180b8:	8b08                	.insn	2, 0x8b08
   180ba:	0001                	c.addi	x0,0
   180bc:	8b14                	.insn	2, 0x8b14
   180be:	0001                	c.addi	x0,0
   180c0:	8ac0                	.insn	2, 0x8ac0
   180c2:	0001                	c.addi	x0,0
   180c4:	8acc                	.insn	2, 0x8acc
   180c6:	0001                	c.addi	x0,0
   180c8:	8ad8                	.insn	2, 0x8ad8
   180ca:	0001                	c.addi	x0,0
   180cc:	8ae4                	.insn	2, 0x8ae4
   180ce:	0001                	c.addi	x0,0
   180d0:	8a90                	.insn	2, 0x8a90
   180d2:	0001                	c.addi	x0,0
   180d4:	8a9c                	.insn	2, 0x8a9c
   180d6:	0001                	c.addi	x0,0
   180d8:	8aa8                	.insn	2, 0x8aa8
   180da:	0001                	c.addi	x0,0
   180dc:	8ab4                	.insn	2, 0x8ab4
   180de:	0001                	c.addi	x0,0
   180e0:	32e0                	c.fld	f8,224(x13)
   180e2:	0000                	c.unimp
   180e4:	32b0                	c.fld	f12,96(x13)
   180e6:	0000                	c.unimp
   180e8:	32bc                	c.fld	f15,96(x13)
   180ea:	0000                	c.unimp
   180ec:	32c8                	c.fld	f10,160(x13)
   180ee:	0000                	c.unimp
   180f0:	32d4                	c.fld	f13,160(x13)
   180f2:	0000                	c.unimp
   180f4:	32a4                	c.fld	f9,96(x13)
   180f6:	0000                	c.unimp
   180f8:	0000                	c.unimp
   180fa:	8005                	c.srli	x8,0x1
   180fc:	000a800f          	.insn	4, 0x000a800f
   18100:	001e801b          	.insn	4, 0x001e801b
   18104:	0014                	.insn	2, 0x0014
   18106:	8011                	c.srli	x8,0x4
   18108:	00368033          	add	x0,x13,x3
   1810c:	003c                	c.addi4spn	x15,x2,8
   1810e:	8039                	c.srli	x8,0xe
   18110:	0028                	c.addi4spn	x10,x2,8
   18112:	802d                	c.srli	x8,0xb
   18114:	00228027          	.insn	4, 0x00228027
   18118:	00668063          	beq	x13,x6,0x18118
   1811c:	006c                	c.addi4spn	x11,x2,12
   1811e:	8069                	c.srli	x8,0x1a
   18120:	0078                	c.addi4spn	x14,x2,12
   18122:	807d                	c.srli	x8,0x1f
   18124:	00728077          	.insn	4, 0x00728077
   18128:	0050                	c.addi4spn	x12,x2,4
   1812a:	8055                	c.srli	x8,0x15
   1812c:	805f 005a 804b      	.insn	6, 0x804b005a805f
   18132:	004e                	c.slli	x0,0x13
   18134:	0044                	c.addi4spn	x9,x2,4
   18136:	8041                	c.srli	x8,0x10
   18138:	00c680c3          	fmadd.s	f1,f13,f12,f0,rne
   1813c:	00cc                	c.addi4spn	x11,x2,68
   1813e:	80c9                	c.srli	x9,0x12
   18140:	00d8                	c.addi4spn	x14,x2,68
   18142:	80dd                	c.srli	x9,0x17
   18144:	00d280d7          	.insn	4, 0x00d280d7
   18148:	00f0                	c.addi4spn	x12,x2,76
   1814a:	80f5                	c.srli	x9,0x1d
   1814c:	80ff 00fa 80eb 00ee 	.insn	10, 0x00e400ee80eb00fa80ff
   18154:	00e4 
   18156:	80e1                	c.srli	x9,0x18
   18158:	00a0                	c.addi4spn	x8,x2,72
   1815a:	80a5                	c.srli	x9,0x9
   1815c:	00aa80af          	.insn	4, 0x00aa80af
   18160:	00be80bb          	.insn	4, 0x00be80bb
   18164:	00b4                	c.addi4spn	x13,x2,72
   18166:	80b1                	c.srli	x9,0xc
   18168:	00968093          	addi	x1,x13,9 # 0x7ff00009
   1816c:	009c                	c.addi4spn	x15,x2,64
   1816e:	8099                	c.srli	x9,0x6
   18170:	0088                	c.addi4spn	x10,x2,64
   18172:	808d                	c.srli	x9,0x3
   18174:	00828087          	.insn	4, 0x00828087
   18178:	01868183          	lb	x3,24(x13)
   1817c:	018c                	c.addi4spn	x11,x2,192
   1817e:	8189                	c.srli	x11,0x2
   18180:	0198                	c.addi4spn	x14,x2,192
   18182:	819d                	c.srli	x11,0x7
   18184:	01928197          	auipc	x3,0x1928
   18188:	01b0                	c.addi4spn	x12,x2,200
   1818a:	81b5                	c.srli	x11,0xd
   1818c:	01ba81bf 01ae81ab 	.insn	8, 0x01ae81ab01ba81bf
   18194:	01a4                	c.addi4spn	x9,x2,200
   18196:	81a1                	c.srli	x11,0x8
   18198:	01e0                	c.addi4spn	x8,x2,204
   1819a:	81e5                	c.srli	x11,0x19
   1819c:	01ea81ef          	jal	x3,0xc01ba
   181a0:	01fe81fb          	.insn	4, 0x01fe81fb
   181a4:	01f4                	c.addi4spn	x13,x2,204
   181a6:	81f1                	c.srli	x11,0x1c
   181a8:	01d681d3          	fadd.s	f3,f13,f29,rne
   181ac:	01dc                	c.addi4spn	x15,x2,196
   181ae:	81d9                	c.srli	x11,0x16
   181b0:	01c8                	c.addi4spn	x10,x2,196
   181b2:	81cd                	c.srli	x11,0x13
   181b4:	01c281c7          	fmsub.s	f3,f5,f28,f0,rne
   181b8:	0140                	c.addi4spn	x8,x2,132
   181ba:	8145                	c.srli	x10,0x11
   181bc:	014a814f          	fnmadd.s	f2,f21,f20,f0,rne
   181c0:	015e815b          	.insn	4, 0x015e815b
   181c4:	0154                	c.addi4spn	x13,x2,132
   181c6:	8151                	c.srli	x10,0x14
   181c8:	01768173          	.insn	4, 0x01768173
   181cc:	017c                	c.addi4spn	x15,x2,140
   181ce:	8179                	c.srli	x10,0x1e
   181d0:	0168                	c.addi4spn	x10,x2,140
   181d2:	816d                	c.srli	x10,0x1b
   181d4:	01628167          	jalr	x2,22(x5)
   181d8:	01268123          	sb	x18,2(x13)
   181dc:	012c                	c.addi4spn	x11,x2,136
   181de:	8129                	c.srli	x10,0xa
   181e0:	0138                	c.addi4spn	x14,x2,136
   181e2:	813d                	c.srli	x10,0xf
   181e4:	01328137          	lui	x2,0x1328
   181e8:	0110                	c.addi4spn	x12,x2,128
   181ea:	8115                	c.srli	x10,0x5
   181ec:	811f 011a 810b      	.insn	6, 0x810b011a811f
   181f2:	010e                	c.slli	x2,0x3
   181f4:	0104                	c.addi4spn	x9,x2,128
   181f6:	8101                	c.srli64	x10
   181f8:	03068303          	lb	x6,48(x13)
   181fc:	030c                	c.addi4spn	x11,x2,384
   181fe:	8309                	c.srli	x14,0x2
   18200:	0318                	c.addi4spn	x14,x2,384
   18202:	831d                	c.srli	x14,0x7
   18204:	03128317          	auipc	x6,0x3128
   18208:	0330                	c.addi4spn	x12,x2,392
   1820a:	8335                	c.srli	x14,0xd
   1820c:	033a833f 032e832b 	.insn	8, 0x032e832b033a833f
   18214:	0324                	c.addi4spn	x9,x2,392
   18216:	8321                	c.srli	x14,0x8
   18218:	0360                	c.addi4spn	x8,x2,396
   1821a:	8365                	c.srli	x14,0x19
   1821c:	036a836f          	jal	x6,0xc0252
   18220:	037e837b          	.insn	4, 0x037e837b
   18224:	0374                	c.addi4spn	x13,x2,396
   18226:	8371                	c.srli	x14,0x1c
   18228:	03568353          	fadd.d	f6,f13,f21,rne
   1822c:	035c                	c.addi4spn	x15,x2,388
   1822e:	8359                	c.srli	x14,0x16
   18230:	0348                	c.addi4spn	x10,x2,388
   18232:	834d                	c.srli	x14,0x13
   18234:	03428347          	fmsub.d	f6,f5,f20,f0,rne
   18238:	03c0                	c.addi4spn	x8,x2,452
   1823a:	83c5                	c.srli	x15,0x11
   1823c:	03ca83cf          	fnmadd.d	f7,f21,f28,f0,rne
   18240:	03de83db          	.insn	4, 0x03de83db
   18244:	03d4                	c.addi4spn	x13,x2,452
   18246:	83d1                	c.srli	x15,0x14
   18248:	03f683f3          	.insn	4, 0x03f683f3
   1824c:	03fc                	c.addi4spn	x15,x2,460
   1824e:	83f9                	c.srli	x15,0x1e
   18250:	03e8                	c.addi4spn	x10,x2,460
   18252:	83ed                	c.srli	x15,0x1b
   18254:	03e283e7          	jalr	x7,62(x5)
   18258:	03a683a3          	sb	x26,39(x13)
   1825c:	03ac                	c.addi4spn	x11,x2,456
   1825e:	83a9                	c.srli	x15,0xa
   18260:	03b8                	c.addi4spn	x14,x2,456
   18262:	83bd                	c.srli	x15,0xf
   18264:	03b283b7          	lui	x7,0x3b28
   18268:	0390                	c.addi4spn	x12,x2,448
   1826a:	8395                	c.srli	x15,0x5
   1826c:	839f 039a 838b      	.insn	6, 0x838b039a839f
   18272:	038e                	c.slli	x7,0x3
   18274:	0384                	c.addi4spn	x9,x2,448
   18276:	8381                	c.srli64	x15
   18278:	0280                	c.addi4spn	x8,x2,320
   1827a:	8285                	c.srli	x13,0x1
   1827c:	028a828f          	.insn	4, 0x028a828f
   18280:	029e829b          	.insn	4, 0x029e829b
   18284:	0294                	c.addi4spn	x13,x2,320
   18286:	8291                	c.srli	x13,0x4
   18288:	02b682b3          	mul	x5,x13,x11
   1828c:	02bc                	c.addi4spn	x15,x2,328
   1828e:	82b9                	c.srli	x13,0xe
   18290:	02a8                	c.addi4spn	x10,x2,328
   18292:	82ad                	c.srli	x13,0xb
   18294:	02a282a7          	.insn	4, 0x02a282a7
   18298:	02e682e3          	beq	x13,x14,0x18abc
   1829c:	02ec                	c.addi4spn	x11,x2,332
   1829e:	82e9                	c.srli	x13,0x1a
   182a0:	02f8                	c.addi4spn	x14,x2,332
   182a2:	82fd                	c.srli	x13,0x1f
   182a4:	02f282f7          	.insn	4, 0x02f282f7
   182a8:	02d0                	c.addi4spn	x12,x2,324
   182aa:	82d5                	c.srli	x13,0x15
   182ac:	82df 02da 82cb      	.insn	6, 0x82cb02da82df
   182b2:	02ce                	c.slli	x5,0x13
   182b4:	02c4                	c.addi4spn	x9,x2,324
   182b6:	82c1                	c.srli	x13,0x10
   182b8:	02468243          	fmadd.d	f4,f13,f4,f0,rne
   182bc:	024c                	c.addi4spn	x11,x2,260
   182be:	8249                	c.srli	x12,0x12
   182c0:	0258                	c.addi4spn	x14,x2,260
   182c2:	825d                	c.srli	x12,0x17
   182c4:	02528257          	.insn	4, 0x02528257
   182c8:	0270                	c.addi4spn	x12,x2,268
   182ca:	8275                	c.srli	x12,0x1d
   182cc:	827f 027a 826b 026e 	.insn	10, 0x0264026e826b027a827f
   182d4:	0264 
   182d6:	8261                	c.srli	x12,0x18
   182d8:	0220                	c.addi4spn	x8,x2,264
   182da:	8225                	c.srli	x12,0x9
   182dc:	022a822f          	.insn	4, 0x022a822f
   182e0:	023e823b          	.insn	4, 0x023e823b
   182e4:	0234                	c.addi4spn	x13,x2,264
   182e6:	8231                	c.srli	x12,0xc
   182e8:	02168213          	addi	x4,x13,33
   182ec:	021c                	c.addi4spn	x15,x2,256
   182ee:	8219                	c.srli	x12,0x6
   182f0:	0208                	c.addi4spn	x10,x2,256
   182f2:	820d                	c.srli	x12,0x3
   182f4:	02028207          	.insn	4, 0x02028207
   182f8:	4918                	c.lw	x14,16(x10)
   182fa:	0000                	c.unimp
   182fc:	4888                	c.lw	x10,16(x9)
   182fe:	0000                	c.unimp
   18300:	4888                	c.lw	x10,16(x9)
   18302:	0000                	c.unimp
   18304:	490c                	c.lw	x11,16(x10)
   18306:	0000                	c.unimp
   18308:	4888                	c.lw	x10,16(x9)
   1830a:	0000                	c.unimp
   1830c:	4888                	c.lw	x10,16(x9)
   1830e:	0000                	c.unimp
   18310:	4888                	c.lw	x10,16(x9)
   18312:	0000                	c.unimp
   18314:	4888                	c.lw	x10,16(x9)
   18316:	0000                	c.unimp
   18318:	4888                	c.lw	x10,16(x9)
   1831a:	0000                	c.unimp
   1831c:	4888                	c.lw	x10,16(x9)
   1831e:	0000                	c.unimp
   18320:	4888                	c.lw	x10,16(x9)
   18322:	0000                	c.unimp
   18324:	4900                	c.lw	x8,16(x10)
   18326:	0000                	c.unimp
   18328:	4888                	c.lw	x10,16(x9)
   1832a:	0000                	c.unimp
   1832c:	48f4                	c.lw	x13,84(x9)
   1832e:	0000                	c.unimp
   18330:	4888                	c.lw	x10,16(x9)
   18332:	0000                	c.unimp
   18334:	4888                	c.lw	x10,16(x9)
   18336:	0000                	c.unimp
   18338:	48e8                	c.lw	x10,84(x9)
   1833a:	0000                	c.unimp
   1833c:	5044                	c.lw	x9,36(x8)
   1833e:	0000                	c.unimp
   18340:	4924                	c.lw	x9,80(x10)
   18342:	0000                	c.unimp
   18344:	4924                	c.lw	x9,80(x10)
   18346:	0000                	c.unimp
   18348:	4924                	c.lw	x9,80(x10)
   1834a:	0000                	c.unimp
   1834c:	4924                	c.lw	x9,80(x10)
   1834e:	0000                	c.unimp
   18350:	4924                	c.lw	x9,80(x10)
   18352:	0000                	c.unimp
   18354:	4924                	c.lw	x9,80(x10)
   18356:	0000                	c.unimp
   18358:	4924                	c.lw	x9,80(x10)
   1835a:	0000                	c.unimp
   1835c:	4924                	c.lw	x9,80(x10)
   1835e:	0000                	c.unimp
   18360:	4924                	c.lw	x9,80(x10)
   18362:	0000                	c.unimp
   18364:	4924                	c.lw	x9,80(x10)
   18366:	0000                	c.unimp
   18368:	4924                	c.lw	x9,80(x10)
   1836a:	0000                	c.unimp
   1836c:	4924                	c.lw	x9,80(x10)
   1836e:	0000                	c.unimp
   18370:	4924                	c.lw	x9,80(x10)
   18372:	0000                	c.unimp
   18374:	4924                	c.lw	x9,80(x10)
   18376:	0000                	c.unimp
   18378:	4924                	c.lw	x9,80(x10)
   1837a:	0000                	c.unimp
   1837c:	4924                	c.lw	x9,80(x10)
   1837e:	0000                	c.unimp
   18380:	4924                	c.lw	x9,80(x10)
   18382:	0000                	c.unimp
   18384:	4924                	c.lw	x9,80(x10)
   18386:	0000                	c.unimp
   18388:	4924                	c.lw	x9,80(x10)
   1838a:	0000                	c.unimp
   1838c:	4924                	c.lw	x9,80(x10)
   1838e:	0000                	c.unimp
   18390:	4924                	c.lw	x9,80(x10)
   18392:	0000                	c.unimp
   18394:	4924                	c.lw	x9,80(x10)
   18396:	0000                	c.unimp
   18398:	519c                	c.lw	x15,32(x11)
   1839a:	0000                	c.unimp
   1839c:	4924                	c.lw	x9,80(x10)
   1839e:	0000                	c.unimp
   183a0:	4924                	c.lw	x9,80(x10)
   183a2:	0000                	c.unimp
   183a4:	4924                	c.lw	x9,80(x10)
   183a6:	0000                	c.unimp
   183a8:	4924                	c.lw	x9,80(x10)
   183aa:	0000                	c.unimp
   183ac:	4924                	c.lw	x9,80(x10)
   183ae:	0000                	c.unimp
   183b0:	4924                	c.lw	x9,80(x10)
   183b2:	0000                	c.unimp
   183b4:	4924                	c.lw	x9,80(x10)
   183b6:	0000                	c.unimp
   183b8:	4924                	c.lw	x9,80(x10)
   183ba:	0000                	c.unimp
   183bc:	4de0                	c.lw	x8,92(x11)
   183be:	0000                	c.unimp
   183c0:	4924                	c.lw	x9,80(x10)
   183c2:	0000                	c.unimp
   183c4:	4d8c                	c.lw	x11,24(x11)
   183c6:	0000                	c.unimp
   183c8:	4aa4                	c.lw	x9,80(x13)
   183ca:	0000                	c.unimp
   183cc:	4924                	c.lw	x9,80(x10)
   183ce:	0000                	c.unimp
   183d0:	54c0                	c.lw	x8,44(x9)
   183d2:	0000                	c.unimp
   183d4:	4924                	c.lw	x9,80(x10)
   183d6:	0000                	c.unimp
   183d8:	4924                	c.lw	x9,80(x10)
   183da:	0000                	c.unimp
   183dc:	4aa4                	c.lw	x9,80(x13)
   183de:	0000                	c.unimp
   183e0:	4924                	c.lw	x9,80(x10)
   183e2:	0000                	c.unimp
   183e4:	4924                	c.lw	x9,80(x10)
   183e6:	0000                	c.unimp
   183e8:	4924                	c.lw	x9,80(x10)
   183ea:	0000                	c.unimp
   183ec:	4924                	c.lw	x9,80(x10)
   183ee:	0000                	c.unimp
   183f0:	4924                	c.lw	x9,80(x10)
   183f2:	0000                	c.unimp
   183f4:	4b18                	c.lw	x14,16(x14)
   183f6:	0000                	c.unimp
   183f8:	4ad0                	c.lw	x12,20(x13)
   183fa:	0000                	c.unimp
   183fc:	4924                	c.lw	x9,80(x10)
   183fe:	0000                	c.unimp
   18400:	4924                	c.lw	x9,80(x10)
   18402:	0000                	c.unimp
   18404:	4b2c                	c.lw	x11,80(x14)
   18406:	0000                	c.unimp
   18408:	4924                	c.lw	x9,80(x10)
   1840a:	0000                	c.unimp
   1840c:	49f8                	c.lw	x14,84(x11)
   1840e:	0000                	c.unimp
   18410:	4924                	c.lw	x9,80(x10)
   18412:	0000                	c.unimp
   18414:	4924                	c.lw	x9,80(x10)
   18416:	0000                	c.unimp
   18418:	4b24                	c.lw	x9,80(x14)
   1841a:	0000                	c.unimp
   1841c:	5704                	c.lw	x9,40(x14)
   1841e:	0000                	c.unimp
   18420:	4928                	c.lw	x10,80(x10)
   18422:	0000                	c.unimp
   18424:	4928                	c.lw	x10,80(x10)
   18426:	0000                	c.unimp
   18428:	4928                	c.lw	x10,80(x10)
   1842a:	0000                	c.unimp
   1842c:	4928                	c.lw	x10,80(x10)
   1842e:	0000                	c.unimp
   18430:	4928                	c.lw	x10,80(x10)
   18432:	0000                	c.unimp
   18434:	4928                	c.lw	x10,80(x10)
   18436:	0000                	c.unimp
   18438:	4928                	c.lw	x10,80(x10)
   1843a:	0000                	c.unimp
   1843c:	4928                	c.lw	x10,80(x10)
   1843e:	0000                	c.unimp
   18440:	4928                	c.lw	x10,80(x10)
   18442:	0000                	c.unimp
   18444:	4928                	c.lw	x10,80(x10)
   18446:	0000                	c.unimp
   18448:	4928                	c.lw	x10,80(x10)
   1844a:	0000                	c.unimp
   1844c:	4928                	c.lw	x10,80(x10)
   1844e:	0000                	c.unimp
   18450:	4928                	c.lw	x10,80(x10)
   18452:	0000                	c.unimp
   18454:	4928                	c.lw	x10,80(x10)
   18456:	0000                	c.unimp
   18458:	4928                	c.lw	x10,80(x10)
   1845a:	0000                	c.unimp
   1845c:	4928                	c.lw	x10,80(x10)
   1845e:	0000                	c.unimp
   18460:	4928                	c.lw	x10,80(x10)
   18462:	0000                	c.unimp
   18464:	4928                	c.lw	x10,80(x10)
   18466:	0000                	c.unimp
   18468:	4928                	c.lw	x10,80(x10)
   1846a:	0000                	c.unimp
   1846c:	4928                	c.lw	x10,80(x10)
   1846e:	0000                	c.unimp
   18470:	4928                	c.lw	x10,80(x10)
   18472:	0000                	c.unimp
   18474:	4928                	c.lw	x10,80(x10)
   18476:	0000                	c.unimp
   18478:	56f4                	c.lw	x13,108(x13)
   1847a:	0000                	c.unimp
   1847c:	4928                	c.lw	x10,80(x10)
   1847e:	0000                	c.unimp
   18480:	4928                	c.lw	x10,80(x10)
   18482:	0000                	c.unimp
   18484:	4928                	c.lw	x10,80(x10)
   18486:	0000                	c.unimp
   18488:	4928                	c.lw	x10,80(x10)
   1848a:	0000                	c.unimp
   1848c:	4928                	c.lw	x10,80(x10)
   1848e:	0000                	c.unimp
   18490:	4928                	c.lw	x10,80(x10)
   18492:	0000                	c.unimp
   18494:	4928                	c.lw	x10,80(x10)
   18496:	0000                	c.unimp
   18498:	4928                	c.lw	x10,80(x10)
   1849a:	0000                	c.unimp
   1849c:	56e4                	c.lw	x9,108(x13)
   1849e:	0000                	c.unimp
   184a0:	4928                	c.lw	x10,80(x10)
   184a2:	0000                	c.unimp
   184a4:	4d90                	c.lw	x12,24(x11)
   184a6:	0000                	c.unimp
   184a8:	4ab8                	c.lw	x14,80(x13)
   184aa:	0000                	c.unimp
   184ac:	4928                	c.lw	x10,80(x10)
   184ae:	0000                	c.unimp
   184b0:	56ec                	c.lw	x11,108(x13)
   184b2:	0000                	c.unimp
   184b4:	4928                	c.lw	x10,80(x10)
   184b6:	0000                	c.unimp
   184b8:	4928                	c.lw	x10,80(x10)
   184ba:	0000                	c.unimp
   184bc:	4ab8                	c.lw	x14,80(x13)
   184be:	0000                	c.unimp
   184c0:	4928                	c.lw	x10,80(x10)
   184c2:	0000                	c.unimp
   184c4:	4928                	c.lw	x10,80(x10)
   184c6:	0000                	c.unimp
   184c8:	4928                	c.lw	x10,80(x10)
   184ca:	0000                	c.unimp
   184cc:	4928                	c.lw	x10,80(x10)
   184ce:	0000                	c.unimp
   184d0:	4928                	c.lw	x10,80(x10)
   184d2:	0000                	c.unimp
   184d4:	4b14                	c.lw	x13,16(x14)
   184d6:	0000                	c.unimp
   184d8:	4ad4                	c.lw	x13,20(x13)
   184da:	0000                	c.unimp
   184dc:	4928                	c.lw	x10,80(x10)
   184de:	0000                	c.unimp
   184e0:	4928                	c.lw	x10,80(x10)
   184e2:	0000                	c.unimp
   184e4:	4b30                	c.lw	x12,80(x14)
   184e6:	0000                	c.unimp
   184e8:	4928                	c.lw	x10,80(x10)
   184ea:	0000                	c.unimp
   184ec:	49f4                	c.lw	x13,84(x11)
   184ee:	0000                	c.unimp
   184f0:	4928                	c.lw	x10,80(x10)
   184f2:	0000                	c.unimp
   184f4:	4928                	c.lw	x10,80(x10)
   184f6:	0000                	c.unimp
   184f8:	4b20                	c.lw	x8,80(x14)
   184fa:	0000                	c.unimp
   184fc:	6870                	c.flw	f12,84(x8)
   184fe:	0000                	c.unimp
   18500:	6788                	c.flw	f10,8(x15)
   18502:	0000                	c.unimp
   18504:	6768                	c.flw	f10,76(x14)
   18506:	0000                	c.unimp
   18508:	6788                	c.flw	f10,8(x15)
   1850a:	0000                	c.unimp
   1850c:	685c                	c.flw	f15,20(x8)
   1850e:	0000                	c.unimp
   18510:	6788                	c.flw	f10,8(x15)
   18512:	0000                	c.unimp
   18514:	6768                	c.flw	f10,76(x14)
   18516:	0000                	c.unimp
   18518:	6870                	c.flw	f12,84(x8)
   1851a:	0000                	c.unimp
   1851c:	6870                	c.flw	f12,84(x8)
   1851e:	0000                	c.unimp
   18520:	685c                	c.flw	f15,20(x8)
   18522:	0000                	c.unimp
   18524:	6768                	c.flw	f10,76(x14)
   18526:	0000                	c.unimp
   18528:	6794                	c.flw	f13,8(x15)
   1852a:	0000                	c.unimp
   1852c:	6794                	c.flw	f13,8(x15)
   1852e:	0000                	c.unimp
   18530:	6794                	c.flw	f13,8(x15)
   18532:	0000                	c.unimp
   18534:	685c                	c.flw	f15,20(x8)
   18536:	0000                	c.unimp
   18538:	0100                	c.addi4spn	x8,x2,128
   1853a:	0202                	c.slli64	x4
   1853c:	03030303          	lb	x6,48(x6) # 0x3140234
   18540:	0404                	c.addi4spn	x9,x2,512
   18542:	0404                	c.addi4spn	x9,x2,512
   18544:	0404                	c.addi4spn	x9,x2,512
   18546:	0404                	c.addi4spn	x9,x2,512
   18548:	0505                	c.addi	x10,1
   1854a:	0505                	c.addi	x10,1
   1854c:	0505                	c.addi	x10,1
   1854e:	0505                	c.addi	x10,1
   18550:	0505                	c.addi	x10,1
   18552:	0505                	c.addi	x10,1
   18554:	0505                	c.addi	x10,1
   18556:	0505                	c.addi	x10,1
   18558:	0606                	c.slli	x12,0x1
   1855a:	0606                	c.slli	x12,0x1
   1855c:	0606                	c.slli	x12,0x1
   1855e:	0606                	c.slli	x12,0x1
   18560:	0606                	c.slli	x12,0x1
   18562:	0606                	c.slli	x12,0x1
   18564:	0606                	c.slli	x12,0x1
   18566:	0606                	c.slli	x12,0x1
   18568:	0606                	c.slli	x12,0x1
   1856a:	0606                	c.slli	x12,0x1
   1856c:	0606                	c.slli	x12,0x1
   1856e:	0606                	c.slli	x12,0x1
   18570:	0606                	c.slli	x12,0x1
   18572:	0606                	c.slli	x12,0x1
   18574:	0606                	c.slli	x12,0x1
   18576:	0606                	c.slli	x12,0x1
   18578:	07070707          	.insn	4, 0x07070707
   1857c:	07070707          	.insn	4, 0x07070707
   18580:	07070707          	.insn	4, 0x07070707
   18584:	07070707          	.insn	4, 0x07070707
   18588:	07070707          	.insn	4, 0x07070707
   1858c:	07070707          	.insn	4, 0x07070707
   18590:	07070707          	.insn	4, 0x07070707
   18594:	07070707          	.insn	4, 0x07070707
   18598:	07070707          	.insn	4, 0x07070707
   1859c:	07070707          	.insn	4, 0x07070707
   185a0:	07070707          	.insn	4, 0x07070707
   185a4:	07070707          	.insn	4, 0x07070707
   185a8:	07070707          	.insn	4, 0x07070707
   185ac:	07070707          	.insn	4, 0x07070707
   185b0:	07070707          	.insn	4, 0x07070707
   185b4:	07070707          	.insn	4, 0x07070707
   185b8:	0808                	c.addi4spn	x10,x2,16
   185ba:	0808                	c.addi4spn	x10,x2,16
   185bc:	0808                	c.addi4spn	x10,x2,16
   185be:	0808                	c.addi4spn	x10,x2,16
   185c0:	0808                	c.addi4spn	x10,x2,16
   185c2:	0808                	c.addi4spn	x10,x2,16
   185c4:	0808                	c.addi4spn	x10,x2,16
   185c6:	0808                	c.addi4spn	x10,x2,16
   185c8:	0808                	c.addi4spn	x10,x2,16
   185ca:	0808                	c.addi4spn	x10,x2,16
   185cc:	0808                	c.addi4spn	x10,x2,16
   185ce:	0808                	c.addi4spn	x10,x2,16
   185d0:	0808                	c.addi4spn	x10,x2,16
   185d2:	0808                	c.addi4spn	x10,x2,16
   185d4:	0808                	c.addi4spn	x10,x2,16
   185d6:	0808                	c.addi4spn	x10,x2,16
   185d8:	0808                	c.addi4spn	x10,x2,16
   185da:	0808                	c.addi4spn	x10,x2,16
   185dc:	0808                	c.addi4spn	x10,x2,16
   185de:	0808                	c.addi4spn	x10,x2,16
   185e0:	0808                	c.addi4spn	x10,x2,16
   185e2:	0808                	c.addi4spn	x10,x2,16
   185e4:	0808                	c.addi4spn	x10,x2,16
   185e6:	0808                	c.addi4spn	x10,x2,16
   185e8:	0808                	c.addi4spn	x10,x2,16
   185ea:	0808                	c.addi4spn	x10,x2,16
   185ec:	0808                	c.addi4spn	x10,x2,16
   185ee:	0808                	c.addi4spn	x10,x2,16
   185f0:	0808                	c.addi4spn	x10,x2,16
   185f2:	0808                	c.addi4spn	x10,x2,16
   185f4:	0808                	c.addi4spn	x10,x2,16
   185f6:	0808                	c.addi4spn	x10,x2,16
   185f8:	0808                	c.addi4spn	x10,x2,16
   185fa:	0808                	c.addi4spn	x10,x2,16
   185fc:	0808                	c.addi4spn	x10,x2,16
   185fe:	0808                	c.addi4spn	x10,x2,16
   18600:	0808                	c.addi4spn	x10,x2,16
   18602:	0808                	c.addi4spn	x10,x2,16
   18604:	0808                	c.addi4spn	x10,x2,16
   18606:	0808                	c.addi4spn	x10,x2,16
   18608:	0808                	c.addi4spn	x10,x2,16
   1860a:	0808                	c.addi4spn	x10,x2,16
   1860c:	0808                	c.addi4spn	x10,x2,16
   1860e:	0808                	c.addi4spn	x10,x2,16
   18610:	0808                	c.addi4spn	x10,x2,16
   18612:	0808                	c.addi4spn	x10,x2,16
   18614:	0808                	c.addi4spn	x10,x2,16
   18616:	0808                	c.addi4spn	x10,x2,16
   18618:	0808                	c.addi4spn	x10,x2,16
   1861a:	0808                	c.addi4spn	x10,x2,16
   1861c:	0808                	c.addi4spn	x10,x2,16
   1861e:	0808                	c.addi4spn	x10,x2,16
   18620:	0808                	c.addi4spn	x10,x2,16
   18622:	0808                	c.addi4spn	x10,x2,16
   18624:	0808                	c.addi4spn	x10,x2,16
   18626:	0808                	c.addi4spn	x10,x2,16
   18628:	0808                	c.addi4spn	x10,x2,16
   1862a:	0808                	c.addi4spn	x10,x2,16
   1862c:	0808                	c.addi4spn	x10,x2,16
   1862e:	0808                	c.addi4spn	x10,x2,16
   18630:	0808                	c.addi4spn	x10,x2,16
   18632:	0808                	c.addi4spn	x10,x2,16
   18634:	0808                	c.addi4spn	x10,x2,16
   18636:	0808                	c.addi4spn	x10,x2,16

Disassembly of section .rodata.str1.4:

00018638 <.rodata.str1.4>:
   18638:	6b36                	c.flwsp	f22,76(x2)
   1863a:	7020                	c.flw	f8,96(x8)
   1863c:	7265                	c.lui	x4,0xffff9
   1863e:	6f66                	c.flwsp	f30,88(x2)
   18640:	6d72                	c.flwsp	f26,28(x2)
   18642:	6e61                	c.lui	x28,0x18
   18644:	72206563          	bltu	x0,x2,0x18d6e
   18648:	6e75                	c.lui	x28,0x1d
   1864a:	7020                	c.flw	f8,96(x8)
   1864c:	7261                	c.lui	x4,0xffff8
   1864e:	6d61                	c.lui	x26,0x18
   18650:	7465                	c.lui	x8,0xffff9
   18652:	7265                	c.lui	x4,0xffff9
   18654:	6f662073          	csrrs	x0,0x6f6,x12
   18658:	2072                	c.fldsp	f0,280(x2)
   1865a:	65726f63          	bltu	x4,x23,0x18cb8
   1865e:	616d                	c.addi16sp	x2,240
   18660:	6b72                	c.flwsp	f22,28(x2)
   18662:	0a2e                	c.slli	x20,0xb
   18664:	0000                	c.unimp
   18666:	0000                	c.unimp
   18668:	6b36                	c.flwsp	f22,76(x2)
   1866a:	7620                	c.flw	f8,104(x12)
   1866c:	6c61                	c.lui	x24,0x18
   1866e:	6469                	c.lui	x8,0x1a
   18670:	7461                	c.lui	x8,0xffff8
   18672:	6f69                	c.lui	x30,0x1a
   18674:	206e                	c.fldsp	f0,216(x2)
   18676:	7572                	c.flwsp	f10,60(x2)
   18678:	206e                	c.fldsp	f0,216(x2)
   1867a:	6170                	c.flw	f12,68(x10)
   1867c:	6172                	c.flwsp	f2,28(x2)
   1867e:	656d                	c.lui	x10,0x1b
   18680:	6574                	c.flw	f13,76(x10)
   18682:	7372                	c.flwsp	f6,60(x2)
   18684:	6620                	c.flw	f8,72(x12)
   18686:	6320726f          	jal	x4,0x1fcb8
   1868a:	6d65726f          	jal	x4,0x6fd60
   1868e:	7261                	c.lui	x4,0xffff8
   18690:	000a2e6b          	.insn	4, 0x000a2e6b
   18694:	7250                	c.flw	f12,36(x12)
   18696:	6c69666f          	jal	x12,0xaed5c
   1869a:	2065                	c.jal	0x18742
   1869c:	656e6567          	.insn	4, 0x656e6567
   186a0:	6172                	c.flwsp	f2,28(x2)
   186a2:	6974                	c.flw	f13,84(x10)
   186a4:	72206e6f          	jal	x28,0x1edc6
   186a8:	6e75                	c.lui	x28,0x1d
   186aa:	7020                	c.flw	f8,96(x8)
   186ac:	7261                	c.lui	x4,0xffff8
   186ae:	6d61                	c.lui	x26,0x18
   186b0:	7465                	c.lui	x8,0xffff9
   186b2:	7265                	c.lui	x4,0xffff9
   186b4:	6f662073          	csrrs	x0,0x6f6,x12
   186b8:	2072                	c.fldsp	f0,280(x2)
   186ba:	65726f63          	bltu	x4,x23,0x18d18
   186be:	616d                	c.addi16sp	x2,240
   186c0:	6b72                	c.flwsp	f22,28(x2)
   186c2:	0a2e                	c.slli	x20,0xb
   186c4:	0000                	c.unimp
   186c6:	0000                	c.unimp
   186c8:	4b32                	c.lwsp	x22,12(x2)
   186ca:	7020                	c.flw	f8,96(x8)
   186cc:	7265                	c.lui	x4,0xffff9
   186ce:	6f66                	c.flwsp	f30,88(x2)
   186d0:	6d72                	c.flwsp	f26,28(x2)
   186d2:	6e61                	c.lui	x28,0x18
   186d4:	72206563          	bltu	x0,x2,0x18dfe
   186d8:	6e75                	c.lui	x28,0x1d
   186da:	7020                	c.flw	f8,96(x8)
   186dc:	7261                	c.lui	x4,0xffff8
   186de:	6d61                	c.lui	x26,0x18
   186e0:	7465                	c.lui	x8,0xffff9
   186e2:	7265                	c.lui	x4,0xffff9
   186e4:	6f662073          	csrrs	x0,0x6f6,x12
   186e8:	2072                	c.fldsp	f0,280(x2)
   186ea:	65726f63          	bltu	x4,x23,0x18d48
   186ee:	616d                	c.addi16sp	x2,240
   186f0:	6b72                	c.flwsp	f22,28(x2)
   186f2:	0a2e                	c.slli	x20,0xb
   186f4:	0000                	c.unimp
   186f6:	0000                	c.unimp
   186f8:	4b32                	c.lwsp	x22,12(x2)
   186fa:	7620                	c.flw	f8,104(x12)
   186fc:	6c61                	c.lui	x24,0x18
   186fe:	6469                	c.lui	x8,0x1a
   18700:	7461                	c.lui	x8,0xffff8
   18702:	6f69                	c.lui	x30,0x1a
   18704:	206e                	c.fldsp	f0,216(x2)
   18706:	7572                	c.flwsp	f10,60(x2)
   18708:	206e                	c.fldsp	f0,216(x2)
   1870a:	6170                	c.flw	f12,68(x10)
   1870c:	6172                	c.flwsp	f2,28(x2)
   1870e:	656d                	c.lui	x10,0x1b
   18710:	6574                	c.flw	f13,76(x10)
   18712:	7372                	c.flwsp	f6,60(x2)
   18714:	6620                	c.flw	f8,72(x12)
   18716:	6320726f          	jal	x4,0x1fd48
   1871a:	6d65726f          	jal	x4,0x6fdf0
   1871e:	7261                	c.lui	x4,0xffff8
   18720:	000a2e6b          	.insn	4, 0x000a2e6b
   18724:	5d75255b          	.insn	4, 0x5d75255b
   18728:	5245                	c.li	x4,-15
   1872a:	4f52                	c.lwsp	x30,20(x2)
   1872c:	2152                	c.fldsp	f2,272(x2)
   1872e:	6c20                	c.flw	f8,88(x8)
   18730:	7369                	c.lui	x6,0xffffa
   18732:	2074                	c.fld	f13,192(x8)
   18734:	20637263          	bgeu	x6,x6,0x18938
   18738:	7830                	c.flw	f12,112(x8)
   1873a:	3025                	c.jal	0x17f62
   1873c:	7834                	c.flw	f13,112(x8)
   1873e:	2d20                	c.fld	f8,88(x10)
   18740:	7320                	c.flw	f8,96(x14)
   18742:	6f68                	c.flw	f10,92(x14)
   18744:	6c75                	c.lui	x24,0x1d
   18746:	2064                	c.fld	f9,192(x8)
   18748:	6562                	c.flwsp	f10,24(x2)
   1874a:	3020                	c.fld	f8,96(x8)
   1874c:	2578                	c.fld	f14,200(x10)
   1874e:	3430                	c.fld	f12,104(x8)
   18750:	0a78                	c.addi4spn	x14,x2,284
   18752:	0000                	c.unimp
   18754:	5d75255b          	.insn	4, 0x5d75255b
   18758:	5245                	c.li	x4,-15
   1875a:	4f52                	c.lwsp	x30,20(x2)
   1875c:	2152                	c.fldsp	f2,272(x2)
   1875e:	6d20                	c.flw	f8,88(x10)
   18760:	7461                	c.lui	x8,0xffff8
   18762:	6972                	c.flwsp	f18,28(x2)
   18764:	2078                	c.fld	f14,192(x8)
   18766:	20637263          	bgeu	x6,x6,0x1896a
   1876a:	7830                	c.flw	f12,112(x8)
   1876c:	3025                	c.jal	0x17f94
   1876e:	7834                	c.flw	f13,112(x8)
   18770:	2d20                	c.fld	f8,88(x10)
   18772:	7320                	c.flw	f8,96(x14)
   18774:	6f68                	c.flw	f10,92(x14)
   18776:	6c75                	c.lui	x24,0x1d
   18778:	2064                	c.fld	f9,192(x8)
   1877a:	6562                	c.flwsp	f10,24(x2)
   1877c:	3020                	c.fld	f8,96(x8)
   1877e:	2578                	c.fld	f14,200(x10)
   18780:	3430                	c.fld	f12,104(x8)
   18782:	0a78                	c.addi4spn	x14,x2,284
   18784:	0000                	c.unimp
   18786:	0000                	c.unimp
   18788:	5d75255b          	.insn	4, 0x5d75255b
   1878c:	5245                	c.li	x4,-15
   1878e:	4f52                	c.lwsp	x30,20(x2)
   18790:	2152                	c.fldsp	f2,272(x2)
   18792:	7320                	c.flw	f8,96(x14)
   18794:	6174                	c.flw	f13,68(x10)
   18796:	6574                	c.flw	f13,76(x10)
   18798:	6320                	c.flw	f8,64(x14)
   1879a:	6372                	c.flwsp	f6,28(x2)
   1879c:	3020                	c.fld	f8,96(x8)
   1879e:	2578                	c.fld	f14,200(x10)
   187a0:	3430                	c.fld	f12,104(x8)
   187a2:	2078                	c.fld	f14,192(x8)
   187a4:	202d                	c.jal	0x187ce
   187a6:	756f6873          	csrrsi	x16,0x756,30
   187aa:	646c                	c.flw	f11,76(x8)
   187ac:	6220                	c.flw	f8,64(x12)
   187ae:	2065                	c.jal	0x18856
   187b0:	7830                	c.flw	f12,112(x8)
   187b2:	3025                	c.jal	0x17fda
   187b4:	7834                	c.flw	f13,112(x8)
   187b6:	000a                	c.slli	x0,0x2
   187b8:	65726f43          	.insn	4, 0x65726f43
   187bc:	614d                	c.addi16sp	x2,176
   187be:	6b72                	c.flwsp	f22,28(x2)
   187c0:	5320                	c.lw	x8,96(x14)
   187c2:	7a69                	c.lui	x20,0xffffa
   187c4:	2065                	c.jal	0x1886c
   187c6:	2020                	c.fld	f8,64(x8)
   187c8:	3a20                	c.fld	f8,112(x12)
   187ca:	2520                	c.fld	f8,72(x10)
   187cc:	756c                	c.flw	f11,108(x10)
   187ce:	000a                	c.slli	x0,0x2
   187d0:	6f54                	c.flw	f13,28(x14)
   187d2:	6174                	c.flw	f13,68(x10)
   187d4:	206c                	c.fld	f11,192(x8)
   187d6:	6974                	c.flw	f13,84(x10)
   187d8:	20736b63          	bltu	x6,x7,0x189ee
   187dc:	2020                	c.fld	f8,64(x8)
   187de:	2020                	c.fld	f8,64(x8)
   187e0:	3a20                	c.fld	f8,112(x12)
   187e2:	2520                	c.fld	f8,72(x10)
   187e4:	756c                	c.flw	f11,108(x10)
   187e6:	000a                	c.slli	x0,0x2
   187e8:	6f54                	c.flw	f13,28(x14)
   187ea:	6174                	c.flw	f13,68(x10)
   187ec:	206c                	c.fld	f11,192(x8)
   187ee:	6974                	c.flw	f13,84(x10)
   187f0:	656d                	c.lui	x10,0x1b
   187f2:	2820                	c.fld	f8,80(x8)
   187f4:	73636573          	csrrsi	x10,mhpmevent22h,6
   187f8:	3a29                	c.jal	0x18112
   187fa:	2520                	c.fld	f8,72(x10)
   187fc:	0a66                	c.slli	x20,0x19
   187fe:	0000                	c.unimp
   18800:	7449                	c.lui	x8,0xffff2
   18802:	7265                	c.lui	x4,0xffff9
   18804:	7461                	c.lui	x8,0xffff8
   18806:	6f69                	c.lui	x30,0x1a
   18808:	736e                	c.flwsp	f6,248(x2)
   1880a:	6365532f          	.insn	4, 0x6365532f
   1880e:	2020                	c.fld	f8,64(x8)
   18810:	3a20                	c.fld	f8,112(x12)
   18812:	2520                	c.fld	f8,72(x10)
   18814:	0a66                	c.slli	x20,0x19
   18816:	0000                	c.unimp
   18818:	5245                	c.li	x4,-15
   1881a:	4f52                	c.lwsp	x30,20(x2)
   1881c:	2152                	c.fldsp	f2,272(x2)
   1881e:	4d20                	c.lw	x8,88(x10)
   18820:	7375                	c.lui	x6,0xffffd
   18822:	2074                	c.fld	f13,192(x8)
   18824:	7865                	c.lui	x16,0xffff9
   18826:	6365                	c.lui	x6,0x19
   18828:	7475                	c.lui	x8,0xffffd
   1882a:	2065                	c.jal	0x188d2
   1882c:	6f66                	c.flwsp	f30,88(x2)
   1882e:	2072                	c.fldsp	f0,280(x2)
   18830:	7461                	c.lui	x8,0xffff8
   18832:	6c20                	c.flw	f8,88(x8)
   18834:	6165                	c.addi16sp	x2,112
   18836:	31207473          	csrrci	x8,0x312,0
   1883a:	2030                	c.fld	f12,64(x8)
   1883c:	73636573          	csrrsi	x10,mhpmevent22h,6
   18840:	6620                	c.flw	f8,72(x12)
   18842:	6120726f          	jal	x4,0x1fe54
   18846:	7620                	c.flw	f8,104(x12)
   18848:	6c61                	c.lui	x24,0x18
   1884a:	6469                	c.lui	x8,0x1a
   1884c:	7220                	c.flw	f8,96(x12)
   1884e:	7365                	c.lui	x6,0xffff9
   18850:	6c75                	c.lui	x24,0x1d
   18852:	2174                	c.fld	f13,192(x10)
   18854:	000a                	c.slli	x0,0x2
   18856:	0000                	c.unimp
   18858:	7449                	c.lui	x8,0xffff2
   1885a:	7265                	c.lui	x4,0xffff9
   1885c:	7461                	c.lui	x8,0xffff8
   1885e:	6f69                	c.lui	x30,0x1a
   18860:	736e                	c.flwsp	f6,248(x2)
   18862:	2020                	c.fld	f8,64(x8)
   18864:	2020                	c.fld	f8,64(x8)
   18866:	2020                	c.fld	f8,64(x8)
   18868:	3a20                	c.fld	f8,112(x12)
   1886a:	2520                	c.fld	f8,72(x10)
   1886c:	756c                	c.flw	f11,108(x10)
   1886e:	000a                	c.slli	x0,0x2
   18870:	31434347          	fmsub.s	f6,f6,f20,f6,rmm
   18874:	2e35                	c.jal	0x18bb0
   18876:	2e31                	c.jal	0x18b92
   18878:	0030                	c.addi4spn	x12,x2,8
   1887a:	0000                	c.unimp
   1887c:	706d6f43          	fmadd.s	f30,f26,f6,f14,unknown
   18880:	6c69                	c.lui	x24,0x1a
   18882:	7265                	c.lui	x4,0xffff9
   18884:	7620                	c.flw	f8,104(x12)
   18886:	7265                	c.lui	x4,0xffff9
   18888:	6e6f6973          	csrrsi	x18,0x6e6,30
   1888c:	3a20                	c.fld	f8,112(x12)
   1888e:	2520                	c.fld	f8,72(x10)
   18890:	00000a73          	.insn	4, 0x0a73
   18894:	4f2d                	c.li	x30,11
   18896:	2032                	c.fldsp	f0,264(x2)
   18898:	662d                	c.lui	x12,0xb
   1889a:	6e75                	c.lui	x28,0x1d
   1889c:	6f72                	c.flwsp	f30,28(x2)
   1889e:	6c6c                	c.flw	f11,92(x8)
   188a0:	6c2d                	c.lui	x24,0xb
   188a2:	73706f6f          	jal	x30,0x1f7d8
   188a6:	2d20                	c.fld	f8,88(x10)
   188a8:	7066                	c.flwsp	f0,120(x2)
   188aa:	6565                	c.lui	x10,0x19
   188ac:	2d6c                	c.fld	f11,216(x10)
   188ae:	6f6c                	c.flw	f11,92(x14)
   188b0:	2073706f          	jal	x0,0x502b6
   188b4:	662d                	c.lui	x12,0xb
   188b6:	65736367          	.insn	4, 0x65736367
   188ba:	732d                	c.lui	x6,0xfffeb
   188bc:	206d                	c.jal	0x18966
   188be:	662d                	c.lui	x12,0xb
   188c0:	65736367          	.insn	4, 0x65736367
   188c4:	6c2d                	c.lui	x24,0xb
   188c6:	7361                	c.lui	x6,0xffff8
   188c8:	0000                	c.unimp
   188ca:	0000                	c.unimp
   188cc:	706d6f43          	fmadd.s	f30,f26,f6,f14,unknown
   188d0:	6c69                	c.lui	x24,0x1a
   188d2:	7265                	c.lui	x4,0xffff9
   188d4:	6620                	c.flw	f8,72(x12)
   188d6:	616c                	c.flw	f11,68(x10)
   188d8:	20207367          	.insn	4, 0x20207367
   188dc:	3a20                	c.fld	f8,112(x12)
   188de:	2520                	c.fld	f8,72(x10)
   188e0:	00000a73          	.insn	4, 0x0a73
   188e4:	43415453          	.insn	4, 0x43415453
   188e8:	0000004b          	fnmsub.s	f0,f0,f0,f0,rne
   188ec:	654d                	c.lui	x10,0x13
   188ee:	6f6d                	c.lui	x30,0x1b
   188f0:	7972                	c.flwsp	f18,60(x2)
   188f2:	6c20                	c.flw	f8,88(x8)
   188f4:	7461636f          	jal	x6,0x2f03a
   188f8:	6f69                	c.lui	x30,0x1a
   188fa:	206e                	c.fldsp	f0,216(x2)
   188fc:	3a20                	c.fld	f8,112(x12)
   188fe:	2520                	c.fld	f8,72(x10)
   18900:	00000a73          	.insn	4, 0x0a73
   18904:	64656573          	csrrsi	x10,hviprio1,10
   18908:	20637263          	bgeu	x6,x6,0x18b0c
   1890c:	2020                	c.fld	f8,64(x8)
   1890e:	2020                	c.fld	f8,64(x8)
   18910:	2020                	c.fld	f8,64(x8)
   18912:	2020                	c.fld	f8,64(x8)
   18914:	3a20                	c.fld	f8,112(x12)
   18916:	3020                	c.fld	f8,96(x8)
   18918:	2578                	c.fld	f14,200(x10)
   1891a:	3430                	c.fld	f12,104(x8)
   1891c:	0a78                	c.addi4spn	x14,x2,284
   1891e:	0000                	c.unimp
   18920:	5d64255b          	.insn	4, 0x5d64255b
   18924:	6c637263          	bgeu	x6,x6,0x18fe8
   18928:	7369                	c.lui	x6,0xffffa
   1892a:	2074                	c.fld	f13,192(x8)
   1892c:	2020                	c.fld	f8,64(x8)
   1892e:	2020                	c.fld	f8,64(x8)
   18930:	2020                	c.fld	f8,64(x8)
   18932:	203a                	c.fldsp	f0,392(x2)
   18934:	7830                	c.flw	f12,112(x8)
   18936:	3025                	c.jal	0x1815e
   18938:	7834                	c.flw	f13,112(x8)
   1893a:	000a                	c.slli	x0,0x2
   1893c:	5d64255b          	.insn	4, 0x5d64255b
   18940:	6d637263          	bgeu	x6,x22,0x19004
   18944:	7461                	c.lui	x8,0xffff8
   18946:	6972                	c.flwsp	f18,28(x2)
   18948:	2078                	c.fld	f14,192(x8)
   1894a:	2020                	c.fld	f8,64(x8)
   1894c:	2020                	c.fld	f8,64(x8)
   1894e:	203a                	c.fldsp	f0,392(x2)
   18950:	7830                	c.flw	f12,112(x8)
   18952:	3025                	c.jal	0x1817a
   18954:	7834                	c.flw	f13,112(x8)
   18956:	000a                	c.slli	x0,0x2
   18958:	5d64255b          	.insn	4, 0x5d64255b
   1895c:	73637263          	bgeu	x6,x22,0x19080
   18960:	6174                	c.flw	f13,68(x10)
   18962:	6574                	c.flw	f13,76(x10)
   18964:	2020                	c.fld	f8,64(x8)
   18966:	2020                	c.fld	f8,64(x8)
   18968:	2020                	c.fld	f8,64(x8)
   1896a:	203a                	c.fldsp	f0,392(x2)
   1896c:	7830                	c.flw	f12,112(x8)
   1896e:	3025                	c.jal	0x18196
   18970:	7834                	c.flw	f13,112(x8)
   18972:	000a                	c.slli	x0,0x2
   18974:	5d64255b          	.insn	4, 0x5d64255b
   18978:	66637263          	bgeu	x6,x6,0x18fdc
   1897c:	6e69                	c.lui	x28,0x1a
   1897e:	6c61                	c.lui	x24,0x18
   18980:	2020                	c.fld	f8,64(x8)
   18982:	2020                	c.fld	f8,64(x8)
   18984:	2020                	c.fld	f8,64(x8)
   18986:	203a                	c.fldsp	f0,392(x2)
   18988:	7830                	c.flw	f12,112(x8)
   1898a:	3025                	c.jal	0x181b2
   1898c:	7834                	c.flw	f13,112(x8)
   1898e:	000a                	c.slli	x0,0x2
   18990:	72726f43          	fmadd.d	f30,f4,f7,f14,unknown
   18994:	6365                	c.lui	x6,0x19
   18996:	2074                	c.fld	f13,192(x8)
   18998:	7265706f          	jal	x0,0x700be
   1899c:	7461                	c.lui	x8,0xffff8
   1899e:	6f69                	c.lui	x30,0x1a
   189a0:	206e                	c.fldsp	f0,216(x2)
   189a2:	6176                	c.flwsp	f2,92(x2)
   189a4:	696c                	c.flw	f11,84(x10)
   189a6:	6164                	c.flw	f9,68(x10)
   189a8:	6574                	c.flw	f13,76(x10)
   189aa:	2e64                	c.fld	f9,216(x12)
   189ac:	5320                	c.lw	x8,96(x14)
   189ae:	6565                	c.lui	x10,0x19
   189b0:	5220                	c.lw	x8,96(x12)
   189b2:	4145                	c.li	x2,17
   189b4:	4d44                	c.lw	x9,28(x10)
   189b6:	2e45                	c.jal	0x18d66
   189b8:	646d                	c.lui	x8,0x1b
   189ba:	6620                	c.flw	f8,72(x12)
   189bc:	7220726f          	jal	x4,0x200de
   189c0:	6e75                	c.lui	x28,0x1d
   189c2:	6120                	c.flw	f8,64(x10)
   189c4:	646e                	c.flwsp	f8,216(x2)
   189c6:	7220                	c.flw	f8,96(x12)
   189c8:	7065                	c.lui	x0,0xffff9
   189ca:	6974726f          	jal	x4,0x60860
   189ce:	676e                	c.flwsp	f14,216(x2)
   189d0:	7220                	c.flw	f8,96(x12)
   189d2:	6c75                	c.lui	x24,0x1d
   189d4:	7365                	c.lui	x6,0xffff9
   189d6:	0a2e                	c.slli	x20,0xb
   189d8:	0000                	c.unimp
   189da:	0000                	c.unimp
   189dc:	65726f43          	.insn	4, 0x65726f43
   189e0:	614d                	c.addi16sp	x2,176
   189e2:	6b72                	c.flwsp	f22,28(x2)
   189e4:	3120                	c.fld	f8,96(x10)
   189e6:	302e                	c.fldsp	f0,232(x2)
   189e8:	3a20                	c.fld	f8,112(x12)
   189ea:	2520                	c.fld	f8,72(x10)
   189ec:	2066                	c.fldsp	f0,88(x2)
   189ee:	7325202f          	.insn	4, 0x7325202f
   189f2:	2520                	c.fld	f8,72(x10)
   189f4:	00000073          	ecall
   189f8:	2f20                	c.fld	f8,88(x14)
   189fa:	2520                	c.fld	f8,72(x10)
   189fc:	00000073          	ecall
   18a00:	6e6e6143          	.insn	4, 0x6e6e6143
   18a04:	7620746f          	jal	x8,0x20166
   18a08:	6c61                	c.lui	x24,0x18
   18a0a:	6469                	c.lui	x8,0x1a
   18a0c:	7461                	c.lui	x8,0xffff8
   18a0e:	2065                	c.jal	0x18ab6
   18a10:	7265706f          	jal	x0,0x70136
   18a14:	7461                	c.lui	x8,0xffff8
   18a16:	6f69                	c.lui	x30,0x1a
   18a18:	206e                	c.fldsp	f0,216(x2)
   18a1a:	6f66                	c.flwsp	f30,88(x2)
   18a1c:	2072                	c.fldsp	f0,280(x2)
   18a1e:	6874                	c.flw	f13,84(x8)
   18a20:	7365                	c.lui	x6,0xffff9
   18a22:	2065                	c.jal	0x18aca
   18a24:	64656573          	csrrsi	x10,hviprio1,10
   18a28:	7620                	c.flw	f8,104(x12)
   18a2a:	6c61                	c.lui	x24,0x18
   18a2c:	6575                	c.lui	x10,0x1d
   18a2e:	70202c73          	csrrs	x24,0x702,x0
   18a32:	656c                	c.flw	f11,76(x10)
   18a34:	7361                	c.lui	x6,0xffff8
   18a36:	2065                	c.jal	0x18ade
   18a38:	706d6f63          	bltu	x26,x6,0x19156
   18a3c:	7261                	c.lui	x4,0xffff8
   18a3e:	2065                	c.jal	0x18ae6
   18a40:	68746977          	.insn	4, 0x68746977
   18a44:	7220                	c.flw	f8,96(x12)
   18a46:	7365                	c.lui	x6,0xffff9
   18a48:	6c75                	c.lui	x24,0x1d
   18a4a:	7374                	c.flw	f13,100(x14)
   18a4c:	6f20                	c.flw	f8,88(x14)
   18a4e:	206e                	c.fldsp	f0,216(x2)
   18a50:	2061                	c.jal	0x18ad8
   18a52:	776f6e6b          	.insn	4, 0x776f6e6b
   18a56:	206e                	c.fldsp	f0,216(x2)
   18a58:	6c70                	c.flw	f12,92(x8)
   18a5a:	7461                	c.lui	x8,0xffff8
   18a5c:	6f66                	c.flwsp	f30,88(x2)
   18a5e:	6d72                	c.flwsp	f26,28(x2)
   18a60:	0a2e                	c.slli	x20,0xb
   18a62:	0000                	c.unimp
   18a64:	7245                	c.lui	x4,0xffff1
   18a66:	6f72                	c.flwsp	f30,28(x2)
   18a68:	7372                	c.flwsp	f6,60(x2)
   18a6a:	6420                	c.flw	f8,72(x8)
   18a6c:	7465                	c.lui	x8,0xffff9
   18a6e:	6365                	c.lui	x6,0x19
   18a70:	6574                	c.flw	f13,76(x10)
   18a72:	0a64                	c.addi4spn	x9,x2,284
   18a74:	0000                	c.unimp
   18a76:	0000                	c.unimp
   18a78:	74617453          	.insn	4, 0x74617453
   18a7c:	6369                	c.lui	x6,0x1a
   18a7e:	0000                	c.unimp
   18a80:	6548                	c.flw	f10,12(x10)
   18a82:	7061                	c.lui	x0,0xffff8
   18a84:	0000                	c.unimp
   18a86:	0000                	c.unimp
   18a88:	63617453          	.insn	4, 0x63617453
   18a8c:	0000006b          	.insn	4, 0x006b
   18a90:	3054                	c.fld	f13,160(x8)
   18a92:	332e                	c.fldsp	f6,232(x2)
   18a94:	2d65                	c.jal	0x1914c
   18a96:	4631                	c.li	x12,12
   18a98:	0000                	c.unimp
   18a9a:	0000                	c.unimp
   18a9c:	542d                	c.li	x8,-21
   18a9e:	542e                	c.lwsp	x8,232(x2)
   18aa0:	71542b2b          	.insn	4, 0x71542b2b
   18aa4:	0000                	c.unimp
   18aa6:	0000                	c.unimp
   18aa8:	5431                	c.li	x8,-20
   18aaa:	65342e33          	.insn	4, 0x65342e33
   18aae:	7a34                	c.flw	f13,112(x12)
   18ab0:	0000                	c.unimp
   18ab2:	0000                	c.unimp
   18ab4:	302e3433          	.insn	4, 0x302e3433
   18ab8:	2d65                	c.jal	0x19170
   18aba:	5e54                	c.lw	x13,60(x12)
   18abc:	0000                	c.unimp
   18abe:	0000                	c.unimp
   18ac0:	2e35                	c.jal	0x18dfc
   18ac2:	3035                	c.jal	0x182ee
   18ac4:	6530                	c.flw	f12,72(x10)
   18ac6:	0000332b          	.insn	4, 0x332b
   18aca:	0000                	c.unimp
   18acc:	2e2d                	c.jal	0x18e06
   18ace:	3231                	c.jal	0x183da
   18ad0:	322d6533          	.insn	4, 0x322d6533
   18ad4:	0000                	c.unimp
   18ad6:	0000                	c.unimp
   18ad8:	382d                	c.jal	0x18312
   18ada:	382b6537          	lui	x10,0x382b6
   18ade:	00003233          	sltu	x4,x0,x0
   18ae2:	0000                	c.unimp
   18ae4:	362e302b          	.insn	4, 0x362e302b
   18ae8:	2d65                	c.jal	0x191a0
   18aea:	3231                	c.jal	0x183f6
   18aec:	0000                	c.unimp
   18aee:	0000                	c.unimp
   18af0:	352e3533          	.insn	4, 0x352e3533
   18af4:	3434                	c.fld	f13,104(x8)
   18af6:	3030                	c.fld	f12,96(x8)
   18af8:	0000                	c.unimp
   18afa:	0000                	c.unimp
   18afc:	312e                	c.fldsp	f2,232(x2)
   18afe:	3332                	c.fldsp	f6,296(x2)
   18b00:	3534                	c.fld	f13,104(x10)
   18b02:	3030                	c.fld	f12,96(x8)
   18b04:	0000                	c.unimp
   18b06:	0000                	c.unimp
   18b08:	312d                	c.jal	0x18732
   18b0a:	3031                	c.jal	0x18316
   18b0c:	372e                	c.fldsp	f14,232(x2)
   18b0e:	3030                	c.fld	f12,96(x8)
   18b10:	0000                	c.unimp
   18b12:	0000                	c.unimp
   18b14:	362e302b          	.insn	4, 0x362e302b
   18b18:	3434                	c.fld	f13,104(x8)
   18b1a:	3030                	c.fld	f12,96(x8)
   18b1c:	0000                	c.unimp
   18b1e:	0000                	c.unimp
   18b20:	3035                	c.jal	0x1834c
   18b22:	3231                	c.jal	0x1842e
   18b24:	0000                	c.unimp
   18b26:	0000                	c.unimp
   18b28:	3231                	c.jal	0x18434
   18b2a:	00003433          	sltu	x8,x0,x0
   18b2e:	0000                	c.unimp
   18b30:	382d                	c.jal	0x1836a
   18b32:	00003437          	lui	x8,0x3
   18b36:	0000                	c.unimp
   18b38:	3232312b          	.insn	4, 0x3232312b
   18b3c:	0000                	c.unimp
   18b3e:	0000                	c.unimp
   18b40:	3130                	c.fld	f12,96(x10)
   18b42:	3332                	c.fldsp	f6,296(x2)
   18b44:	3534                	c.fld	f13,104(x10)
   18b46:	3736                	c.fldsp	f14,360(x2)
   18b48:	3938                	c.fld	f14,112(x10)
   18b4a:	6261                	c.lui	x4,0x18
   18b4c:	66656463          	bltu	x10,x6,0x191b4
   18b50:	6a696867          	.insn	4, 0x6a696867
   18b54:	6e6d6c6b          	.insn	4, 0x6e6d6c6b
   18b58:	7271706f          	jal	x0,0x30a7e
   18b5c:	76757473          	csrrci	x8,0x767,10
   18b60:	7a797877          	.insn	4, 0x7a797877
   18b64:	0000                	c.unimp
   18b66:	0000                	c.unimp
   18b68:	3130                	c.fld	f12,96(x10)
   18b6a:	3332                	c.fldsp	f6,296(x2)
   18b6c:	3534                	c.fld	f13,104(x10)
   18b6e:	3736                	c.fldsp	f14,360(x2)
   18b70:	3938                	c.fld	f14,112(x10)
   18b72:	4241                	c.li	x4,16
   18b74:	46454443          	.insn	4, 0x46454443
   18b78:	4a494847          	fmsub.d	f16,f18,f4,f9,rmm
   18b7c:	4e4d4c4b          	.insn	4, 0x4e4d4c4b
   18b80:	5251504f          	fnmadd.d	f0,f2,f5,f10,unknown
   18b84:	56555453          	.insn	4, 0x56555453
   18b88:	5a595857          	.insn	4, 0x5a595857
   18b8c:	0000                	c.unimp
   18b8e:	0000                	c.unimp
   18b90:	4e3c                	c.lw	x15,88(x12)
   18b92:	4c55                	c.li	x24,21
   18b94:	3e4c                	c.fld	f11,184(x12)
	...

Disassembly of section .srodata.cst8:

00018b98 <.srodata.cst8>:
   18b98:	0000                	c.unimp
   18b9a:	0000                	c.unimp
   18b9c:	0000                	c.unimp
   18b9e:	3ff0                	c.fld	f12,248(x15)
   18ba0:	0000                	c.unimp
   18ba2:	0000                	c.unimp
   18ba4:	0000                	c.unimp
   18ba6:	4024                	c.lw	x9,64(x8)
   18ba8:	0000                	c.unimp
   18baa:	0000                	c.unimp
   18bac:	d784                	c.sw	x9,40(x15)
   18bae:	1eb84187          	.insn	4, 0x1eb84187
   18bb2:	eb85                	c.bnez	x15,0x18be2
   18bb4:	b851                	c.j	0x18448
   18bb6:	3f9e                	c.fldsp	f31,480(x2)
